 MFC42_original

 Timestamp is 404006c5 (Fri Feb 27 19:11:01 2004)

 Preferred load address is 5f400000

 Start         Length     Name                   Class
 0001:00000000 0009b004H .text                   CODE
 0002:00000000 00035ba8H .rdata                  DATA
 0003:00000000 00009b08H .data                   DATA
 0004:00000000 0000a2c0H .rsrc                   DATA
 0005:00000000 0000f898H .reloc                  DATA

  Address         Publics by Value              Rva+Base   Lib:Object

 0001:00000000       ?GetData@CThreadLocalObject@@QAEPAVCNoTrackObject@@P6GPAV2@XZ@Z 5f401000 f
 0001:0000007d       __EH_prolog                5f40107d f
 0001:0000009c       ?AfxGetModuleState@@YGPAVAFX_MODULE_STATE@@XZ 5f40109c f
 0001:000000c4       ?GetData@CProcessLocalObject@@QAEPAVCNoTrackObject@@P6GPAV2@XZ@Z 5f4010c4 f
 0001:00000111       ?AfxGetModuleThreadState@@YGPAVAFX_MODULE_THREAD_STATE@@XZ 5f401111 f
 0001:00000128       ?AfxGetThread@@YGPAVCWinThread@@XZ 5f401128 f
 0001:00000139       ?AfxGetMainWnd@@YGPAVCWnd@@XZ 5f401139 f
 0001:0000014e       ?GetMainWnd@CWinThread@@UAEPAVCWnd@@XZ 5f40114e f
 0001:0000016b       ?FromHandle@CWnd@@SGPAV1@PAUHWND__@@@Z 5f40116b f
 0001:00000192       ?afxMapHWND@@YGPAVCHandleMap@@H@Z 5f401192 f
 0001:00000206       ?FromHandle@CHandleMap@@QAEPAVCObject@@PAX@Z 5f401206 f
 0001:000002b6       ?AttachControlSite@CWnd@@IAEXPAVCHandleMap@@@Z 5f4012b6 f
 0001:000002eb       ?GetValueAt@CMapPtrToPtr@@QBEPAXPAX@Z 5f4012eb f
 0001:0000031e       ?FromHandlePermanent@CWnd@@SGPAV1@PAUHWND__@@@Z 5f40131e f
 0001:00000339       ?GetTopLevelParent@CWnd@@QBEPAV1@XZ 5f401339 f
 0001:00000361       ?AfxGetParentOwner@@YGPAUHWND__@@PAU1@@Z 5f401361 f
 0001:000003a8       ?GetOwner@CWnd@@QBEPAV1@XZ 5f4013a8 f
 0001:000003bf       ?PumpMessage@CWinThread@@UAEHXZ 5f4013bf f
 0001:000003ff       ?PreTranslateMessage@CWinThread@@UAEHPAUtagMSG@@@Z 5f4013ff f
 0001:00000456       ?WalkPreTranslateTree@CWnd@@SGHPAUHWND__@@PAUtagMSG@@@Z 5f401456 f
 0001:00000498       ?IsIdleMessage@CWinThread@@UAEHPAUtagMSG@@@Z 5f401498 f
 0001:00000508       ?PreTranslateMessage@CWnd@@UAEHPAUtagMSG@@@Z 5f401508 f
 0001:00000521       ?AfxGetThreadState@@YGPAV_AFX_THREAD_STATE@@XZ 5f401521 f
 0001:00000531       _memset                    5f401531 f
 0001:00000537       ?AfxLockGlobals@@YGXH@Z    5f401537 f
 0001:000005a8       ?AfxUnlockGlobals@@YGXH@Z  5f4015a8 f
 0001:000005c9       ?FreeDataChain@CPlex@@QAEXXZ 5f4015c9 f
 0001:000005e1       ?Free@CFixedAlloc@@QAEXPAX@Z 5f4015e1 f
 0001:00000626       ??1CWnd@@UAE@XZ            5f401626 f
 0001:0000069a       ??1CCmdTarget@@UAE@XZ      5f40169a f
 0001:000006db       ??1CString@@QAE@XZ         5f4016db f
 0001:00000705       ?FreeData@CString@@KIXPAUCStringData@@@Z 5f401705 f
 0001:0000074d       ?DeleteTemp@CHandleMap@@QAEXXZ 5f40174d f
 0001:000007b6       ?RemoveAll@CMapWordToPtr@@QAEXXZ 5f4017b6 f
 0001:000007e3       ?AfxOleTermOrFreeLib@@YGXHH@Z 5f4017e3 f
 0001:0000082b       ?_AfxHandleSetCursor@@YGHPAVCWnd@@II@Z 5f40182b f
 0001:00000840       ??0CCmdTarget@@QAE@XZ      5f401840 f
 0001:0000088a       ??0CWnd@@QAE@XZ            5f40188a f
 0001:000008ac       ?InitInstance@CWinThread@@UAEHXZ 5f4018ac f
 0001:000008af       ?Alloc@CFixedAlloc@@QAEPAXXZ 5f4018af f
 0001:00000928       ??0AFX_MAINTAIN_STATE2@@QAE@PAVAFX_MODULE_STATE@@@Z 5f401928 f
 0001:0000094f       ?AfxWndProcBase@@YGJPAUHWND__@@IIJ@Z 5f40194f f
 0001:0000099f       ?AfxWndProc@@YGJPAUHWND__@@IIJ@Z 5f40199f f
 0001:000009df       ?AfxCallWndProc@@YGJPAVCWnd@@PAUHWND__@@IIJ@Z 5f4019df f
 0001:00000aa8       ?WindowProc@CWnd@@MAEJIIJ@Z 5f401aa8 f
 0001:00000aec       ?OnWndMsg@CWnd@@MAEHIIJPAJ@Z 5f401aec f
 0001:00000e2c       ?AfxFindMessageEntry@@YGPBUAFX_MSGMAP_ENTRY@@PBU1@III@Z 5f401e2c f
 0001:00000e6c       ?GetMessageMap@CCmdTarget@@MBEPBUAFX_MSGMAP@@XZ 5f401e6c f
 0001:00000e72       ?DefWindowProcA@CWnd@@MAEJIIJ@Z 5f401e72 f
 0001:00000e9b       ?OnPaint@CCtrlView@@IAEXXZ 5f401e9b f
 0001:00000e9b       ?Default@CWnd@@IAEJXZ      5f401e9b f
 0001:00000ec2       ?GetStyle@CWnd@@QBEKXZ     5f401ec2 f
 0001:00000ed9       ?GetTopLevelFrame@CWnd@@QBEPAVCFrameWnd@@XZ 5f401ed9 f
 0001:00000f20       ?GetParentFrame@CWnd@@QBEPAVCFrameWnd@@XZ 5f401f20 f
 0001:00001022       ?OnCmdMsg@CCmdTarget@@UAEHIHPAXPAUAFX_CMDHANDLERINFO@@@Z 5f402022 f
 0001:0000109f       ?_AfxDispatchCmdMsg@@YGHPAVCCmdTarget@@IHP81@AEXXZPAXIPAUAFX_CMDHANDLERINFO@@@Z 5f40209f f
 0001:00001137       ??0CCmdUI@@QAE@XZ          5f402137 f
 0001:0000115d       ??0CString@@QAE@XZ         5f40215d f
 0001:0000116d       ?AfxGetEmptyString@@YGABVCString@@XZ 5f40216d f
 0001:00001173       ?AllocBuffer@CString@@IAEXH@Z 5f402173 f
 0001:000011f0       _memcpy                    5f4021f0 f
 0001:000011f6       ?GetBuffer@CString@@QAEPADH@Z 5f4021f6 f
 0001:00001247       ?Release@CString@@KGXPAUCStringData@@@Z 5f402247 f
 0001:0000126c       ?ReleaseBuffer@CString@@QAEXH@Z 5f40226c f
 0001:00001294       ?CopyBeforeWrite@CString@@IAEXXZ 5f402294 f
 0001:000012a7       ?AfxDynamicDownCast@@YAPAVCObject@@PAUCRuntimeClass@@PAV1@@Z 5f4022a7 f
 0001:000012cc       ?IsKindOf@CObject@@QBEHPBUCRuntimeClass@@@Z 5f4022cc f
 0001:000012de       ?IsDerivedFrom@CRuntimeClass@@QBEHPBU1@@Z 5f4022de f
 0001:000012f9       ?SendMessageToDescendants@CWnd@@SGXPAUHWND__@@IIJHH@Z 5f4022f9 f
 0001:00001378       ?IsFrameWnd@CFrameWnd@@UBEHXZ 5f402378 f
 0001:0000137c       ?SendChildNotifyLastMsg@CWnd@@QAEHPAJ@Z 5f40237c f
 0001:000013a9       ?OnChildNotify@CWnd@@MAEHIIJPAJ@Z 5f4023a9 f
 0001:000013cd       ?ReflectChildNotify@CWnd@@IAEHIIJPAJ@Z 5f4023cd f
 0001:000014b1       ?GetBufferSetLength@CString@@QAEPADH@Z 5f4024b1 f
 0001:000014d1       ?ReflectLastMsg@CWnd@@KGHPAUHWND__@@PAJ@Z 5f4024d1 f
 0001:00001539       ?OnIdle@CWinApp@@UAEHJ@Z   5f402539 f
 0001:000015a3       ?OnIdle@CWinThread@@UAEHJ@Z 5f4025a3 f
 0001:000016a6       ?AfxLockTempMaps@@YGXXZ    5f4026a6 f
 0001:000016af       ?AfxUnlockTempMaps@@YGHH@Z 5f4026af f
 0001:00001796       ?OnCommand@CWnd@@MAEHIJ@Z  5f402796 f
 0001:0000182f       ?OnCommand@CFrameWnd@@MAEHIJ@Z 5f40282f f
 0001:0000185e       ?_GetBaseMessageMap@CPropertySheet@@KGPBUAFX_MSGMAP@@XZ 5f40285e f
 0001:00001864       ?WindowProc@CControlBar@@UAEJIIJ@Z 5f402864 f
 0001:000018c3       ?GetMessageMap@CToolBar@@MBEPBUAFX_MSGMAP@@XZ 5f4028c3 f
 0001:000018c9       ?_GetBaseMessageMap@CReBar@@KGPBUAFX_MSGMAP@@XZ 5f4028c9 f
 0001:000018cf       ?_GetBaseMessageMap@CSplitterWnd@@KGPBUAFX_MSGMAP@@XZ 5f4028cf f
 0001:000018d5       ?GetMessageMap@CStatusBar@@MBEPBUAFX_MSGMAP@@XZ 5f4028d5 f
 0001:000018db       ?GetMessageMap@CDockBar@@MBEPBUAFX_MSGMAP@@XZ 5f4028db f
 0001:000018e1       ?OnIdleUpdateCmdUI@CControlBar@@QAEJIJ@Z 5f4028e1 f
 0001:00001974       ?OnUpdateCmdUI@CStatusBar@@UAEXPAVCFrameWnd@@H@Z 5f402974 f
 0001:000019e8       ?DoUpdate@CCmdUI@@QAEHPAVCCmdTarget@@H@Z 5f4029e8 f
 0001:00001a4b       ?OnCmdMsg@CFrameWnd@@UAEHIHPAXPAUAFX_CMDHANDLERINFO@@@Z 5f402a4b f
 0001:00001af3       ?GetActiveView@CFrameWnd@@QBEPAVCView@@XZ 5f402af3 f
 0001:00001afa       ?OnUpdateKeyIndicator@CFrameWnd@@IAEXPAVCCmdUI@@@Z 5f402afa f
 0001:00001b42       ?Enable@CStatusCmdUI@@UAEXH@Z 5f402b42 f
 0001:00001b7b       ?GetPaneStyle@CStatusBar@@QBEIH@Z 5f402b7b f
 0001:00001b8c       ?SetPaneStyle@CStatusBar@@QAEXHI@Z 5f402b8c f
 0001:00001bd8       ?UpdateDialogControls@CWnd@@QAEXPAVCCmdTarget@@H@Z 5f402bd8 f
 0001:00001cc3       ?OnUpdateCmdUI@CDockBar@@MAEXPAVCFrameWnd@@H@Z 5f402cc3 f
 0001:00001cc6       ?OnUpdateCmdUI@CToolBar@@UAEXPAVCFrameWnd@@H@Z 5f402cc6 f
 0001:00001d72       ?_GetButton@CToolBar@@IBEXHPAU_TBBUTTON@@@Z 5f402d72 f
 0001:00001d91       ?GetMessageMap@CView@@MBEPBUAFX_MSGMAP@@XZ 5f402d91 f
 0001:00001d97       ?_GetBaseMessageMap@CView@@KGPBUAFX_MSGMAP@@XZ 5f402d97 f
 0001:00001d9d       ?GetFirstViewPosition@CDocument@@UBEPAU__POSITION@@XZ 5f402d9d f
 0001:00001da1       ?GetNextView@CDocument@@UBEPAVCView@@AAPAU__POSITION@@@Z 5f402da1 f
 0001:00001db5       ?_GetBaseClass@COleObjectFactory@@KGPAUCRuntimeClass@@XZ 5f402db5 f
 0001:00001dbb       ?OnCmdMsg@CView@@UAEHIHPAXPAUAFX_CMDHANDLERINFO@@@Z 5f402dbb f
 0001:00001e38       ?OnCmdMsg@COleDocument@@UAEHIHPAXPAUAFX_CMDHANDLERINFO@@@Z 5f402e38 f
 0001:00001e7f       ?OnCmdMsg@CDocument@@UAEHIHPAXPAUAFX_CMDHANDLERINFO@@@Z 5f402e7f f
 0001:00001ec2       ?_GetBaseMessageMap@CDocument@@KGPBUAFX_MSGMAP@@XZ 5f402ec2 f
 0001:00001ec8       ?OnCmdMsg@CDocTemplate@@UAEHIHPAXPAUAFX_CMDHANDLERINFO@@@Z 5f402ec8 f
 0001:00001eff       ?GetRuntimeClass@COleObjectFactory@@UBEPAUCRuntimeClass@@XZ 5f402eff f
 0001:00001f05       ?_GetBaseMessageMap@COleServerDoc@@KGPBUAFX_MSGMAP@@XZ 5f402f05 f
 0001:00001f0b       ?Enable@CToolCmdUI@@UAEXH@Z 5f402f0b f
 0001:00001f4b       ?GetButtonStyle@CToolBar@@QBEIH@Z 5f402f4b f
 0001:00001f6e       ?SetButtonStyle@CToolBar@@QAEXHI@Z 5f402f6e f
 0001:00001fbd       ?GetFirstDocTemplatePosition@CDocManager@@UBEPAU__POSITION@@XZ 5f402fbd f
 0001:00001fc1       ?GetNextDocTemplate@CDocManager@@UBEPAVCDocTemplate@@AAPAU__POSITION@@@Z 5f402fc1 f
 0001:00001fd1       ?GetActiveDocument@CFrameWnd@@UAEPAVCDocument@@XZ 5f402fd1 f
 0001:00001fe1       ?SetCheck@CToolCmdUI@@UAEXH@Z 5f402fe1 f
 0001:00002022       ?OnIdleUpdateCmdUI@CFrameWnd@@IAEXXZ 5f403022 f
 0001:00002068       ?OnIdle@CDocTemplate@@UAEXXZ 5f403068 f
 0001:00002099       ?OnIdle@COleDocument@@UAEXXZ 5f403099 f
 0001:000020ef       ?GetDefaultAccelerator@CFrameWnd@@UAEPAUHACCEL__@@XZ 5f4030ef f
 0001:00002115       ?OnSetCursor@CFrameWnd@@IAEHPAVCWnd@@II@Z 5f403115 f
 0001:00002132       ?GetDefaultAccelerator@COleServerDoc@@MAEPAUHACCEL__@@XZ 5f403132 f
 0001:00002156       ?OnNotify@CWnd@@MAEHIJPAJ@Z 5f403156 f
 0001:000021d0       ?GetScrollBarCtrl@CView@@UBEPAVCScrollBar@@H@Z 5f4031d0 f
 0001:00002245       ?GetParentSplitter@CView@@SGPAVCSplitterWnd@@PBVCWnd@@H@Z 5f403245 f
 0001:00002289       ?GetScrollPos@CWnd@@QBEHH@Z 5f403289 f
 0001:000022b1       ?_GetBaseClass@CDialog@@KGPAUCRuntimeClass@@XZ 5f4032b1 f
 0001:000022b7       ?_GetBaseClass@CPtrList@@KGPAUCRuntimeClass@@XZ 5f4032b7 f
 0001:000022bd       ?PreTranslateMessage@CFrameWnd@@UAEHPAUtagMSG@@@Z 5f4032bd f
 0001:0000232f       ?_FilterToolTipMessage@CWnd@@SGXPAUtagMSG@@PAV1@@Z 5f40332f f
 0001:0000233f       ?FilterToolTipMessage@CWnd@@QAEXPAUtagMSG@@@Z 5f40333f f
 0001:0000241c       ?GetWindowTextA@CWnd@@QBEXAAVCString@@@Z 5f40341c f
 0001:0000245a       ?_GetBaseMessageMap@CRichEditView@@KGPBUAFX_MSGMAP@@XZ 5f40345a f
 0001:00002460       ?OnUpdateCharBold@CRichEditView@@IAEXPAVCCmdUI@@@Z 5f403460 f
 0001:00002470       ?OnUpdateCharEffect@CRichEditView@@QAEXPAVCCmdUI@@KK@Z 5f403470 f
 0001:000024a6       ?GetCharFormatSelection@CRichEditView@@QAEAAU_charformat@@XZ 5f4034a6 f
 0001:000024d3       ?OnUpdateCharItalic@CRichEditView@@IAEXPAVCCmdUI@@@Z 5f4034d3 f
 0001:000024e3       ?OnUpdateCharUnderline@CRichEditView@@IAEXPAVCCmdUI@@@Z 5f4034e3 f
 0001:000024f3       ?OnUpdateParaLeft@CRichEditView@@IAEXPAVCCmdUI@@@Z 5f4034f3 f
 0001:00002501       ?OnUpdateParaAlign@CRichEditView@@QAEXPAVCCmdUI@@G@Z 5f403501 f
 0001:00002548       ?GetParaFormatSelection@CRichEditView@@QAEAAU_paraformat@@XZ 5f403548 f
 0001:00002575       ?OnUpdateParaCenter@CRichEditView@@IAEXPAVCCmdUI@@@Z 5f403575 f
 0001:00002583       ?OnUpdateParaRight@CRichEditView@@IAEXPAVCCmdUI@@@Z 5f403583 f
 0001:00002591       ?OnUpdateBullet@CRichEditView@@IAEXPAVCCmdUI@@@Z 5f403591 f
 0001:000025bd       ?GetDlgCtrlID@CWnd@@QBEHXZ 5f4035bd f
 0001:000025d2       ?OnUpdateNeedText@CRichEditView@@IAEXPAVCCmdUI@@@Z 5f4035d2 f
 0001:000025f6       ?OnUpdateNeedSel@CRichEditView@@IAEXPAVCCmdUI@@@Z 5f4035f6 f
 0001:00002621       ?GetSel@CRichEditCtrl@@QBEXAAJ0@Z 5f403621 f
 0001:0000264e       ?OnUpdateNeedClip@CRichEditView@@IAEXPAVCCmdUI@@@Z 5f40364e f
 0001:00002665       ?CanPaste@CRichEditView@@QBEHXZ 5f403665 f
 0001:0000267c       ?OnUpdateEditUndo@CEditView@@IAEXPAVCCmdUI@@@Z 5f40367c f
 0001:0000269a       ?GetFirstDocPosition@CSingleDocTemplate@@UBEPAU__POSITION@@XZ 5f40369a f
 0001:000026a2       ?GetNextDoc@CSingleDocTemplate@@UBEPAVCDocument@@AAPAU__POSITION@@@Z 5f4036a2 f
 0001:000026b6       ?OnKeyDown@CRichEditView@@IAEXIII@Z 5f4036b6 f
 0001:000026d5       ?GetParaFormat@CRichEditCtrl@@QBEKAAU_paraformat@@@Z 5f4036d5 f
 0001:000026f3       ?GetSelectionCharFormat@CRichEditCtrl@@QBEKAAU_charformat@@@Z 5f4036f3 f
 0001:00002711       ?OnSelChange@CRichEditView@@IAEXPAUtagNMHDR@@PAJ@Z 5f403711 f
 0001:0000272a       ??3@YAXPAX@Z               5f40372a f
 0001:00002736       ??2CNoTrackObject@@SGPAXI@Z 5f403736 f
 0001:00002753       ??0CPtrList@@QAE@H@Z       5f403753 f
 0001:00002776       ??2@YAPAXI@Z               5f403776 f
 0001:0000279f       ?AfxSetNewHandler@@YGP6AHI@ZP6AHI@Z@Z 5f40379f f
 0001:000027b3       ?InitHashTable@CMapWordToPtr@@QAEXIH@Z 5f4037b3 f
 0001:000027f1       ??ACMapPtrToPtr@@QAEAAPAXPAX@Z 5f4037f1 f
 0001:00002843       ?GetAssocAt@CMapPtrToWord@@IBEPAUCAssoc@1@PAXAAI@Z 5f403843 f
 0001:00002875       ?NewAssoc@CMapPtrToPtr@@IAEPAUCAssoc@1@XZ 5f403875 f
 0001:000028c2       ?Create@CPlex@@SGPAU1@AAPAU1@II@Z 5f4038c2 f
 0001:000028e2       ?_AfxCbtFilterHook@@YGJHIJ@Z 5f4038e2 f
 0001:00002a4a       ?CreateObject@CRuntimeClass@@QAEPAVCObject@@XZ 5f403a4a f
 0001:00002a82       ?GetNextAssoc@CMapPtrToPtr@@QBEXAAPAU__POSITION@@AAPAX1@Z 5f403a82 f
 0001:00002af6       ??_ECTempWnd@@UAEPAXI@Z    5f403af6 f
 0001:00002af6       ??_GCTempWnd@@UAEPAXI@Z    5f403af6 f
 0001:00002b16       ??_GCTempMenu@@UAEPAXI@Z   5f403b16 f
 0001:00002b16       ??_ECTempMenu@@UAEPAXI@Z   5f403b16 f
 0001:00002b36       ??1CTempMenu@@UAE@XZ       5f403b36 f
 0001:00002b69       ?DestroyMenu@CMenu@@QAEHXZ 5f403b69 f
 0001:00002b76       ?CreateObject@CTempWnd@@SGPAVCObject@@XZ 5f403b76 f
 0001:00002bb6       ?_AfxMsgFilterHook@@YGJHIJ@Z 5f403bb6 f
 0001:00002bef       ?ProcessMessageFilter@CWinThread@@UAEHHPAUtagMSG@@@Z 5f403bef f
 0001:00002c72       ?RemoveKey@CMapPtrToWord@@QAEHPAX@Z 5f403c72 f
 0001:00002cb4       ?FreeAssoc@CMapPtrToPtr@@IAEXPAUCAssoc@1@@Z 5f403cb4 f
 0001:00002ccf       ?SetWindowPos@CWnd@@QAEHPBV1@HHHHI@Z 5f403ccf f
 0001:00002d06       ?_GetBaseInterfaceMap@COleLinkingDoc@@KGPBUAFX_INTERFACEMAP@@XZ 5f403d06 f
 0001:00002d0c       ?AfxDeleteObject@@YGXPAPAX@Z 5f403d0c f
 0001:00002d27       ??1CPtrList@@UAE@XZ        5f403d27 f
 0001:00002d5a       ?RemoveAll@CObList@@QAEXXZ 5f403d5a f
 0001:00002d7a       ?Remove@CSimpleList@@QAEHPAX@Z 5f403d7a f
 0001:00002da2       ?AfxLoadString@@YGHIPADI@Z 5f403da2 f
 0001:00002ede       ??4CString@@QAEABV0@PBD@Z  5f403ede f
 0001:00002f05       ?AssignCopy@CString@@IAEXHPBD@Z 5f403f05 f
 0001:00002f32       ?AllocBeforeWrite@CString@@IAEXH@Z 5f403f32 f
 0001:00002f5b       ?SetWindowTextA@CWnd@@QAEXPBD@Z 5f403f5b f
 0001:00002f76       ?FromHandle@CMenu@@SGPAV1@PAUHMENU__@@@Z 5f403f76 f
 0001:00002f8b       ?afxMapHMENU@@YGPAVCHandleMap@@H@Z 5f403f8b f
 0001:00002fff       ?CreateObject@CTempMenu@@SGPAVCObject@@XZ 5f403fff f
 0001:0000301c       ?OnEnterIdle@CWnd@@IAEXIPAV1@@Z 5f40401c f
 0001:00003054       __imp_load__OleInitialize@4 5f404054 f
 0001:0000305b       __tailMerge_ole32          5f40405b f
 0001:00003069       ___delayLoadHelper@8       5f404069 f
 0001:0000317a       ?ExternalAddRef@CCmdTarget@@QAEKXZ 5f40417a f
 0001:00003190       ?GetSuperWndProcAddr@CWnd@@MAEPAP6GJPAUHWND__@@IIJ@ZXZ 5f404190 f
 0001:00003194       ?_AfxHandleActivate@@YGXPAVCWnd@@I0@Z 5f404194 f
 0001:000031f5       ?OnActivateTopLevel@CWnd@@IAEJIJ@Z 5f4041f5 f
 0001:00003246       ?Release@CString@@IAEXXZ   5f404246 f
 0001:00003258       ?ShowWindow@CWnd@@QAEHH@Z  5f404258 f
 0001:00003273       ?Empty@CString@@QAEXXZ     5f404273 f
 0001:0000327c       ?InternalQueryInterface@CCmdTarget@@QAEKPBXPAPAX@Z 5f40427c f
 0001:000032be       ?GetInterface@CCmdTarget@@QAEPAUIUnknown@@PBX@Z 5f4042be f
 0001:00003372       ?GetConnectionHook@CCmdTarget@@MAEPAUIConnectionPoint@@ABU_GUID@@@Z 5f404372 f
 0001:00003397       ?ExternalRelease@CCmdTarget@@QAEKXZ 5f404397 f
 0001:000033a2       ?InternalRelease@CCmdTarget@@QAEKXZ 5f4043a2 f
 0001:000033dc       ?QueryAggregates@CCmdTarget@@QAEPAUIUnknown@@PBX@Z 5f4043dc f
 0001:00003416       ?ExternalQueryInterface@CCmdTarget@@QAEKPBXPAPAX@Z 5f404416 f
 0001:00003431       ?CancelToolTips@CWnd@@SGXH@Z 5f404431 f
 0001:00003460       ??1CDC@@UAE@XZ             5f404460 f
 0001:000034a2       ?PreSubclassWindow@CWnd@@UAEXXZ 5f4044a2 f
 0001:000034a3       ?DeleteObject@CGdiObject@@QAEHXZ 5f4044a3 f
 0001:000034b9       ?afxMapHGDIOBJ@@YGPAVCHandleMap@@H@Z 5f4044b9 f
 0001:0000352d       ?Detach@CGdiObject@@QAEPAXXZ 5f40452d f
 0001:00003556       ?AfxGetFileName@@YGIPBDPADI@Z 5f404556 f
 0001:000035b5       __imp_load__RegCloseKey@4  5f4045b5 f
 0001:000035bc       __tailMerge_ADVAPI32       5f4045bc f
 0001:000035ca       ?OnChildNotify@CComboBox@@MAEHIIJPAJ@Z 5f4045ca f
 0001:0000361a       ?GetDockedControlBar@CDockBar@@IBEPAVCControlBar@@H@Z 5f40461a f
 0001:00003636       ?OnActivateFrame@CView@@MAEXIPAVCFrameWnd@@@Z 5f404636 f
 0001:00003639       ?OnActivateView@CView@@MAEXHPAV1@0@Z 5f404639 f
 0001:00003659       ?OnNcActivate@CFrameWnd@@IAEHH@Z 5f404659 f
 0001:00003692       ?IsWindowEnabled@CWnd@@QBEHXZ 5f404692 f
 0001:000036a7       ?OnActivateTopLevel@CFrameWnd@@IAEJIJ@Z 5f4046a7 f
 0001:00003721       ?ExitHelpMode@CFrameWnd@@UAEXXZ 5f404721 f
 0001:00003739       ?OnActivate@CFrameWnd@@IAEXIPAVCWnd@@H@Z 5f404739 f
 0001:000037fd       ?NotifyFloatingWindows@CFrameWnd@@QAEXK@Z 5f4047fd f
 0001:00003895       ?AfxIsDescendant@@YGHPAUHWND__@@0@Z 5f404895 f
 0001:000038b3       ?UpdateVisibleLock@COleLinkingDoc@@IAEXHH@Z 5f4048b3 f
 0001:000038ef       ?LockExternal@COleLinkingDoc@@IAEXHH@Z 5f4048ef f
 0001:00003937       ?IsVisible@CControlBar@@UBEHXZ 5f404937 f
 0001:0000395a       ?ScreenToClient@CWnd@@QBEXPAUtagRECT@@@Z 5f40495a f
 0001:00003992       ?DestroyWindow@CWnd@@UAEHXZ 5f404992 f
 0001:000039d8       ?OnDestroy@CWnd@@IAEXXZ    5f4049d8 f
 0001:000039f3       ?OnNcDestroy@CWnd@@IAEXXZ  5f4049f3 f
 0001:00003ae6       ?Detach@CWnd@@QAEPAUHWND__@@XZ 5f404ae6 f
 0001:00003b13       ?GetInterfaceHook@COleServerDoc@@MAEPAUIUnknown@@PBX@Z 5f404b13 f
 0001:00003b36       ?GetInterfaceMap@COleServerDoc@@MBEPBUAFX_INTERFACEMAP@@XZ 5f404b36 f
 0001:00003b3c       ?QueryInterface@XPersistStorage@COleServerDoc@@UAGJABU_GUID@@PAPAX@Z 5f404b3c f
 0001:00003b56       ?_GetBaseInterfaceMap@COleServerDoc@@KGPBUAFX_INTERFACEMAP@@XZ 5f404b56 f
 0001:00003b5c       ?Release@XPersistStorage@COleServerDoc@@UAGKXZ 5f404b5c f
 0001:00003b6e       __DllMainCRTStartup@12     5f404b6e f
 0001:00003c12       _RawDllMain@12             5f404c12 f
 0001:00003cbf       ?CreateObject@?$CThreadLocal@V_AFX_THREAD_STATE@@@@SGPAVCNoTrackObject@@XZ 5f404cbf f
 0001:00003cf3       ??0_AFX_THREAD_STATE@@QAE@XZ 5f404cf3 f
 0001:00003d0a       ?SetValue@CThreadSlotData@@QAEXHPAX@Z 5f404d0a f
 0001:00003df5       ?AddHead@CSimpleList@@QAEXPAX@Z 5f404df5 f
 0001:00003e08       __CRT_INIT@12              5f404e08 f
 0001:00003eb9       ??0CMapPtrToPtr@@QAE@H@Z   5f404eb9 f
 0001:00003ee0       ?CreateObject@?$CThreadLocal@VAFX_MODULE_THREAD_STATE@@@@SGPAVCNoTrackObject@@XZ 5f404ee0 f
 0001:00003f14       ??0AFX_MODULE_THREAD_STATE@@QAE@XZ 5f404f14 f
 0001:00003f79       _DllMain@12                5f404f79 f
 0001:000040f5       ?_AfxGetOleModuleState@@YGPAVAFX_MODULE_STATE@@XZ 5f4050f5 f
 0001:000040fb       ?AfxSetModuleState@@YGPAVAFX_MODULE_STATE@@PAV1@@Z 5f4050fb f
 0001:00004119       ?afxMapHDC@@YGPAVCHandleMap@@H@Z 5f405119 f
 0001:0000418d       ?Detach@CDC@@QAEPAUHDC__@@XZ 5f40518d f
 0001:000041bd       ?ReleaseAttribDC@CDC@@UAEXXZ 5f4051bd f
 0001:000041c2       ??1CWinThread@@UAE@XZ      5f4051c2 f
 0001:00004213       ?DeleteValues@CThreadSlotData@@QAEXPAUHINSTANCE__@@H@Z 5f405213 f
 0001:0000426c       ?DeleteValues@CThreadSlotData@@QAEXPAUCThreadData@@PAUHINSTANCE__@@@Z 5f40526c f
 0001:00004309       ??_G_AFX_THREAD_STATE@@UAEPAXI@Z 5f405309 f
 0001:00004309       ??_E_AFX_THREAD_STATE@@UAEPAXI@Z 5f405309 f
 0001:00004324       ??1_AFX_THREAD_STATE@@UAE@XZ 5f405324 f
 0001:0000438e       ??3CNoTrackObject@@SGXPAX@Z 5f40538e f
 0001:000043a2       ??_GAFX_MODULE_THREAD_STATE@@UAEPAXI@Z 5f4053a2 f
 0001:000043a2       ??_EAFX_MODULE_THREAD_STATE@@UAEPAXI@Z 5f4053a2 f
 0001:000043bd       ??1AFX_MODULE_THREAD_STATE@@UAE@XZ 5f4053bd f
 0001:0000448f       ??1CMapPtrToPtr@@UAE@XZ    5f40548f f
 0001:000044c2       ??1CHandleMap@@QAE@XZ      5f4054c2 f
 0001:00004503       ??_G_AFX_CTL3D_THREAD@@UAEPAXI@Z 5f405503 f
 0001:00004503       ??_E_AFX_CTL3D_THREAD@@UAEPAXI@Z 5f405503 f
 0001:0000451e       ??1_AFX_CTL3D_THREAD@@UAE@XZ 5f40551e f
 0001:00004556       ??_E_AFX_DB_STATE@@UAEPAXI@Z 5f405556 f
 0001:00004556       ??_G_AFX_DB_STATE@@UAEPAXI@Z 5f405556 f
 0001:00004571       ??1_AFX_DB_STATE@@UAE@XZ   5f405571 f
 0001:00004572       ?GetDataNA@CThreadLocalObject@@QAEPAVCNoTrackObject@@XZ 5f405572 f
 0001:0000459f       _memcmp                    5f40559f f
 0001:000045a5       ??0CDC@@QAE@XZ             5f4055a5 f
 0001:000045b9       ?_GetBaseMessageMap@CDialog@@KGPBUAFX_MSGMAP@@XZ 5f4055b9 f
 0001:000045bf       ?AfxUnhookWindowCreate@@YGHXZ 5f4055bf f
 0001:000045df       ??_GCTempGdiObject@@UAEPAXI@Z 5f4055df f
 0001:000045df       ??_ECTempGdiObject@@UAEPAXI@Z 5f4055df f
 0001:000045ff       ??1CTempGdiObject@@UAE@XZ  5f4055ff f
 0001:00004632       ?CommonConstruct@CWinThread@@QAEXXZ 5f405632 f
 0001:00004664       ?AfxInitThread@@YGXXZ      5f405664 f
 0001:000046bc       ?CreateObject@?$CThreadLocal@V_AFX_CTL3D_THREAD@@@@SGPAVCNoTrackObject@@XZ 5f4056bc f
 0001:000046d2       ??0CHandleMap@@QAE@PAUCRuntimeClass@@IH@Z 5f4056d2 f
 0001:0000472e       ?LoadStringA@CString@@QAEHI@Z 5f40572e f
 0001:0000477c       ?Attach@CWnd@@QAEHPAUHWND__@@@Z 5f40577c f
 0001:000047b4       ?FromHandle@CGdiObject@@SGPAV1@PAX@Z 5f4057b4 f
 0001:000047c9       ?Run@CWinApp@@UAEHXZ       5f4057c9 f
 0001:000047e9       ?Run@CWinThread@@UAEHXZ    5f4057e9 f
 0001:0000486c       ?SetFocus@CWnd@@QAEPAV1@XZ 5f40586c f
 0001:00004887       ?AfxSetWindowText@@YGXPAUHWND__@@PBD@Z 5f405887 f
 0001:000048e1       ?UpdateFrameTitleForDocument@CFrameWnd@@QAEXPBD@Z 5f4058e1 f
 0001:000049a3       ?ProcessShellCommand@CWinApp@@QAEHAAVCCommandLineInfo@@@Z 5f4059a3 f
 0001:00004a1b       ??0AFX_EXCEPTION_LINK@@QAE@XZ 5f405a1b f
 0001:00004a31       ?AfxGetExceptionContext@@YAPAUAFX_EXCEPTION_CONTEXT@@XZ 5f405a31 f
 0001:00004a59       ?AfxTryCleanup@@YGXXZ      5f405a59 f
 0001:00004a76       ?PreTranslateInput@CWnd@@QAEHPAUtagMSG@@@Z 5f405a76 f
 0001:00004aa8       __imp_load__CoRegisterClassObject@20 5f405aa8 f
 0001:00004ab4       ?AddRef@XClassFactory@COleObjectFactory@@UAGKXZ 5f405ab4 f
 0001:00004ac5       ?QueryInterface@XClassFactory@COleObjectFactory@@UAGJABU_GUID@@PAPAX@Z 5f405ac5 f
 0001:00004adc       ?GetInterfaceMap@COleObjectFactory@@MBEPBUAFX_INTERFACEMAP@@XZ 5f405adc f
 0001:00004ae2       ?Release@XClassFactory@COleObjectFactory@@UAGKXZ 5f405ae2 f
 0001:00004af1       __imp_load__CoRevokeClassObject@4 5f405af1 f
 0001:00004afd       ?OnNTCtlColor@CWnd@@IAEJIJ@Z 5f405afd f
 0001:00004b43       ?GetDlgItem@CWnd@@QBEPAV1@H@Z 5f405b43 f
 0001:00004b64       ??1COleLinksDialog@@UAE@XZ 5f405b64 f
 0001:00004b6a       ??1CDialog@@UAE@XZ         5f405b6a f
 0001:00004ba7       ?AfxDlgProc@@YGHPAUHWND__@@IIJ@Z 5f405ba7 f
 0001:00004be0       ?GrayCtlColor@CWnd@@SGHPAUHDC__@@PAUHWND__@@IPAUHBRUSH__@@K@Z 5f405be0 f
 0001:00004c06       ?ClientToScreen@CWnd@@QBEXPAUtagRECT@@@Z 5f405c06 f
 0001:00004c3e       ?OnCtlColor@CWnd@@IAEPAUHBRUSH__@@PAVCDC@@PAV1@I@Z 5f405c3e f
 0001:00004c64       ??0CDialog@@QAE@IPAVCWnd@@@Z 5f405c64 f
 0001:00004c9d       ?SetContainerInfo@CDocTemplate@@QAEXI@Z 5f405c9d f
 0001:00004cb5       ?GetMessageMap@CDialog@@MBEPBUAFX_MSGMAP@@XZ 5f405cb5 f
 0001:00004cbb       ?GetWindowPlacement@CWnd@@QBEHPAUtagWINDOWPLACEMENT@@@Z 5f405cbb f
 0001:00004cd2       ?CalcWindowRect@CView@@UAEXPAUtagRECT@@I@Z 5f405cd2 f
 0001:00004cf3       ?GetItemRect@CToolBar@@UBEXHPAUtagRECT@@@Z 5f405cf3 f
 0001:00004d29       ?Attach@CDC@@QAEHPAUHDC__@@@Z 5f405d29 f
 0001:00004d5f       ?SetAttribDC@CDC@@UAEXPAUHDC__@@@Z 5f405d5f f
 0001:00004d69       ??4CString@@QAEABV0@ABV0@@Z 5f405d69 f
 0001:00004db4       ?AfxExtractSubString@@YGHAAVCString@@PBDHD@Z 5f405db4 f
 0001:00004e2b       ?RecalcLayout@CFrameWnd@@UAEXH@Z 5f405e2b f
 0001:00004ea9       ?RepositionBars@CWnd@@QAEXIIIIPAUtagRECT@@PBU2@H@Z 5f405ea9 f
 0001:00004fb6       ?CalcWindowRect@CWnd@@UAEXPAUtagRECT@@I@Z 5f405fb6 f
 0001:00004fe1       ?AfxRepositionWindow@@YGXPAUAFX_SIZEPARENTPARAMS@@PAUHWND__@@PBUtagRECT@@@Z 5f405fe1 f
 0001:00005069       ?OnNcCalcSize@CToolBar@@IAEXHPAUtagNCCALCSIZE_PARAMS@@@Z 5f406069 f
 0001:000050c8       ?CalcInsideRect@CControlBar@@QBEXAAVCRect@@H@Z 5f4060c8 f
 0001:00005170       ?ModifyStyle@CWnd@@QAEHKKI@Z 5f406170 f
 0001:00005193       ?ModifyStyle@CWnd@@SGHPAUHWND__@@KKI@Z 5f406193 f
 0001:000051ad       ?_AfxModifyStyle@@YGHPAUHWND__@@HKKI@Z 5f4061ad f
 0001:000051fe       ?OnNcCalcSize@CStatusBar@@IAEXHPAUtagNCCALCSIZE_PARAMS@@@Z 5f4061fe f
 0001:00005240       ?OnSize@CStatusBar@@IAEXIHH@Z 5f406240 f
 0001:00005257       ?CalcInsideRect@CStatusBar@@QBEXAAVCRect@@H@Z 5f406257 f
 0001:000052c7       ??0CClientDC@@QAE@PAVCWnd@@@Z 5f4062c7 f
 0001:0000531e       ??1CClientDC@@UAE@XZ       5f40631e f
 0001:00005360       ?GetControlBar@CFrameWnd@@QAEPAVCControlBar@@I@Z 5f406360 f
 0001:00005394       ?FromHandle@CDC@@SGPAV1@PAUHDC__@@@Z 5f406394 f
 0001:000053a9       ?CreateObject@CTempDC@@SGPAVCObject@@XZ 5f4063a9 f
 0001:000053cf       ?OnNcCalcSize@CDockBar@@IAEXHPAUtagNCCALCSIZE_PARAMS@@@Z 5f4063cf f
 0001:00005415       ?OnWindowPosChanging@CToolBar@@IAEXPAUtagWINDOWPOS@@@Z 5f406415 f
 0001:00005452       ?OnWindowPosChanging@CControlBar@@QAEXPAUtagWINDOWPOS@@@Z 5f406452 f
 0001:000054bf       ?OnInitialUpdate@CControlBar@@QAEXXZ 5f4064bf f
 0001:000054c9       ?_SetButton@CToolBar@@IAEXHPAU_TBBUTTON@@@Z 5f4064c9 f
 0001:000055bd       ?DragAcceptFiles@CWnd@@QAEXH@Z 5f4065bd f
 0001:000055cd       ?GetDocString@CDocTemplate@@UBEHAAVCString@@W4DocStringIndex@1@@Z 5f4065cd f
 0001:000055e3       ?OnSize@CFrameWnd@@IAEXIHH@Z 5f4065e3 f
 0001:00005602       ?CalcDynamicLayout@CControlBar@@UAE?AVCSize@@HK@Z 5f406602 f
 0001:00005625       ?CalcFixedLayout@CStatusBar@@UAE?AVCSize@@HH@Z 5f406625 f
 0001:000056ea       ?CalcFixedLayout@CControlBar@@UAE?AVCSize@@HH@Z 5f4066ea f
 0001:0000571e       ?CalcDynamicLayout@CToolBar@@UAE?AVCSize@@HK@Z 5f40671e f
 0001:00005763       ?CalcLayout@CToolBar@@IAE?AVCSize@@KH@Z 5f406763 f
 0001:00005a75       ?SizeToolBar@CToolBar@@IAEXPAU_TBBUTTON@@HHH@Z 5f406a75 f
 0001:00005b21       ?WrapToolBar@CToolBar@@IAEHPAU_TBBUTTON@@HH@Z 5f406b21 f
 0001:00005bf4       ?CalcSize@CToolBar@@IAE?AVCSize@@PAU_TBBUTTON@@H@Z 5f406bf4 f
 0001:00005d0d       ?OnWindowPosChanging@CStatusBar@@IAEXPAUtagWINDOWPOS@@@Z 5f406d0d f
 0001:00005d2d       ?Layout@CToolBar@@IAEXXZ   5f406d2d f
 0001:00005d6c       ?SelectObject@CDC@@QAEPAVCBrush@@PAV2@@Z 5f406d6c f
 0001:00005dab       ?ExtTextOutA@CDC@@UAEHHHIPBUtagRECT@@PBDIPAH@Z 5f406dab f
 0001:00005dd0       ?AddRef@XPersistStorage@COleServerDoc@@UAGKXZ 5f406dd0 f
 0001:00005de2       ?OnSizeParent@CControlBar@@QAEJIJ@Z 5f406de2 f
 0001:00005f30       ?RecalcDelayShow@CControlBar@@UAEKPAUAFX_SIZEPARENTPARAMS@@@Z 5f406f30 f
 0001:00005f60       ?OnSizeParent@CDockBar@@IAEJIJ@Z 5f406f60 f
 0001:00005fc6       ?CalcFixedLayout@CDockBar@@UAE?AVCSize@@HH@Z 5f406fc6 f
 0001:00006264       ?CalcFixedLayout@CToolBar@@UAE?AVCSize@@HH@Z 5f407264 f
 0001:0000628d       __imp_load__CoLockObjectExternal@12 5f40728d f
 0001:00006299       ??_9@$BOI@AE               5f407299 f
 0001:000062a1       ?OnInitialUpdate@CView@@UAEXXZ 5f4072a1 f
 0001:000062af       ?OnUpdate@CView@@MAEXPAV1@JPAVCObject@@@Z 5f4072af f
 0001:000062bf       ??0CWindowDC@@QAE@PAVCWnd@@@Z 5f4072bf f
 0001:00006314       ??1CWindowDC@@UAE@XZ       5f407314 f
 0001:00006356       ?ActivateFrame@CFrameWnd@@UAEXH@Z 5f407356 f
 0001:0000639b       ?BringToTop@CFrameWnd@@IAEXH@Z 5f40739b f
 0001:000063ca       ?IsTopParentActive@CWnd@@QBEHXZ 5f4073ca f
 0001:000063fe       ?OnSetFocus@CFrameWnd@@IAEXPAVCWnd@@@Z 5f4073fe f
 0001:00006419       ?OnEraseBkgnd@CFrameWnd@@IAEHPAVCDC@@@Z 5f407419 f
 0001:0000642f       ??0CPaintDC@@QAE@PAVCWnd@@@Z 5f40742f f
 0001:00006484       ?FillSolidRect@CDC@@QAEXHHHHK@Z 5f407484 f
 0001:000064d0       ??1CPaintDC@@UAE@XZ        5f4074d0 f
 0001:00006517       ?SetViewportOrg@CDC@@UAE?AVCPoint@@HH@Z 5f407517 f
 0001:0000655a       ?SetTextColor@CDC@@UAEKK@Z 5f40755a f
 0001:00006586       ?EraseNonClient@CControlBar@@QAEXXZ 5f407586 f
 0001:00006586       ?OnNcPaint@CToolBar@@IAEXXZ 5f407586 f
 0001:00006653       ?ExcludeClipRect@CDC@@QAEHPBUtagRECT@@@Z 5f407653 f
 0001:0000668b       ?DrawBorders@CControlBar@@QAEXPAVCDC@@AAVCRect@@@Z 5f40768b f
 0001:00006838       ?IntersectClipRect@CDC@@QAEHPBUtagRECT@@@Z 5f407838 f
 0001:00006870       ?OnEraseBkgnd@CWnd@@IAEHPAVCDC@@@Z 5f407870 f
 0001:00006878       ?DrawGripper@CControlBar@@QAEXPAVCDC@@ABVCRect@@@Z 5f407878 f
 0001:00006896       ?OnPaint@CDockBar@@IAEXXZ  5f407896 f
 0001:000068f6       ?GetDockedVisibleCount@CDockBar@@UBEHXZ 5f4078f6 f
 0001:00006933       ?SetText@CToolCmdUI@@UAEXPBD@Z 5f407933 f
 0001:00006936       ?OnPaint@CToolBar@@IAEXXZ  5f407936 f
 0001:00006950       ?OnEraseBkgnd@CToolBar@@IAEHPAVCDC@@@Z 5f407950 f
 0001:00006958       ?OnShowViews@COleLinkingDoc@@MAEXH@Z 5f407958 f
 0001:0000696d       ??_GCTempDC@@UAEPAXI@Z     5f40796d f
 0001:0000696d       ??_ECTempDC@@UAEPAXI@Z     5f40796d f
 0001:0000698d       ?OnInitialUpdate@CRichEditView@@MAEXXZ 5f40798d f
 0001:000069a6       ?OnCtlColor@CControlBar@@QAEPAUHBRUSH__@@PAVCDC@@PAVCWnd@@I@Z 5f4079a6 f
 0001:000069fa       ?OnPaint@CControlBar@@QAEXXZ 5f4079fa f
 0001:00006a4c       ?DoPaint@CControlBar@@UAEXPAVCDC@@@Z 5f407a4c f
 0001:00006a83       ?SaveDC@CDC@@UAEHXZ        5f407a83 f
 0001:00006aae       ?MoveTo@CDC@@QAE?AVCPoint@@HH@Z 5f407aae f
 0001:00006af1       ?LineTo@CDC@@QAEHHH@Z      5f407af1 f
 0001:00006b19       ?RestoreDC@CDC@@UAEHH@Z    5f407b19 f
 0001:00006b58       ?SetBkMode@CDC@@QAEHH@Z    5f407b58 f
 0001:00006b83       ?OnUpdateFrameTitle@CFrameWnd@@UAEXH@Z 5f407b83 f
 0001:00006bc6       ?AfxBeginThread@@YGPAVCWinThread@@P6AIPAX@Z0HIKPAU_SECURITY_ATTRIBUTES@@@Z 5f407bc6 f
 0001:00006c40       ??0CWinThread@@QAE@P6AIPAX@Z0@Z 5f407c40 f
 0001:00006c84       ?CreateThread@CWinThread@@QAEHKIPAU_SECURITY_ATTRIBUTES@@@Z 5f407c84 f
 0001:00006d4f       ?_AfxThreadEntry@@YGIPAX@Z 5f407d4f f
 0001:00006e1f       ??1CButton@@UAE@XZ         5f407e1f f
 0001:00006e57       ?AfxW2AHelper@@YGPADPADPBGH@Z 5f407e57 f
 0001:00006e81       ?AfxEndThread@@YGXIH@Z     5f407e81 f
 0001:00006ec7       ?Delete@CWinThread@@UAEXXZ 5f407ec7 f
 0001:00006ed9       ??_ECWinThread@@UAEPAXI@Z  5f407ed9 f
 0001:00006ed9       ??_GCWinThread@@UAEPAXI@Z  5f407ed9 f
 0001:00006ef5       ?AfxTermThread@@YGXPAUHINSTANCE__@@@Z 5f407ef5 f
 0001:00006f5f       ?AfxTlsAddRef@@YGXXZ       5f407f5f f
 0001:00006f66       ?AfxCriticalInit@@YGHXZ    5f407f66 f
 0001:00006fa0       ??0CThreadSlotData@@QAE@XZ 5f407fa0 f
 0001:00006fe1       ?AllocSlot@CThreadSlotData@@QAEHXZ 5f407fe1 f
 0001:000070a6       __initterm                 5f4080a6 f
 0001:000070cc       ??0CFixedAlloc@@QAE@II@Z   5f4080cc f
 0001:000070f4       _atexit                    5f4080f4 f
 0001:00007106       __onexit                   5f408106 f
 0001:0000712a       ___dllonexit               5f40812a f
 0001:00007273       ??0CSessionMapPtrToPtr@@QAE@XZ 5f408273 f
 0001:000072c2       ??0CSyncObject@@QAE@PBD@Z  5f4082c2 f
 0001:000073c1       ??0AFX_MODULE_STATE@@QAE@HP6GJPAUHWND__@@IIJ@ZKH@Z 5f4083c1 f
 0001:00007477       ??0CMemoryException@@QAE@HI@Z 5f408477 f
 0001:000074a1       ??0CException@@QAE@H@Z     5f4084a1 f
 0001:000074d6       ??0CNotSupportedException@@QAE@HI@Z 5f4084d6 f
 0001:0000750b       ?AfxClassInit@@YGXPAUCRuntimeClass@@@Z 5f40850b f
 0001:0000759f       ?_AfxInitDBCS@@YGHXZ       5f40859f f
 0001:000075f1       ??0CWnd@@AAE@PAUHWND__@@@Z 5f4085f1 f
 0001:0000772a       ??0CResourceException@@QAE@HI@Z 5f40872a f
 0001:00007777       ??0CUserException@@QAE@HI@Z 5f408777 f
 0001:000077c8       ??0AUX_DATA@@QAE@XZ        5f4087c8 f
 0001:00007863       ?UpdateSysMetrics@AUX_DATA@@QAEXXZ 5f408863 f
 0001:000078b8       ?AfxEnableWin40Compatibility@@YGXXZ 5f4088b8 f
 0001:000078e8       ?UpdateSysColors@AUX_DATA@@QAEXXZ 5f4088e8 f
 0001:00007942       ??0OLE_DATA@@QAE@XZ        5f408942 f
 0001:00007a40       ??0CColorPropPageFactory@CColorPropPage@@QAE@ABU_GUID@@PAUCRuntimeClass@@HPBD@Z 5f408a40 f
 0001:00007a64       ??0COleObjectFactory@@QAE@ABU_GUID@@PAUCRuntimeClass@@HPBD@Z 5f408a64 f
 0001:00007b16       ??0CFontPropPageFactory@CFontPropPage@@QAE@ABU_GUID@@PAUCRuntimeClass@@HPBD@Z 5f408b16 f
 0001:00007b67       ??0CPicturePropPageFactory@CPicturePropPage@@QAE@ABU_GUID@@PAUCRuntimeClass@@HPBD@Z 5f408b67 f
 0001:00007ba9       ??0CWinApp@@QAE@PBD@Z      5f408ba9 f
 0001:00007c88       ??0CWinThread@@QAE@XZ      5f408c88 f
 0001:00007cc5       ?AfxInitExtensionModule@@YGHAAUAFX_EXTENSION_MODULE@@PAUHINSTANCE__@@@Z 5f408cc5 f
 0001:00007d07       ?AfxWinInit@@YGHPAUHINSTANCE__@@0PADH@Z 5f408d07 f
 0001:00007d6a       ?SetCurrentHandles@CWinApp@@QAEXXZ 5f408d6a f
 0001:00007e81       ?RegisterAll@COleObjectFactory@@SGHXZ 5f408e81 f
 0001:00007f11       ?IsRegistered@COleObjectFactory@@UBEHXZ 5f408f11 f
 0001:00007f41       ?Register@COleObjectFactory@@UAEHXZ 5f408f41 f
 0001:00007f41       ?Register@COleTemplateServer@@UAEHXZ 5f408f41 f
 0001:00007f57       ??0CDynLinkLibrary@@QAE@AAUAFX_EXTENSION_MODULE@@H@Z 5f408f57 f
 0001:00007fe1       ?CreateObject@?$CProcessLocal@V_AFX_BASE_MODULE_STATE@@@@SGPAVCNoTrackObject@@XZ 5f408fe1 f
 0001:00008013       ??0AFX_MODULE_STATE@@QAE@HP6GJPAUHWND__@@IIJ@ZK@Z 5f409013 f
 0001:00008074       ?AfxWinMain@@YGHPAUHINSTANCE__@@0PADH@Z 5f409074 f
 0001:000080e9       ?CreateObject@?$CProcessLocal@V_AFX_CTL3D_STATE@@@@SGPAVCNoTrackObject@@XZ 5f4090e9 f
 0001:000080ff       ?InitApplication@CWinApp@@UAEHXZ 5f4090ff f
 0001:00008141       ?Enable3dControls@CWinApp@@IAEHXZ 5f409141 f
 0001:00008157       ?AfxOleInit@@YGHXZ         5f409157 f
 0001:000081e9       ??0COleMessageFilter@@QAE@XZ 5f4091e9 f
 0001:0000822b       ?Register@COleMessageFilter@@QAEHXZ 5f40922b f
 0001:0000824a       __imp_load__CoRegisterMessageFilter@8 5f40924a f
 0001:00008256       ?AddRef@XMessageFilter@COleMessageFilter@@UAGKXZ 5f409256 f
 0001:00008265       ?AfxFindResourceHandle@@YGPAUHINSTANCE__@@PBD0@Z 5f409265 f
 0001:00008323       ?AfxHookWindowCreate@@YGXPAVCWnd@@@Z 5f409323 f
 0001:00008370       ?AfxEndDeferRegisterClass@@YGHJ@Z 5f409370 f
 0001:000085e9       ?_AfxInitCommonControls@@YGJPAUtagINITCOMMONCONTROLSEX@@J@Z 5f4095e9 f
 0001:00008632       __imp_load__InitCommonControlsEx@4 5f409632 f
 0001:00008639       __tailMerge_COMCTL32       5f409639 f
 0001:00008647       ?AfxGetAfxWndProc@@YGP6GJPAUHWND__@@IIJ@ZXZ 5f409647 f
 0001:00008653       ?AfxOleSetUserCtrl@@YGXH@Z 5f409653 f
 0001:00008662       ?CreateObject@CTempGdiObject@@SGPAVCObject@@XZ 5f409662 f
 0001:0000867f       ??0COleTemplateServer@@QAE@XZ 5f40967f f
 0001:000086a0       ??0CCommandLineInfo@@QAE@XZ 5f4096a0 f
 0001:0000870f       ?LoadStdProfileSettings@CWinApp@@IAEXI@Z 5f40970f f
 0001:0000878b       ??0CRecentFileList@@QAE@IPBD0HH@Z 5f40978b f
 0001:00008847       ??0CDocTemplate@@IAE@IPAUCRuntimeClass@@00@Z 5f409847 f
 0001:0000894e       ??0CDocManager@@QAE@XZ     5f40994e f
 0001:00008988       ??_L@YGXPAXIHP6EX0@Z1@Z    5f409988 f
 0001:000089fd       ?AddDocTemplate@CDocManager@@UAEXPAVCDocTemplate@@@Z 5f4099fd f
 0001:00008a62       ?LoadTemplate@CDocTemplate@@UAEXXZ 5f409a62 f
 0001:00008b27       ?ReadList@CRecentFileList@@UAEXXZ 5f409b27 f
 0001:00008bc5       ?GetProfileStringA@CWinApp@@QAE?AVCString@@PBD00@Z 5f409bc5 f
 0001:00008cca       ?GetProfileIntA@CWinApp@@QAEIPBD0H@Z 5f409cca f
 0001:00008d39       ?ParseCommandLine@CWinApp@@QAEXAAVCCommandLineInfo@@@Z 5f409d39 f
 0001:00008d90       ??0CFrameWnd@@QAE@XZ       5f409d90 f
 0001:00008e56       ?AddFrameWnd@CFrameWnd@@IAEXXZ 5f409e56 f
 0001:00008e77       ??0CStatusBar@@QAE@XZ      5f409e77 f
 0001:00008ea9       ??0CControlBar@@IAE@XZ     5f409ea9 f
 0001:00008efb       ??0CToolBar@@QAE@XZ        5f409efb f
 0001:00008f5f       ?LoadFrame@CFrameWnd@@UAEHIKPAVCWnd@@PAUCCreateContext@@@Z 5f409f5f f
 0001:0000902b       ?_AfxRegisterWithIcon@@YGHPAUtagWNDCLASSA@@PBDI@Z 5f40a02b f
 0001:0000906c       ?AfxRegisterClass@@YGHPAUtagWNDCLASSA@@@Z 5f40a06c f
 0001:000090ca       ?GetIconWndClass@CFrameWnd@@IAEPBDKI@Z 5f40a0ca f
 0001:0000914d       ?AfxRegisterWndClass@@YGPBDIPAUHICON__@@PAUHBRUSH__@@0@Z 5f40a14d f
 0001:000091e5       ?Create@CFrameWnd@@QAEHPBD0KABUtagRECT@@PAVCWnd@@0KPAUCCreateContext@@@Z 5f40a1e5 f
 0001:0000926d       ?CreateEx@CWnd@@QAEHKPBD0KHHHHPAUHWND__@@PAUHMENU__@@PAX@Z 5f40a26d f
 0001:00009323       ?OnCreate@CFrameWnd@@IAEHPAUtagCREATESTRUCTA@@@Z 5f40a323 f
 0001:00009332       ?OnCreateHelper@CFrameWnd@@IAEHPAUtagCREATESTRUCTA@@PAUCCreateContext@@@Z 5f40a332 f
 0001:00009384       ?Create@CToolBar@@QAEHPAVCWnd@@KI@Z 5f40a384 f
 0001:000093c6       ?CreateEx@CToolBar@@QAEHPAVCWnd@@KKVCRect@@I@Z 5f40a3c6 f
 0001:0000946a       ?SetBorders@CControlBar@@QAEXHHHH@Z 5f40a46a f
 0001:00009489       ?_AfxGetComCtlVersion@@YGKXZ 5f40a489 f
 0001:000094f7       ?_AfxGetDropDownWidth@@YGHXZ 5f40a4f7 f
 0001:00009578       ?Create@CWnd@@UAEHPBD0KABUtagRECT@@PAV1@IPAUCCreateContext@@@Z 5f40a578 f
 0001:000095c4       ?PreCreateWindow@CControlBar@@UAEHAAUtagCREATESTRUCTA@@@Z 5f40a5c4 f
 0001:00009637       ?PreCreateWindow@CWnd@@UAEHAAUtagCREATESTRUCTA@@@Z 5f40a637 f
 0001:0000964d       ?OnNcCreate@CToolBar@@IAEHPAUtagCREATESTRUCTA@@@Z 5f40a64d f
 0001:0000967e       ?OnCreate@CControlBar@@QAEHPAUtagCREATESTRUCTA@@@Z 5f40a67e f
 0001:000096d3       ?SetSizes@CToolBar@@QAEXUtagSIZE@@0@Z 5f40a6d3 f
 0001:00009738       ?OnSetBitmapSize@CToolBar@@IAEJIJ@Z 5f40a738 f
 0001:0000974b       ?OnSetSizeHelper@CToolBar@@IAEJAAVCSize@@J@Z 5f40a74b f
 0001:000097b7       ?OnSetButtonSize@CToolBar@@IAEJIJ@Z 5f40a7b7 f
 0001:000097ca       ?LoadBitmapA@CToolBar@@QAEHPBD@Z 5f40a7ca f
 0001:0000981e       ?AfxLoadSysColorBitmap@@YGPAUHBITMAP__@@PAUHINSTANCE__@@PAUHRSRC__@@H@Z 5f40a81e f
 0001:0000998a       ?AddReplaceBitmap@CToolBar@@QAEHPAUHBITMAP__@@@Z 5f40a98a f
 0001:00009a01       ?SetButtons@CToolBar@@QAEHPBIH@Z 5f40aa01 f
 0001:00009ae6       ?Create@CStatusBar@@QAEHPAVCWnd@@KI@Z 5f40aae6 f
 0001:00009afc       ?CreateEx@CStatusBar@@QAEHPAVCWnd@@KKI@Z 5f40aafc f
 0001:00009b6c       ?PreCreateWindow@CStatusBar@@UAEHAAUtagCREATESTRUCTA@@@Z 5f40ab6c f
 0001:00009b9b       ?OnChildNotify@CStatusBar@@MAEHIIJPAJ@Z 5f40ab9b f
 0001:00009bbd       ?Attach@CGdiObject@@QAEHPAX@Z 5f40abbd f
 0001:00009be9       ?SetIndicators@CStatusBar@@QAEHPBIH@Z 5f40abe9 f
 0001:00009d26       ?EnableDocking@CFrameWnd@@QAEXK@Z 5f40ad26 f
 0001:00009dba       ??0CDockBar@@QAE@H@Z       5f40adba f
 0001:00009e38       ?Create@CDockBar@@QAEHPAVCWnd@@KI@Z 5f40ae38 f
 0001:00009e7f       ?EnableDocking@CControlBar@@QAEXK@Z 5f40ae7f f
 0001:00009ede       ??0CDockContext@@QAE@PAVCControlBar@@@Z 5f40aede f
 0001:00009f3f       ?DockControlBar@CFrameWnd@@QAEXPAVCControlBar@@IPBUtagRECT@@@Z 5f40af3f f
 0001:00009f62       ?DockControlBar@CFrameWnd@@QAEXPAVCControlBar@@PAVCDockBar@@PBUtagRECT@@@Z 5f40af62 f
 0001:00009fae       ?DockControlBar@CDockBar@@QAEXPAVCControlBar@@PBUtagRECT@@@Z 5f40afae f
 0001:0000a10b       ?GetWindowTextA@CWnd@@QBEHPADH@Z 5f40b10b f
 0001:0000a12a       ?SetBarStyle@CControlBar@@QAEXK@Z 5f40b12a f
 0001:0000a158       ?EnableToolTips@CWnd@@QAEHH@Z 5f40b158 f
 0001:0000a166       ?_EnableToolTips@CWnd@@QAEHHI@Z 5f40b166 f
 0001:0000a1b4       ?OnBarStyleChange@CToolBar@@UAEXKK@Z 5f40b1b4 f
 0001:0000a1e7       ?RemovePlaceHolder@CDockBar@@QAEXPAVCControlBar@@@Z 5f40b1e7 f
 0001:0000a220       ?FindBar@CDockBar@@QAEHPAVCControlBar@@H@Z 5f40b220 f
 0001:0000a24e       ?GetDockingFrame@CControlBar@@QBEPAVCFrameWnd@@XZ 5f40b24e f
 0001:0000a260       ?LoadAccelTable@CFrameWnd@@QAEHPBD@Z 5f40b260 f
 0001:0000a289       ?ConnectTemplate@COleTemplateServer@@QAEXABU_GUID@@PAVCDocTemplate@@H@Z 5f40b289 f
 0001:0000a2ac       ?CreateNewDocument@CDocTemplate@@UAEPAVCDocument@@XZ 5f40b2ac f
 0001:0000a2d7       ??0COleLinkingDoc@@QAE@XZ  5f40b2d7 f
 0001:0000a34c       ??0COleDocument@@QAE@XZ    5f40b34c f
 0001:0000a3b1       ??0CDocument@@QAE@XZ       5f40b3b1 f
 0001:0000a415       ??0CObList@@QAE@H@Z        5f40b415 f
 0001:0000a438       ?AfxOleLockApp@@YGXXZ      5f40b438 f
 0001:0000a448       ?AddDocument@CDocTemplate@@UAEXPAVCDocument@@@Z 5f40b448 f
 0001:0000a452       ?CreateNewFrame@CDocTemplate@@UAEPAVCFrameWnd@@PAVCDocument@@PAV2@@Z 5f40b452 f
 0001:0000a4bf       __imp_load__DragAcceptFiles@8 5f40b4bf f
 0001:0000a4c6       __tailMerge_SHELL32        5f40b4c6 f
 0001:0000a4d4       ?PreCreateWindow@CFrameWnd@@MAEHAAUtagCREATESTRUCTA@@@Z 5f40b4d4 f
 0001:0000a518       ??YCString@@QAEABV0@ABV0@@Z 5f40b518 f
 0001:0000a530       ?ConcatInPlace@CString@@IAEXHPBD@Z 5f40b530 f
 0001:0000a58f       ??0CView@@IAE@XZ           5f40b58f f
 0001:0000a5a5       ??YCString@@QAEABV0@PBD@Z  5f40b5a5 f
 0001:0000a5cc       ?PreCreateWindow@CView@@MAEHAAUtagCREATESTRUCTA@@@Z 5f40b5cc f
 0001:0000a60d       ?OnCreate@CView@@IAEHPAUtagCREATESTRUCTA@@@Z 5f40b60d f
 0001:0000a63d       ?AddView@CDocument@@QAEXPAVCView@@@Z 5f40b63d f
 0001:0000a65d       ?ModifyStyleEx@CWnd@@QAEHKKI@Z 5f40b65d f
 0001:0000a680       ?ModifyStyleEx@CWnd@@SGHPAUHWND__@@KKI@Z 5f40b680 f
 0001:0000a69a       ?SetTitle@CDocument@@UAEXPBD@Z 5f40b69a f
 0001:0000a6b7       ?OnNewDocument@COleLinkingDoc@@UAEHXZ 5f40b6b7 f
 0001:0000a6e8       ?RegisterIfServerAttached@COleLinkingDoc@@MAEHPBDH@Z 5f40b6e8 f
 0001:0000a714       ?Register@COleLinkingDoc@@QAEHPAVCOleObjectFactory@@PBD@Z 5f40b714 f
 0001:0000a832       ?_GetBaseClass@CCtrlView@@KGPAUCRuntimeClass@@XZ 5f40b832 f
 0001:0000a838       ?OnNewDocument@COleDocument@@UAEHXZ 5f40b838 f
 0001:0000a889       ?OnNewDocument@CDocument@@UAEHXZ 5f40b889 f
 0001:0000a8ae       ?InitialUpdateFrame@CDocTemplate@@UAEXPAVCFrameWnd@@PAVCDocument@@H@Z 5f40b8ae f
 0001:0000a8c2       ?InitialUpdateFrame@CFrameWnd@@QAEXPAVCDocument@@H@Z 5f40b8c2 f
 0001:0000a988       ?SetServerInfo@CDocTemplate@@QAEXIIPAUCRuntimeClass@@0@Z 5f40b988 f
 0001:0000a9b5       ??0COleServerDoc@@QAE@XZ   5f40b9b5 f
 0001:0000aa5a       ?OnCreateClient@CFrameWnd@@MAEHPAUtagCREATESTRUCTA@@PAUCCreateContext@@@Z 5f40ba5a f
 0001:0000aa7c       ?CreateView@CFrameWnd@@QAEPAVCWnd@@PAUCCreateContext@@I@Z 5f40ba7c f
 0001:0000aaf8       ?_GetBaseMessageMap@CMiniFrameWnd@@KGPBUAFX_MSGMAP@@XZ 5f40baf8 f
 0001:0000aafe       ?DefWindowProcA@CMDIFrameWnd@@MAEJIIJ@Z 5f40bafe f
 0001:0000ab1c       ?OnCmdMsg@CMDIFrameWnd@@UAEHIHPAXPAUAFX_CMDHANDLERINFO@@@Z 5f40bb1c f
 0001:0000abad       ?MDIGetActive@CMDIFrameWnd@@QBEPAVCMDIChildWnd@@PAH@Z 5f40bbad f
 0001:0000abf0       ?OnUpdateContextHelp@CFrameWnd@@IAEXPAVCCmdUI@@@Z 5f40bbf0 f
 0001:0000ac1f       ?DefWindowProcA@CMDIChildWnd@@MAEJIIJ@Z 5f40bc1f f
 0001:0000ac37       ?PreTranslateMessage@CMDIFrameWnd@@UAEHPAUtagMSG@@@Z 5f40bc37 f
 0001:0000acf0       ?PreTranslateMessage@CMDIChildWnd@@UAEHPAUtagMSG@@@Z 5f40bcf0 f
 0001:0000ad63       ?OnIdleUpdateCmdUI@CMDIFrameWnd@@IAEXXZ 5f40bd63 f
 0001:0000ad84       ??0COleDataObject@@QAE@XZ  5f40bd84 f
 0001:0000ad98       ?AttachClipboard@COleDataObject@@QAEHXZ 5f40bd98 f
 0001:0000ad9f       ?IsDataAvailable@COleDataObject@@QAEHGPAUtagFORMATETC@@@Z 5f40bd9f f
 0001:0000adc2       ?Release@COleDataObject@@QAEXXZ 5f40bdc2 f
 0001:0000adde       ?GetFirstDocPosition@CMultiDocTemplate@@UBEPAU__POSITION@@XZ 5f40bdde f
 0001:0000ade2       ?GetNextDoc@CMultiDocTemplate@@UBEPAVCDocument@@AAPAU__POSITION@@@Z 5f40bde2 f
 0001:0000adf2       ?GetMessageMap@CMDIChildWnd@@MBEPBUAFX_MSGMAP@@XZ 5f40bdf2 f
 0001:0000adf8       ?GetMDIFrame@CMDIChildWnd@@QAEPAVCMDIFrameWnd@@XZ 5f40bdf8 f
 0001:0000ae0f       ?OnUpdateFrameTitle@CMDIFrameWnd@@UAEXH@Z 5f40be0f f
 0001:0000aec9       ?GetInterfaceMap@COleDropTarget@@MBEPBUAFX_INTERFACEMAP@@XZ 5f40bec9 f
 0001:0000aecf       ?QueryInterface@XDropTarget@COleDropTarget@@UAGJABU_GUID@@PAPAX@Z 5f40becf f
 0001:0000aee6       ?_GetBaseInterfaceMap@COleServerItem@@KGPBUAFX_INTERFACEMAP@@XZ 5f40bee6 f
 0001:0000aeec       ?Release@XDropTarget@COleDropTarget@@UAGKXZ 5f40beec f
 0001:0000aefb       ?GetInPlaceActiveItem@COleDocument@@UAEPAVCOleClientItem@@PAVCWnd@@@Z 5f40befb f
 0001:0000af4c       ?OnMDIActivate@CMDIChildWnd@@IAEXHPAVCWnd@@0@Z 5f40bf4c f
 0001:0000b002       ?UpdateClientEdge@CMDIChildWnd@@IAEHPAUtagRECT@@@Z 5f40c002 f
 0001:0000b080       ?OnUpdateFrameTitle@CMDIChildWnd@@MAEXH@Z 5f40c080 f
 0001:0000b0f1       ?OnUpdateFrameMenu@CMDIChildWnd@@UAEXHPAVCWnd@@PAUHMENU__@@@Z 5f40c0f1 f
 0001:0000b17d       ?OnNcActivate@CMDIChildWnd@@IAEHH@Z 5f40c17d f
 0001:0000b185       ?GetActiveFrame@CMDIFrameWnd@@UAEPAVCFrameWnd@@XZ 5f40c185 f
 0001:0000b199       ?SetText@CCmdUI@@UAEXPBD@Z 5f40c199 f
 0001:0000b1e3       ?OnCommand@CMDIFrameWnd@@MAEHIJ@Z 5f40c1e3 f
 0001:0000b220       ?SaveAllModified@CWinApp@@UAEHXZ 5f40c220 f
 0001:0000b233       ?SaveAllModified@CDocManager@@UAEHXZ 5f40c233 f
 0001:0000b258       ?SaveAllModified@CDocTemplate@@UAEHXZ 5f40c258 f
 0001:0000b294       ?UpdateModifiedFlag@COleDocument@@UAEXXZ 5f40c294 f
 0001:0000b2bc       ?PreCloseFrame@COleDocument@@UAEXPAVCFrameWnd@@@Z 5f40c2bc f
 0001:0000b313       ?DestroyWindow@CMDIChildWnd@@UAEHXZ 5f40c313 f
 0001:0000b37c       ?MDIDestroy@CMDIChildWnd@@QAEXXZ 5f40c37c f
 0001:0000b3a3       ?OnDestroy@CMDIChildWnd@@IAEXXZ 5f40c3a3 f
 0001:0000b3b6       ?Revoke@COleDropTarget@@UAEXXZ 5f40c3b6 f
 0001:0000b3f0       __imp_load__RevokeDragDrop@4 5f40c3f0 f
 0001:0000b3fc       ??1COleDropTarget@@UAE@XZ  5f40c3fc f
 0001:0000b439       ?RemoveDocument@CMultiDocTemplate@@UAEXPAVCDocument@@@Z 5f40c439 f
 0001:0000b461       ?OnDestroy@CMDIFrameWnd@@IAEXXZ 5f40c461 f
 0001:0000b487       ??1CMultiDocTemplate@@UAE@XZ 5f40c487 f
 0001:0000b4d0       ??_ECMDIChildWnd@@UAEPAXI@Z 5f40c4d0 f
 0001:0000b4d0       ??_GCMDIChildWnd@@UAEPAXI@Z 5f40c4d0 f
 0001:0000b4ec       ?Format@CString@@QAAXPBDZZ 5f40c4ec f
 0001:0000b4ff       ?FormatV@CString@@QAEXPBDPAD@Z 5f40c4ff f
 0001:0000b76a       ?RunEmbedded@CWinApp@@QAEHXZ 5f40c76a f
 0001:0000b789       ?_AfxParseOption@@YGHPADPBD@Z 5f40c789 f
 0001:0000b7ee       ?AfxOleRegisterServerClass@@YGHABU_GUID@@PBD11W4OLE_APPTYPE@@PAPBD3H11@Z 5f40c7ee f
 0001:0000b8a6       ??0CAfxOleSymbolTable@@QAE@H@Z 5f40c8a6 f
 0001:0000b8d3       ?_AfxOleMakeSymbolTable@@YGHAAVCAfxOleSymbolTable@@ABU_GUID@@PBD22H22@Z 5f40c8d3 f
 0001:0000ba60       __imp_load__StringFromCLSID@8 5f40ca60 f
 0001:0000ba6c       ?AfxTaskStringW2A@@YGPADPBG@Z 5f40ca6c f
 0001:0000ba88       ?AfxAllocTaskAnsiString@@YGPADPBG@Z 5f40ca88 f
 0001:0000bacb       __imp_load__CoTaskMemAlloc@4 5f40cacb f
 0001:0000bad7       ?SetAt@CAfxOleSymbolTable@@QAEXHPBD@Z 5f40cad7 f
 0001:0000bb0d       ?AfxGetModuleShortFileName@@YGXPAUHINSTANCE__@@AAVCString@@@Z 5f40cb0d f
 0001:0000bb5c       ?AfxOleRegisterHelper@@YGHPBQBD0HHPAUHKEY__@@@Z 5f40cb5c f
 0001:0000bc99       __imp_load__RegOpenKeyA@12 5f40cc99 f
 0001:0000bca5       ?AfxFormatStrings@@YGXAAVCString@@PBDPBQBDH@Z 5f40cca5 f
 0001:0000bd9f       __imp_load__RegQueryValueA@16 5f40cd9f f
 0001:0000bdab       __imp_load__RegSetValueA@20 5f40cdab f
 0001:0000bdb7       ??1CAfxOleSymbolTable@@QAE@XZ 5f40cdb7 f
 0001:0000bddf       ?UpdateRegistryAll@COleObjectFactory@@SGHH@Z 5f40cddf f
 0001:0000be47       ?UpdateRegistry@COleObjectFactory@@MAEHH@Z 5f40ce47 f
 0001:0000be5b       ?UpdateRegistry@COleObjectFactory@@QAEXPBD@Z 5f40ce5b f
 0001:0000be83       ??1CSplitterWnd@@UAE@XZ    5f40ce83 f
 0001:0000becb       ??_GCMultiDocTemplate@@UAEPAXI@Z 5f40cecb f
 0001:0000becb       ??_ECMultiDocTemplate@@UAEPAXI@Z 5f40cecb f
 0001:0000bee7       ?CreateObject@CMDIChildWnd@@SGPAVCObject@@XZ 5f40cee7 f
 0001:0000bf1c       ?GetRuntimeClass@CMDIChildWnd@@UBEPAUCRuntimeClass@@XZ 5f40cf1c f
 0001:0000bf22       ?_GetBaseClass@COleIPFrameWnd@@KGPAUCRuntimeClass@@XZ 5f40cf22 f
 0001:0000bf28       ?LPtoDP@CDC@@QBEXPAUtagSIZE@@@Z 5f40cf28 f
 0001:0000bf91       _abs                       5f40cf91 f
 0001:0000bf97       ?CalcWindowRect@CScrollView@@UAEXPAUtagRECT@@I@Z 5f40cf97 f
 0001:0000bfcf       ?GetDefaultMenu@COleServerDoc@@MAEPAUHMENU__@@XZ 5f40cfcf f
 0001:0000bff3       ?RectVisible@CDC@@UBEHPBUtagRECT@@@Z 5f40cff3 f
 0001:0000c003       ??0CMultiDocTemplate@@QAE@IPAUCRuntimeClass@@00@Z 5f40d003 f
 0001:0000c06c       ?LoadTemplate@CMultiDocTemplate@@UAEXXZ 5f40d06c f
 0001:0000c0b2       ?AddDocTemplate@CWinApp@@QAEXPAVCDocTemplate@@@Z 5f40d0b2 f
 0001:0000c10e       ??0CMDIFrameWnd@@QAE@XZ    5f40d10e f
 0001:0000c127       ?LoadFrame@CMDIFrameWnd@@UAEHIKPAVCWnd@@PAUCCreateContext@@@Z 5f40d127 f
 0001:0000c156       ?PreCreateWindow@CMDIFrameWnd@@UAEHAAUtagCREATESTRUCTA@@@Z 5f40d156 f
 0001:0000c176       ?OnCreateClient@CMDIFrameWnd@@UAEHPAUtagCREATESTRUCTA@@PAUCCreateContext@@@Z 5f40d176 f
 0001:0000c1c2       ?CreateClient@CMDIFrameWnd@@UAEHPAUtagCREATESTRUCTA@@PAVCMenu@@@Z 5f40d1c2 f
 0001:0000c25e       ?EnableShellOpen@CWinApp@@IAEXXZ 5f40d25e f
 0001:0000c288       ?RegisterShellFileTypes@CWinApp@@IAEXH@Z 5f40d288 f
 0001:0000c29a       ?RegisterShellFileTypes@CDocManager@@UAEXH@Z 5f40d29a f
 0001:0000c6a7       __imp_load__ExtractIconA@12 5f40d6a7 f
 0001:0000c6b3       ?_AfxSetRegKey@@YGHPBD00@Z 5f40d6b3 f
 0001:0000c73c       __imp_load__RegCreateKeyA@12 5f40d73c f
 0001:0000c748       ?UpdateRegistry@COleTemplateServer@@QAEXW4OLE_APPTYPE@@PAPBD1@Z 5f40d748 f
 0001:0000c8ba       ?GetFirstDocTemplatePosition@CWinApp@@QBEPAU__POSITION@@XZ 5f40d8ba f
 0001:0000c8cd       ?GetNextDocTemplate@CWinApp@@QBEPAVCDocTemplate@@AAPAU__POSITION@@@Z 5f40d8cd f
 0001:0000c8df       ?OnFileNew@CWinApp@@IAEXXZ 5f40d8df f
 0001:0000c8f2       ?OnFileNew@CDocManager@@UAEXXZ 5f40d8f2 f
 0001:0000c93b       ?OpenDocumentFile@CMultiDocTemplate@@UAEPAVCDocument@@PBDH@Z 5f40d93b f
 0001:0000c9ce       ?AddDocument@CMultiDocTemplate@@UAEXPAVCDocument@@@Z 5f40d9ce f
 0001:0000c9ea       ??0CMDIChildWnd@@QAE@XZ    5f40d9ea f
 0001:0000ca0a       ?LoadFrame@CMDIChildWnd@@UAEHIKPAVCWnd@@PAUCCreateContext@@@Z 5f40da0a f
 0001:0000cad9       ?PreCreateWindow@CMDIChildWnd@@UAEHAAUtagCREATESTRUCTA@@@Z 5f40dad9 f
 0001:0000cae5       ?Create@CMDIChildWnd@@UAEHPBD0KABUtagRECT@@PAVCMDIFrameWnd@@PAUCCreateContext@@@Z 5f40dae5 f
 0001:0000cbf5       ?OnNcCreate@CMDIChildWnd@@IAEHPAUtagCREATESTRUCTA@@@Z 5f40dbf5 f
 0001:0000cc24       ?OnCreate@CMDIChildWnd@@IAEHPAUtagCREATESTRUCTA@@@Z 5f40dc24 f
 0001:0000cc36       ?GetMessageMap@CSplitterWnd@@MBEPBUAFX_MSGMAP@@XZ 5f40dc36 f
 0001:0000cc3c       ?OnWindowPosChanging@CMDIChildWnd@@IAEXPAUtagWINDOWPOS@@@Z 5f40dc3c f
 0001:0000cc69       ?OnSize@CMDIChildWnd@@IAEXIHH@Z 5f40dc69 f
 0001:0000cc94       ??0CScrollView@@IAE@XZ     5f40dc94 f
 0001:0000ccbb       ??0COleDropTarget@@QAE@XZ  5f40dcbb f
 0001:0000cd5b       ?Register@COleDropTarget@@QAEHPAVCWnd@@@Z 5f40dd5b f
 0001:0000cdb7       ?AddRef@XDropTarget@COleDropTarget@@UAGKXZ 5f40ddb7 f
 0001:0000cdc6       __imp_load__RegisterDragDrop@8 5f40ddc6 f
 0001:0000cdd2       ?OnSize@CScrollView@@QAEXIHH@Z 5f40ddd2 f
 0001:0000cdef       ?UpdateBars@CScrollView@@IAEXXZ 5f40ddef f
 0001:0000cf25       ?GetTrueClientSize@CScrollView@@IAEHAAVCSize@@0@Z 5f40df25 f
 0001:0000cf9d       ?GetScrollBarSizes@CScrollView@@IAEXAAVCSize@@@Z 5f40df9d f
 0001:0000cffa       ?GetScrollBarState@CScrollView@@IAEXVCSize@@AAV2@1AAVCPoint@@H@Z 5f40dffa f
 0001:0000d0b8       ?GetDeviceScrollPosition@CScrollView@@QBE?AVCPoint@@XZ 5f40e0b8 f
 0001:0000d0f0       ?ScrollToDevicePosition@CScrollView@@IAEXUtagPOINT@@@Z 5f40e0f0 f
 0001:0000d142       ?SetScrollPos@CWnd@@QAEHHHH@Z 5f40e142 f
 0001:0000d172       ?ScrollWindow@CWnd@@QAEXHHPBUtagRECT@@0@Z 5f40e172 f
 0001:0000d1c9       ?EnableScrollBarCtrl@CWnd@@QAEXHH@Z 5f40e1c9 f
 0001:0000d202       ?SetDefaultTitle@CMultiDocTemplate@@UAEXPAVCDocument@@@Z 5f40e202 f
 0001:0000d28c       ?SetScrollSizes@CScrollView@@QAEXHUtagSIZE@@ABU2@1@Z 5f40e28c f
 0001:0000d3c1       ?SetMapMode@CDC@@UAEHH@Z   5f40e3c1 f
 0001:0000d3ec       ?ActivateFrame@CMDIChildWnd@@UAEXH@Z 5f40e3ec f
 0001:0000d499       ?GetDefaultAccelerator@CDocument@@UAEPAUHACCEL__@@XZ 5f40e499 f
 0001:0000d49c       ?GetWindowMenuPopup@CMDIFrameWnd@@UAEPAUHMENU__@@PAU2@@Z 5f40e49c f
 0001:0000d50a       ?OnSize@CMDIFrameWnd@@IAEXIHH@Z 5f40e50a f
 0001:0000d51e       ?OnPaint@CView@@IAEXXZ     5f40e51e f
 0001:0000d572       ?OnPrepareDC@CScrollView@@UAEXPAVCDC@@PAUCPrintInfo@@@Z 5f40e572 f
 0001:0000d5e2       ?OnPrepareDC@CView@@UAEXPAVCDC@@PAUCPrintInfo@@@Z 5f40e5e2 f
 0001:0000d5f1       ?SetViewportExt@CDC@@UAE?AVCSize@@HH@Z 5f40e5f1 f
 0001:0000d634       ?SetWindowExt@CDC@@UAE?AVCSize@@HH@Z 5f40e634 f
 0001:0000d677       ?GetMessageBar@CMDIChildWnd@@MAEPAVCWnd@@XZ 5f40e677 f
 0001:0000d686       ?CanCreateFromData@COleClientItem@@SGHPBVCOleDataObject@@@Z 5f40e686 f
 0001:0000d69e       ?CanPaste@COleClientItem@@SGHXZ 5f40e69e f
 0001:0000d71d       ?PreTranslateMessage@CControlBar@@UAEHPAUtagMSG@@@Z 5f40e71d f
 0001:0000d7bb       ??0CSplitterWnd@@QAE@XZ    5f40e7bb f
 0001:0000d80d       ?Create@CSplitterWnd@@QAEHPAVCWnd@@HHUtagSIZE@@PAUCCreateContext@@KI@Z 5f40e80d f
 0001:0000d883       ?CreateCommon@CSplitterWnd@@IAEHPAVCWnd@@UtagSIZE@@KI@Z 5f40e883 f
 0001:0000d983       ?OnNcCreate@CSplitterWnd@@IAEHPAUtagCREATESTRUCTA@@@Z 5f40e983 f
 0001:0000d9b5       ?OnSize@CSplitterWnd@@IAEXIHH@Z 5f40e9b5 f
 0001:0000d9e0       ?SetScrollStyle@CSplitterWnd@@QAEXK@Z 5f40e9e0 f
 0001:0000db05       ?GetScrollStyle@CSplitterWnd@@QBEKXZ 5f40eb05 f
 0001:0000db1b       ?CreateScrollBarCtrl@CSplitterWnd@@UAEHKI@Z 5f40eb1b f
 0001:0000db58       ?CreateView@CSplitterWnd@@UAEHHHPAUCRuntimeClass@@UtagSIZE@@PAUCCreateContext@@@Z 5f40eb58 f
 0001:0000dc40       ?IdFromRowCol@CSplitterWnd@@QBEHHH@Z 5f40ec40 f
 0001:0000dc53       ?GetRuntimeClass@CSplitterWnd@@UBEPAUCRuntimeClass@@XZ 5f40ec53 f
 0001:0000dc59       ?EnableWindow@CWnd@@QAEHH@Z 5f40ec59 f
 0001:0000dc74       ?RecalcLayout@CSplitterWnd@@UAEXXZ 5f40ec74 f
 0001:0000df37       ?GetInsideRect@CSplitterWnd@@MBEXAAVCRect@@@Z 5f40ef37 f
 0001:0000df85       ?_AfxLayoutRowCol@@YGXPAUCRowColInfo@CSplitterWnd@@HHH@Z 5f40ef85 f
 0001:0000e000       ?GetSizingParent@CSplitterWnd@@IAEPAVCWnd@@XZ 5f40f000 f
 0001:0000e0a2       ?_AfxDeferClientPos@@YGXPAUAFX_SIZEPARENTPARAMS@@PAVCWnd@@HHHHH@Z 5f40f0a2 f
 0001:0000e187       ?GetRuntimeClass@CTempWnd@@UBEPAUCRuntimeClass@@XZ 5f40f187 f
 0001:0000e18d       ?GetPane@CSplitterWnd@@QBEPAVCWnd@@HH@Z 5f40f18d f
 0001:0000e1a9       ?DrawAllSplitBars@CSplitterWnd@@MAEXPAVCDC@@HH@Z 5f40f1a9 f
 0001:0000e30b       ?OnDrawSplitter@CSplitterWnd@@MAEXPAVCDC@@W4ESplitType@1@ABVCRect@@@Z 5f40f30b f
 0001:0000e3f4       __imp_load__StgCreateDocfile@16 5f40f3f4 f
 0001:0000e400       ?SetScrollInfo@CWnd@@QAEHHPAUtagSCROLLINFO@@H@Z 5f40f400 f
 0001:0000e44d       ?OnPaint@CSplitterWnd@@IAEXXZ 5f40f44d f
 0001:0000e56f       ?Draw3dRect@CDC@@QAEXPBUtagRECT@@KK@Z 5f40f56f f
 0001:0000e59a       ?Draw3dRect@CDC@@QAEXHHHHKK@Z 5f40f59a f
 0001:0000e604       ?FillSolidRect@CDC@@QAEXPBUtagRECT@@K@Z 5f40f604 f
 0001:0000e62e       ?SetBkColor@CDC@@UAEKK@Z   5f40f62e f
 0001:0000e65a       ?AddRef@XPersistFile@COleLinkingDoc@@UAGKXZ 5f40f65a f
 0001:0000e66c       ??0COleUpdateDialog@@QAE@PAVCOleDocument@@HHPAVCWnd@@@Z 5f40f66c f
 0001:0000e6d7       ??0COleLinksDialog@@QAE@PAVCOleDocument@@PAVCView@@KPAVCWnd@@@Z 5f40f6d7 f
 0001:0000e76e       ??0COleDialog@@QAE@PAVCWnd@@@Z 5f40f76e f
 0001:0000e78c       ??0COleUILinkInfo@@QAE@PAVCOleDocument@@@Z 5f40f78c f
 0001:0000e7ac       ?DoModal@COleUpdateDialog@@UAEHXZ 5f40f7ac f
 0001:0000e7cd       ?GetNextLink@COleUILinkInfo@@UAGKK@Z 5f40f7cd f
 0001:0000e803       ??1COleUpdateDialog@@UAE@XZ 5f40f803 f
 0001:0000e841       ?Release@COleDispatchImpl@@UAGKXZ 5f40f841 f
 0001:0000e850       ?PreTranslateMessage@CDialog@@UAEHPAUtagMSG@@@Z 5f40f850 f
 0001:0000e8a1       ?IsDialogMessageA@CWnd@@QAEHPAUtagMSG@@@Z 5f40f8a1 f
 0001:0000e8bf       ?GetInterfaceMap@CCmdTarget@@MBEPBUAFX_INTERFACEMAP@@XZ 5f40f8bf f
 0001:0000e8c5       ?QueryInterface@COleDispatchImpl@@UAGJABU_GUID@@PAPAX@Z 5f40f8c5 f
 0001:0000e8dc       ??_9@$BNA@AE               5f40f8dc f
 0001:0000e8e4       ?OnCmdMsg@CDialog@@UAEHIHPAXPAUAFX_CMDHANDLERINFO@@@Z 5f40f8e4 f
 0001:0000e925       ?EnableAutomation@CCmdTarget@@QAEXXZ 5f40f925 f
 0001:0000e92d       ?AddRef@COleDispatchImpl@@UAGKXZ 5f40f92d f
 0001:0000e93c       ?CheckAutoCenter@CDialog@@UAEHXZ 5f40f93c f
 0001:0000e9ac       ?RunAutomated@CWinApp@@QAEHXZ 5f40f9ac f
 0001:0000e9c4       ?AfxOleRegisterServerClass@@YGHABU_GUID@@PBD11W4OLE_APPTYPE@@PAPBD3H1@Z 5f40f9c4 f
 0001:0000e9ed       ?Find@CString@@QBEHD@Z     5f40f9ed f
 0001:0000e9fb       ?Find@CString@@QBEHDH@Z    5f40f9fb f
 0001:0000ea14       ?EnableModeless@CWinApp@@QAEXH@Z 5f40fa14 f
 0001:0000ea36       ?DDX_Control@@YGXPAVCDataExchange@@HAAVCWnd@@@Z 5f40fa36 f
 0001:0000ea7b       ?HandleInComingCall@XMessageFilter@COleMessageFilter@@UAGKKPAUHTASK__@@KPAUtagINTERFACEINFO@@@Z 5f40fa7b f
 0001:0000eaca       ?InvokeHelperV@COleDispatchDriver@@QAEXJGGPAXPBEPAD@Z 5f40faca f
 0001:0000ed7d       ?AfxVariantInit@@YGXPAUtagVARIANT@@@Z 5f40fd7d f
 0001:0000ed90       ?Invoke@COleDispatchImpl@@UAGJJABU_GUID@@KGPAUtagDISPPARAMS@@PAUtagVARIANT@@PAUtagEXCEPINFO@@PAI@Z 5f40fd90 f
 0001:0000ef8b       ?IsInvokeAllowed@CCmdTarget@@UAEHJ@Z 5f40ff8b f
 0001:0000ef91       ?GetDispEntry@CCmdTarget@@IAGPBUAFX_DISPMAP_ENTRY@@J@Z 5f40ff91 f
 0001:0000f007       ?GetEntryCount@CCmdTarget@@KGIPBUAFX_DISPMAP@@@Z 5f410007 f
 0001:0000f036       ?CallMemberFunc@CCmdTarget@@IAEJPBUAFX_DISPMAP_ENTRY@@GPAUtagVARIANT@@PAUtagDISPPARAMS@@PAI@Z 5f410036 f
 0001:0000f22b       ?GetStackSize@CCmdTarget@@KGIPBEG@Z 5f41022b f
 0001:0000f270       ?PushStackArgs@CCmdTarget@@IAEJPAEPBEPAXGPAUtagDISPPARAMS@@PAIPAUtagVARIANT@@@Z 5f410270 f
 0001:0000f3d4       __AfxDispatchCall@12       5f4103d4 f
 0001:0000f3e5       ?InvokeHelper@COleDispatchDriver@@QAAXJGGPAXPBEZZ 5f4103e5 f
 0001:0000f405       ?ContinueModal@CWnd@@UAEHXZ 5f410405 f
 0001:0000f40c       ??0CPoint@@QAE@UtagPOINT@@@Z 5f41040c f
 0001:0000f512       ??_9@$BMM@AE               5f410512 f
 0001:0000f51a       ?OnOK@CDialog@@MAEXXZ      5f41051a f
 0001:0000f533       ?EndDialog@CDialog@@QAEXH@Z 5f410533 f
 0001:0000f556       ?EndModalLoop@CWnd@@UAEXH@Z 5f410556 f
 0001:0000f57a       ?PostModal@CDialog@@IAEXXZ 5f41057a f
 0001:0000f5b5       ?OnFinalRelease@CWnd@@UAEXXZ 5f4105b5 f
 0001:0000f5c7       ?ReleaseDispatch@COleDispatchDriver@@QAEXXZ 5f4105c7 f
 0001:0000f5e1       ??1CEdit@@UAE@XZ           5f4105e1 f
 0001:0000f619       ??1CStatic@@UAE@XZ         5f410619 f
 0001:0000f651       ??0COleDispatchDriver@@QAE@XZ 5f410651 f
 0001:0000f65e       ?DoModal@CDialog@@UAEHXZ   5f41065e f
 0001:0000f771       ?PreModal@CDialog@@IAEPAUHWND__@@XZ 5f410771 f
 0001:0000f7ac       ?GetSafeOwner_@CWnd@@SGPAUHWND__@@PAU2@PAPAU2@@Z 5f4107ac f
 0001:0000f819       ?GetRoutingFrame_@CCmdTarget@@KGPAVCFrameWnd@@XZ 5f410819 f
 0001:0000f825       ?PrepareCtrl@CDataExchange@@QAEPAUHWND__@@H@Z 5f410825 f
 0001:0000f853       ?GetDlgItem@CWnd@@QBEXHPAPAUHWND__@@@Z 5f410853 f
 0001:0000f874       ?CreateDispatch@COleDispatchDriver@@QAEHABU_GUID@@PAVCOleException@@@Z 5f410874 f
 0001:0000f8f8       __imp_load__CoCreateInstance@20 5f4108f8 f
 0001:0000f904       __imp_load__OleRun@4       5f410904 f
 0001:0000f910       ?CreateInstance@XClassFactory@COleObjectFactory@@UAGJPAUIUnknown@@ABU_GUID@@PAPAX@Z 5f410910 f
 0001:0000f92d       ?CreateInstanceLic@XClassFactory@COleObjectFactory@@UAGJPAUIUnknown@@0ABU_GUID@@PAGPAPAX@Z 5f41092d f
 0001:0000fa11       ?IsLicenseValid@COleObjectFactory@@QAEHXZ 5f410a11 f
 0001:0000fa2c       ?VerifyUserLicense@COleObjectFactory@@MAEHXZ 5f410a2c f
 0001:0000fa30       ?OnCreateObject@COleObjectFactory@@MAEPAVCCmdTarget@@XZ 5f410a30 f
 0001:0000fa47       ?_AfxQueryInterface@@YGPAUIUnknown@@PAU1@ABU_GUID@@@Z 5f410a47 f
 0001:0000fa6b       ?SetProperty@COleDispatchDriver@@QAAXJGZZ 5f410a6b f
 0001:0000fab5       __imp_load__VariantClear@4 5f410ab5 f
 0001:0000fabc       __tailMerge_OLEAUT32       5f410abc f
 0001:0000faca       ?GetProperty@COleDispatchDriver@@QBEXJGPAX@Z 5f410aca f
 0001:0000fae6       __imp_load__VariantChangeType@16 5f410ae6 f
 0001:0000faef       ?RunModalLoop@CWnd@@QAEHK@Z 5f410aef f
 0001:0000fc02       __imp_load__SysAllocString@4 5f410c02 f
 0001:0000fc0e       ?AfxBSTR2ABSTR@@YGPAGPAG@Z 5f410c0e f
 0001:0000fc5b       __imp_load__SysStringLen@4 5f410c5b f
 0001:0000fc67       __imp_load__SysAllocStringByteLen@8 5f410c67 f
 0001:0000fc73       ?MessagePending@XMessageFilter@COleMessageFilter@@UAGKPAUHTASK__@@KK@Z 5f410c73 f
 0001:0000fce7       ?OnMessagePending@COleMessageFilter@@UAEHPBUtagMSG@@@Z 5f410ce7 f
 0001:0000fd31       ?UpdateData@CWnd@@QAEHH@Z  5f410d31 f
 0001:0000fdaa       ??0CDataExchange@@QAE@PAVCWnd@@H@Z 5f410daa f
 0001:0000fdc0       ?OnCtlColor@CDialog@@IAEPAUHBRUSH__@@PAVCDC@@PAVCWnd@@I@Z 5f410dc0 f
 0001:0000fdd4       ?OnGrayCtlColor@CWnd@@QAEPAUHBRUSH__@@PAVCDC@@PAV1@I@Z 5f410dd4 f
 0001:0000fe35       ?CreateDlgIndirect@CWnd@@IAEHPBUDLGTEMPLATE@@PAV1@PAUHINSTANCE__@@@Z 5f410e35 f
 0001:0000ff5e       ?GetFont@CDialogTemplate@@SAHPBUDLGTEMPLATE@@AAVCString@@AAG@Z 5f410f5e f
 0001:0000ffcc       ?GetFontSizeField@CDialogTemplate@@KAPAEPBUDLGTEMPLATE@@@Z 5f410fcc f
 0001:0001001f       ?Create@CDialog@@QAEHPBDPAVCWnd@@@Z 5f41101f f
 0001:00010070       ?CreateIndirect@CDialog@@IAEHPAXPAVCWnd@@PAUHINSTANCE__@@@Z 5f411070 f
 0001:00010093       ?CreateIndirect@CDialog@@IAEHPBUDLGTEMPLATE@@PAVCWnd@@PAXPAUHINSTANCE__@@@Z 5f411093 f
 0001:000100be       ?HandleSetFont@CDialog@@IAEJIJ@Z 5f4110be f
 0001:000100e2       ?SetCheck@CTestCmdUI@@UAEXH@Z 5f4110e2 f
 0001:000100e5       ?_AfxPreInitDialog@@YGXPAVCWnd@@PAUtagRECT@@PAK@Z 5f4110e5 f
 0001:00010108       ?HandleInitDialog@CDialog@@IAEJIJ@Z 5f411108 f
 0001:00010145       ?OnInitDialog@CDialog@@UAEHXZ 5f411145 f
 0001:00010191       ?ExecuteDlgInit@CWnd@@QAEHPBD@Z 5f411191 f
 0001:000101d5       ?ExecuteDlgInit@CWnd@@QAEHPAX@Z 5f4111d5 f
 0001:0001020d       ?_AfxPostInitDialog@@YGXPAVCWnd@@ABUtagRECT@@K@Z 5f41120d f
 0001:0001027c       ?CreateObject@?$CProcessLocal@V_AFX_WIN_STATE@@@@SGPAVCNoTrackObject@@XZ 5f41127c f
 0001:000102ad       ??0_AFX_WIN_STATE@@QAE@XZ  5f4112ad f
 0001:000102b6       ?_GetBaseClass@CColorDialog@@KGPAUCRuntimeClass@@XZ 5f4112b6 f
 0001:000102bc       ?SubclassWindow@CWnd@@QAEHPAUHWND__@@@Z 5f4112bc f
 0001:000102ff       ??0CException@@QAE@XZ      5f4112ff f
 0001:0001030f       ??0CDockState@@QAE@XZ      5f41130f f
 0001:0001038c       ??0CSingleDocTemplate@@QAE@IPAUCRuntimeClass@@00@Z 5f41138c f
 0001:000103b4       ??_ECPtrList@@UAEPAXI@Z    5f4113b4 f
 0001:000103df       ?SetRegistryKey@CWinApp@@IAEXPBD@Z 5f4113df f
 0001:00010426       __imp_load__RegOpenKeyExA@20 5f411426 f
 0001:00010432       __imp_load__RegCreateKeyExA@36 5f411432 f
 0001:0001043e       __imp_load__RegQueryValueExA@24 5f41143e f
 0001:0001044a       ?GetProfileBinary@CWinApp@@QAEHPBD0PAPAEPAI@Z 5f41144a f
 0001:000104ec       ?Write@CMemFile@@UAEXPBXI@Z 5f4114ec f
 0001:0001052e       ??5CArchive@@QAEAAV0@AAM@Z 5f41152e f
 0001:00010562       ?FillBuffer@CArchive@@QAEXI@Z 5f411562 f
 0001:000105be       ?Read@CArchive@@QAEIPAXI@Z 5f4115be f
 0001:00010608       ?SetScreenSize@CDockState@@QAEXAAVCSize@@@Z 5f411608 f
 0001:0001063e       ??5CArchive@@QAEAAV0@AAG@Z 5f41163e f
 0001:00010669       ?ScalePoint@CDockState@@QAEXAAVCPoint@@@Z 5f411669 f
 0001:00010697       ?ScaleRectPos@CDockState@@QAEXAAVCRect@@@Z 5f411697 f
 0001:000106e3       ??0CDialog@@QAE@XZ         5f4116e3 f
 0001:00010705       ?CenterWindow@CWnd@@QAEXPAV1@@Z 5f411705 f
 0001:0001082d       _xMonitorFromWindow@8      5f41182d f
 0001:00010850       _InitMultipleMonitorStubs  5f411850 f
 0001:00010912       _xGetMonitorInfo@8         5f411912 f
 0001:00010939       ?SubclassDlgItem@CWnd@@QAEHIPAV1@@Z 5f411939 f
 0001:00010965       ?OnChildNotify@CButton@@MAEHIIJPAJ@Z 5f411965 f
 0001:00010993       ?OnDrawItem@CWnd@@IAEXHPAUtagDRAWITEMSTRUCT@@@Z 5f411993 f
 0001:000109bb       ?SelectGdiObject@CDC@@KGPAVCGdiObject@@PAUHDC__@@PAX@Z 5f4119bb f
 0001:000109d2       ?UpdatePrinterSelection@CWinApp@@IAEXH@Z 5f4119d2 f
 0001:00010a77       ??0CPrintDialog@@QAE@HKPAVCWnd@@@Z 5f411a77 f
 0001:00010b11       ?GetDefaults@CPrintDialog@@QAEHXZ 5f411b11 f
 0001:00010b21       _PrintDlgA@4               5f411b21 f
 0001:00010b27       __imp_load__PrintDlgA@4    5f411b27 f
 0001:00010b33       ?OpenDocumentFile@CSingleDocTemplate@@UAEPAVCDocument@@PBDH@Z 5f411b33 f
 0001:00010c6a       ??0CRichEditDoc@@IAE@XZ    5f411c6a f
 0001:00010c8d       ?AddDocument@CSingleDocTemplate@@UAEXPAVCDocument@@@Z 5f411c8d f
 0001:00010ca3       ??0CRichEditView@@QAE@XZ   5f411ca3 f
 0001:00010d63       ??0CCtrlView@@QAE@PBDK@Z   5f411d63 f
 0001:00010db4       ??0CDWordArray@@QAE@XZ     5f411db4 f
 0001:00010dcb       ?PreCreateWindow@CRichEditView@@MAEHAAUtagCREATESTRUCTA@@@Z 5f411dcb f
 0001:00010e00       ?AfxInitRichEdit@@YGHXZ    5f411e00 f
 0001:00010e30       ?CreateObject@?$CProcessLocal@V_AFX_RICHEDIT_STATE@@@@SGPAVCNoTrackObject@@XZ 5f411e30 f
 0001:00010e6d       ??0_AFX_EDIT_STATE@@QAE@XZ 5f411e6d f
 0001:00010eb2       ?PreCreateWindow@CCtrlView@@MAEHAAUtagCREATESTRUCTA@@@Z 5f411eb2 f
 0001:00010efc       ?OnCreate@CRichEditView@@IAEHPAUtagCREATESTRUCTA@@@Z 5f411efc f
 0001:00010f7f       ?AddRef@XRichEditOleCallback@CRichEditView@@UAGKXZ 5f411f7f f
 0001:00010f92       ?GetIRichEditOle@CRichEditCtrl@@QBEPAUIRichEditOle@@XZ 5f411f92 f
 0001:00010fb3       ?WrapChanged@CRichEditView@@MAEXXZ 5f411fb3 f
 0001:00011055       ?Create@CComboBox@@QAEHKABUtagRECT@@PAVCWnd@@I@Z 5f412055 f
 0001:00011076       ?OnMeasureItem@CWnd@@IAEXHPAUtagMEASUREITEMSTRUCT@@@Z 5f412076 f
 0001:000110b4       ??0CMapStringToPtr@@QAE@H@Z 5f4120b4 f
 0001:000110db       ?Lookup@CMapStringToPtr@@QBEHPBDAAPAX@Z 5f4120db f
 0001:000110fd       ?GetAssocAt@CMapStringToPtr@@IBEPAUCAssoc@1@PBDAAI@Z 5f4120fd f
 0001:00011154       ??ACMapStringToPtr@@QAEAAPAXPBD@Z 5f412154 f
 0001:000111b8       ?NewAssoc@CMapStringToPtr@@IAEPAUCAssoc@1@XZ 5f4121b8 f
 0001:0001121d       ?RemoveKey@CMapStringToPtr@@QAEHPBD@Z 5f41221d f
 0001:00011284       ?FreeAssoc@CMapStringToOb@@IAEXPAUCAssoc@1@@Z 5f412284 f
 0001:000112aa       ??1CMapStringToPtr@@UAE@XZ 5f4122aa f
 0001:000112dd       ?RemoveAll@CMapStringToOb@@QAEXXZ 5f4122dd f
 0001:0001132f       ?SetButtonInfo@CToolBar@@QAEXHIIH@Z 5f41232f f
 0001:0001139e       ?SetDefaultTitle@CSingleDocTemplate@@UAEXPAVCDocument@@@Z 5f41239e f
 0001:00011400       ?SetTitle@CRichEditDoc@@UAEXPBD@Z 5f412400 f
 0001:00011432       ?DeleteContents@CRichEditView@@UAEXXZ 5f412432 f
 0001:00011462       ?SetSel@CRichEditCtrl@@QAEXJJ@Z 5f412462 f
 0001:0001148b       ?SetDefaultCharFormat@CRichEditCtrl@@QAEHAAU_charformat@@@Z 5f41248b f
 0001:000114a9       ?SetSelectionCharFormat@CRichEditCtrl@@QAEHAAU_charformat@@@Z 5f4124a9 f
 0001:000114c7       ?SetParaFormat@CRichEditCtrl@@QAEHAAU_paraformat@@@Z 5f4124c7 f
 0001:000114e5       ?SetModifiedFlag@CRichEditDoc@@UAEXH@Z 5f4124e5 f
 0001:00011504       ?SetDockState@CFrameWnd@@QAEXABVCDockState@@@Z 5f412504 f
 0001:000115aa       ?SetBarInfo@CControlBar@@QAEXPAVCControlBarInfo@@PAVCFrameWnd@@@Z 5f4125aa f
 0001:00011678       ?SetBarInfo@CDockBar@@QAEXPAVCControlBarInfo@@PAVCFrameWnd@@@Z 5f412678 f
 0001:000117fb       ?RemoveControlBar@CDockBar@@QAEHPAVCControlBar@@HH@Z 5f4127fb f
 0001:0001187f       ?RemoveAt@CDWordArray@@QAEXHH@Z 5f41287f f
 0001:000118b7       ?InsertAt@CObArray@@QAEXHPAVCObject@@H@Z 5f4128b7 f
 0001:0001194a       ?_GetBaseClass@CRichEditView@@KGPAUCRuntimeClass@@XZ 5f41294a f
 0001:00011950       ?CreatePrinterDC@CWinApp@@QAEHAAVCDC@@@Z 5f412950 f
 0001:00011986       ?AfxCreateDC@@YGPAUHDC__@@PAX0@Z 5f412986 f
 0001:000119f1       ?DeleteDC@CDC@@QAEHXZ      5f4129f1 f
 0001:000119fe       ?ParseParam@CCommandLineInfo@@UAEXPBDHH@Z 5f4129fe f
 0001:00011a24       ?ParseParamNotFlag@CCommandLineInfo@@IAEXPBD@Z 5f412a24 f
 0001:00011a44       ?ParseLast@CCommandLineInfo@@IAEXH@Z 5f412a44 f
 0001:00011a73       ?Open@CFile@@UAEHPBDIPAVCFileException@@@Z 5f412a73 f
 0001:00011b44       ?AfxFullPath@@YGHPADPBD@Z  5f412b44 f
 0001:00011bdb       ?AfxGetRoot@@YGXPBDAAVCString@@@Z 5f412bdb f
 0001:00011c73       ??0CTime@@QAE@ABU_FILETIME@@H@Z 5f412c73 f
 0001:00011cc2       ??0CTime@@QAE@ABU_SYSTEMTIME@@H@Z 5f412cc2 f
 0001:00011d0d       ??0CTime@@QAE@HHHHHHH@Z    5f412d0d f
 0001:00011d5a       ?Seek@CFile@@UAEJJI@Z      5f412d5a f
 0001:00011d7f       ?Read@CFile@@UAEIPAXI@Z    5f412d7f f
 0001:00011db0       ?Close@CFile@@UAEXXZ       5f412db0 f
 0001:00011de7       ?OpenDocumentFile@CWinApp@@UAEPAVCDocument@@PBD@Z 5f412de7 f
 0001:00011df9       ?OpenDocumentFile@CDocManager@@UAEPAVCDocument@@PBD@Z 5f412df9 f
 0001:00011ed7       ?AfxResolveShortcut@@YGHPAVCWnd@@PBDPADH@Z 5f412ed7 f
 0001:00011f25       __imp_load__SHGetFileInfoA@20 5f412f25 f
 0001:00011f31       ?MatchDocType@CDocTemplate@@UAE?AW4Confidence@1@PBDAAPAVCDocument@@@Z 5f412f31 f
 0001:00011fe4       ?AfxComparePath@@YGHPBD0@Z 5f412fe4 f
 0001:0001201f       ?OnOpenDocument@COleLinkingDoc@@UAEHPBD@Z 5f41301f f
 0001:0001206e       __imp_load__CreateFileMoniker@8 5f41306e f
 0001:0001207a       __imp_load__GetRunningObjectTable@8 5f41307a f
 0001:00012086       ?OnOpenDocument@COleDocument@@UAEHPBD@Z 5f413086 f
 0001:000120ce       ?OnOpenDocument@CDocument@@UAEHPBD@Z 5f4130ce f
 0001:00012200       ?GetBufferPtr@CFile@@UAEIIIPAPAX0@Z 5f413200 f
 0001:00012205       ?Serialize@CRichEditDoc@@UAEXAAVCArchive@@@Z 5f413205 f
 0001:0001221f       ?Serialize@CRichEditView@@UAEXAAVCArchive@@@Z 5f41321f f
 0001:0001222d       ?Stream@CRichEditView@@QAEXAAVCArchive@@H@Z 5f41322d f
 0001:000122a7       ?EditStreamCallBack@CRichEditView@@SGKKPAEJPAJ@Z 5f4132a7 f
 0001:00012306       ?GetPosition@CFile@@UBEKXZ 5f413306 f
 0001:00012325       ?SetMessageText@CFrameWnd@@QAEXPBD@Z 5f413325 f
 0001:0001233c       ?ReleaseFile@CDocument@@UAEXPAVCFile@@H@Z 5f41333c f
 0001:00012364       ?SetPathName@CRichEditDoc@@UAEXPBDH@Z 5f413364 f
 0001:00012374       ?SetPathName@CDocument@@UAEXPBDH@Z 5f413374 f
 0001:000123f0       ?AddToRecentFileList@CWinApp@@UAEXPBD@Z 5f4133f0 f
 0001:00012406       ?Add@CRecentFileList@@UAEXPBD@Z 5f413406 f
 0001:00012464       ?UpdateAllItems@COleServerDoc@@QAEXPAVCOleServerItem@@JPAVCObject@@W4tagDVASPECT@@@Z 5f413464 f
 0001:0001248e       ?GetSectionKey@CWinApp@@QAEPAUHKEY__@@PBD@Z 5f41348e f
 0001:000124d4       ?GetAppRegistryKey@CWinApp@@QAEPAUHKEY__@@XZ 5f4134d4 f
 0001:0001256b       ??0CMemFile@@QAE@I@Z       5f41356b f
 0001:0001259b       ??0CFile@@QAE@XZ           5f41359b f
 0001:000125db       ?GrowFile@CMemFile@@MAEXK@Z 5f4135db f
 0001:00012632       ?Alloc@CMemFile@@MAEPAEK@Z 5f413632 f
 0001:00012640       ?Memcpy@CMemFile@@MAEPAEPAEPBEI@Z 5f413640 f
 0001:00012665       ?Seek@CMemFile@@UAEJJI@Z   5f413665 f
 0001:000126a3       ??0CArchive@@QAE@PAVCFile@@IHPAX@Z 5f4136a3 f
 0001:0001277b       ?GetFilePath@CFile@@UBE?AVCString@@XZ 5f41377b f
 0001:000127bb       ??0CFileStatus@@QAE@XZ     5f4137bb f
 0001:000127d7       ??0CTime@@QAE@XZ           5f4137d7 f
 0001:000127da       ?GetStatus@CFile@@QBEHAAUCFileStatus@@@Z 5f4137da f
 0001:000128bb       ?GetBufferPtr@CMemFile@@UAEIIIPAPAX0@Z 5f4138bb f
 0001:0001295f       ?Serialize@CDockState@@UAEXAAVCArchive@@@Z 5f41395f f
 0001:00012a81       ?Clear@CDockState@@QAEXXZ  5f413a81 f
 0001:00012abd       ??0CControlBarInfo@@QAE@XZ 5f413abd f
 0001:00012b0b       ?Serialize@CControlBarInfo@@QAEXAAVCArchive@@PAVCDockState@@@Z 5f413b0b f
 0001:00012d02       ?GetVersion@CDockState@@QAEKXZ 5f413d02 f
 0001:00012d06       ?Close@CArchive@@QAEXXZ    5f413d06 f
 0001:00012d14       ?Flush@CArchive@@QAEXXZ    5f413d14 f
 0001:00012d79       ??1CArchive@@QAE@XZ        5f413d79 f
 0001:00012db8       ?Abort@CArchive@@QAEXXZ    5f413db8 f
 0001:00012df6       ??1CMemFile@@UAE@XZ        5f413df6 f
 0001:00012e42       ?Close@CMemFile@@UAEXXZ    5f413e42 f
 0001:00012e6c       ?Free@CMemFile@@MAEXPAE@Z  5f413e6c f
 0001:00012e7a       ??1CFile@@UAE@XZ           5f413e7a f
 0001:00012eca       ?BeginWaitCursor@CCmdTarget@@QAEXXZ 5f413eca f
 0001:00012edf       ?DoWaitCursor@CWinApp@@UAEXH@Z 5f413edf f
 0001:00012f3e       ?EndWaitCursor@CCmdTarget@@QAEXXZ 5f413f3e f
 0001:00012f53       ?GetView@CRichEditDoc@@UBEPAVCRichEditView@@XZ 5f413f53 f
 0001:00012f92       ?GetStartPosition@CRichEditDoc@@UBEPAU__POSITION@@XZ 5f413f92 f
 0001:00012fab       ?IsModified@CRichEditDoc@@UAEHXZ 5f413fab f
 0001:00012fc6       ?DeleteContents@CRichEditDoc@@UAEXXZ 5f413fc6 f
 0001:00013033       __imp_load__GetFileTitleA@12 5f414033 f
 0001:0001303a       __tailMerge_comdlg32       5f41403a f
 0001:00013048       ?OnCancel@CPropertyPage@@UAEXXZ 5f414048 f
 0001:00013049       ?GetLength@CFile@@UBEKXZ   5f414049 f
 0001:00013076       ?AfxGetFileTitle@@YGIPBDPADI@Z 5f414076 f
 0001:000130b3       _GetFileTitleA@12          5f4140b3 f
 0001:000130b9       ?GetDisplayName@CRecentFileList@@QBEHAAVCString@@HPBDHH@Z 5f4140b9 f
 0001:000131bc       ??H@YG?AVCString@@ABV0@0@Z 5f4141bc f
 0001:00013222       ?_AfxAbbreviateName@@YGXPADHH@Z 5f414222 f
 0001:000132ba       ?OnUpdateFileSendMail@CDocument@@IAEXPAVCCmdUI@@@Z 5f4142ba f
 0001:0001332c       ?OnCancelEditCntr@CRichEditView@@IAEXXZ 5f41432c f
 0001:00013336       ?CanCloseFrame@COleServerDoc@@UAEHPAVCFrameWnd@@@Z 5f414336 f
 0001:0001335b       ?CanCloseFrame@CDocument@@UAEHPAVCFrameWnd@@@Z 5f41435b f
 0001:000133a3       ?GetDockState@CFrameWnd@@QBEXAAVCDockState@@@Z 5f4143a3 f
 0001:0001341e       ?GetBarInfo@CControlBar@@QAEXPAVCControlBarInfo@@@Z 5f41441e f
 0001:000134e6       ?GetBarInfo@CDockBar@@QAEXPAVCControlBarInfo@@@Z 5f4144e6 f
 0001:0001356d       ?PreCloseFrame@CRichEditDoc@@UAEXPAVCFrameWnd@@@Z 5f41456d f
 0001:000135ce       ?OnDeleteItem@CWnd@@IAEXHPAUtagDELETEITEMSTRUCT@@@Z 5f4145ce f
 0001:000135ee       ?DrawItem@CListView@@UAEXPAUtagDRAWITEMSTRUCT@@@Z 5f4145ee f
 0001:000135f1       ?OnDestroy@CRichEditView@@IAEXXZ 5f4145f1 f
 0001:0001360a       ?Release@XRichEditOleCallback@CRichEditView@@UAGKXZ 5f41460a f
 0001:0001361c       ??1CDWordArray@@UAE@XZ     5f41461c f
 0001:00013653       ??1CComboBox@@UAE@XZ       5f414653 f
 0001:0001368b       ?RemoveDocument@CSingleDocTemplate@@UAEXPAVCDocument@@@Z 5f41468b f
 0001:0001369f       ?WriteProfileInt@CWinApp@@QAEHPBD0H@Z 5f41469f f
 0001:000136ee       ?WriteProfileBinary@CWinApp@@QAEHPBD0PAEI@Z 5f4146ee f
 0001:0001373c       ??6CArchive@@QAEAAV0@K@Z   5f41473c f
 0001:00013764       ?GetScreenSize@CDockState@@QAE?AVCSize@@XZ 5f414764 f
 0001:0001377e       ?Write@CArchive@@QAEXPBXI@Z 5f41477e f
 0001:000137bd       ??6CArchive@@QAEAAV0@G@Z   5f4147bd f
 0001:000137e3       ?Realloc@CMemFile@@MAEPAEPAEK@Z 5f4147e3 f
 0001:000137f6       ?Read@CMemFile@@UAEIPAXI@Z 5f4147f6 f
 0001:0001383b       __imp_load__RegDeleteKeyA@8 5f41483b f
 0001:00013847       ?UpdateAllPanes@CStatusBar@@IAEXHH@Z 5f414847 f
 0001:0001398f       ?SetPaneText@CStatusBar@@QAEHHPBDH@Z 5f41498f f
 0001:00013a43       ?SetMessageText@CFrameWnd@@QAEXI@Z 5f414a43 f
 0001:00013a5a       ?OnSetMessageString@CFrameWnd@@IAEJIJ@Z 5f414a5a f
 0001:00013b1d       ?GetMessageBar@CFrameWnd@@UAEPAVCWnd@@XZ 5f414b1d f
 0001:00013b2d       ?GetDescendantWindow@CWnd@@SGPAV1@PAUHWND__@@HH@Z 5f414b2d f
 0001:00013ba7       ?GetMessageString@CFrameWnd@@UBEXIAAVCString@@@Z 5f414ba7 f
 0001:00013bee       ?OnSetText@CStatusBar@@IAEJIJ@Z 5f414bee f
 0001:00013c19       ?CommandToIndex@CStatusBar@@QBEHI@Z 5f414c19 f
 0001:00013c42       ?_AfxRelease@@YGKPAPAUIUnknown@@@Z 5f414c42 f
 0001:00013c5e       ?GetExStyle@CWnd@@QBEKXZ   5f414c5e f
 0001:00013c75       ?UpdateFrameCounts@CDocument@@UAEXXZ 5f414c75 f
 0001:00013d68       ?OnPaint@CStatusBar@@IAEXXZ 5f414d68 f
 0001:00013d7d       ?OnSysCommand@CFrameWnd@@IAEXIJ@Z 5f414d7d f
 0001:00013da6       ?OnInitMenu@CFrameWnd@@IAEXPAVCMenu@@@Z 5f414da6 f
 0001:00013dbf       ?IsTracking@CFrameWnd@@QBEHXZ 5f414dbf f
 0001:00013dde       ?OnMenuSelect@CFrameWnd@@IAEXIIPAUHMENU__@@@Z 5f414dde f
 0001:00013ed9       ?OnInitMenuPopup@CFrameWnd@@IAEXPAVCMenu@@IH@Z 5f414ed9 f
 0001:00013ffd       ?AfxCancelModes@@YGXPAUHWND__@@@Z 5f414ffd f
 0001:0001404b       ?_AfxIsComboBoxControl@@YGHPAUHWND__@@I@Z 5f41504b f
 0001:00014074       ?OnEnterIdle@CFrameWnd@@IAEXIPAVCWnd@@@Z 5f415074 f
 0001:000140a5       ?AddTail@CObList@@QAEPAU__POSITION@@PAVCObject@@@Z 5f4150a5 f
 0001:000140ce       ?NewNode@CObList@@IAEPAUCNode@1@PAU21@0@Z 5f4150ce f
 0001:00014126       ?OnParentNotify@CWnd@@IAEXIJ@Z 5f415126 f
 0001:00014155       ?OnShowWindow@CWnd@@IAEXHI@Z 5f415155 f
 0001:0001415d       ?AllocElements@CStatusBar@@QAEHHH@Z 5f41515d f
 0001:000141c2       ?AllocElements@CControlBar@@QAEHHH@Z 5f4151c2 f
 0001:000141fd       ?_AfxActivationWndProc@@YGJPAUHWND__@@IIJ@Z 5f4151fd f
 0001:000142a1       ?OnChangedViewList@CDocument@@UAEXXZ 5f4152a1 f
 0001:000142b9       ?GetStartPosition@COleDocument@@UBEPAU__POSITION@@XZ 5f4152b9 f
 0001:000142bd       ?GetNextClientItem@COleDocument@@QBEPAVCOleClientItem@@AAPAU__POSITION@@@Z 5f4152bd f
 0001:000142ce       ?GetNextItemOfKind@COleDocument@@IBEPAVCDocItem@@AAPAU__POSITION@@PAUCRuntimeClass@@@Z 5f4152ce f
 0001:000142e8       ?Revoke@COleLinkingDoc@@QAEXXZ 5f4152e8 f
 0001:0001434c       ?DeleteContents@COleDocument@@UAEXXZ 5f41534c f
 0001:00014378       ?SetActiveView@CFrameWnd@@QAEXPAVCView@@H@Z 5f415378 f
 0001:000143c8       ?DeleteContents@COleServerDoc@@UAEXXZ 5f4153c8 f
 0001:00014437       ?GetNextServerItem@COleDocument@@QBEPAVCOleServerItem@@AAPAU__POSITION@@@Z 5f415437 f
 0001:00014448       ?IsDockBar@CControlBar@@UBEHXZ 5f415448 f
 0001:0001444b       ?IsDockBar@CDockBar@@UBEHXZ 5f41544b f
 0001:0001444f       ?SaveModified@COleDocument@@UAEHXZ 5f41544f f
 0001:0001448b       ?SaveModified@CDocument@@UAEHXZ 5f41548b f
 0001:000144b7       ?SaveModified@COleServerDoc@@MAEHXZ 5f4154b7 f
 0001:000144d0       ??0CPtrArray@@QAE@XZ       5f4154d0 f
 0001:000144e7       ??0CString@@QAE@PBD@Z      5f4154e7 f
 0001:00014536       ?SetSize@CUIntArray@@QAEXHH@Z 5f415536 f
 0001:00014650       ?SetAtGrow@CUIntArray@@QAEXHI@Z 5f415650 f
 0001:00014677       ??0CString@@QAE@ABV0@@Z    5f415677 f
 0001:0001469e       ?ConcatCopy@CString@@IAEXHPBDH0@Z 5f41569e f
 0001:000146dc       ?Revoke@COleObjectFactory@@QAEXXZ 5f4156dc f
 0001:000146ff       ?AfxOleGetUserCtrl@@YGHXZ  5f4156ff f
 0001:00014708       ??1CControlBarInfo@@QAE@XZ 5f415708 f
 0001:0001470b       ??1CPtrArray@@UAE@XZ       5f41570b f
 0001:00014742       ?GetInterfaceMap@COleLinkingDoc@@MBEPBUAFX_INTERFACEMAP@@XZ 5f415742 f
 0001:00014748       ?QueryInterface@XPersistFile@COleLinkingDoc@@UAGJABU_GUID@@PAPAX@Z 5f415748 f
 0001:00014762       ?Release@XPersistFile@COleLinkingDoc@@UAGKXZ 5f415762 f
 0001:00014774       __imp_load__CoTaskMemFree@4 5f415774 f
 0001:00014780       __imp_load__RegSetValueExA@24 5f415780 f
 0001:0001478c       ??1CCommandLineInfo@@UAE@XZ 5f41578c f
 0001:000147e9       ?AfxOleCanExitApp@@YGHXZ   5f4157e9 f
 0001:000147f9       ?AfxPostQuitMessage@@YGXH@Z 5f4157f9 f
 0001:0001481c       ?AfxOleTerm@@YGXH@Z        5f41581c f
 0001:00014877       ?FlushClipboard@COleDataSource@@SGXXZ 5f415877 f
 0001:00014885       ?GetClipboardOwner@COleDataSource@@SGPAV1@XZ 5f415885 f
 0001:000148a6       ?CreateObject@?$CProcessLocal@V_AFX_OLE_STATE@@@@SGPAVCNoTrackObject@@XZ 5f4158a6 f
 0001:000148d7       ??0_AFX_OLE_STATE@@QAE@XZ  5f4158d7 f
 0001:000148e0       ?RevokeAll@COleObjectFactory@@SGXXZ 5f4158e0 f
 0001:00014935       ?AfxOleUnlockAllControls@@YGXXZ 5f415935 f
 0001:0001495f       ?Disconnect@COleDispatchImpl@@UAEXXZ 5f41595f f
 0001:00014962       ?ExternalDisconnect@CCmdTarget@@QAEXXZ 5f415962 f
 0001:0001498f       ?ExitInstance@CWinApp@@UAEHXZ 5f41598f f
 0001:000149c5       ?SaveStdProfileSettings@CWinApp@@IAEXXZ 5f4159c5 f
 0001:000149e7       ?AfxWinTerm@@YGXXZ         5f4159e7 f
 0001:00014a74       ??_GCOleMessageFilter@@UAEPAXI@Z 5f415a74 f
 0001:00014a74       ??_ECOleMessageFilter@@UAEPAXI@Z 5f415a74 f
 0001:00014a90       ??1COleMessageFilter@@UAE@XZ 5f415a90 f
 0001:00014ac8       ?Revoke@COleMessageFilter@@QAEXXZ 5f415ac8 f
 0001:00014ae1       ?Release@XMessageFilter@COleMessageFilter@@UAGKXZ 5f415ae1 f
 0001:00014af0       __imp_load__CoFreeUnusedLibraries@0 5f415af0 f
 0001:00014afc       __imp_load__OleUninitialize@0 5f415afc f
 0001:00014b08       ??0CTestCmdUI@@QAE@XZ      5f415b08 f
 0001:00014b21       __imp_load__CoDisconnectObject@8 5f415b21 f
 0001:00014b2d       ?Enable@CCmdUI@@UAEXH@Z    5f415b2d f
 0001:00014b6a       ?OnUpdateRecentFileMenu@CWinApp@@IAEXPAVCCmdUI@@@Z 5f415b6a f
 0001:00014b84       ?UpdateMenu@CRecentFileList@@UAEXPAVCCmdUI@@@Z 5f415b84 f
 0001:00014da7       ?GetMenuStringA@CMenu@@QBEHIAAVCString@@I@Z 5f415da7 f
 0001:00014dfe       ?OnAppExit@CWinApp@@IAEXXZ 5f415dfe f
 0001:00014e11       ?OnClose@CFrameWnd@@IAEXXZ 5f415e11 f
 0001:00014eb7       ?HideApplication@CWinApp@@QAEXXZ 5f415eb7 f
 0001:00014ee9       ?CloseAllDocuments@CWinApp@@QAEXH@Z 5f415ee9 f
 0001:00014eff       ?CloseAllDocuments@CDocManager@@UAEXH@Z 5f415eff f
 0001:00014f20       ?CloseAllDocuments@CDocTemplate@@UAEXH@Z 5f415f20 f
 0001:00014f53       ?OnCloseDocument@COleLinkingDoc@@UAEXXZ 5f415f53 f
 0001:00014fb3       ?OnCloseDocument@COleDocument@@UAEXXZ 5f415fb3 f
 0001:00014fd7       ?OnCloseDocument@CDocument@@UAEXXZ 5f415fd7 f
 0001:00015026       ?OnDestroy@CFrameWnd@@IAEXXZ 5f416026 f
 0001:00015073       ?DestroyDockBars@CFrameWnd@@QAEXXZ 5f416073 f
 0001:000150f8       ?OnDestroy@CView@@IAEXXZ   5f4160f8 f
 0001:00015127       ?PostNcDestroy@CView@@MAEXXZ 5f416127 f
 0001:00015133       ??1CScrollView@@UAE@XZ     5f416133 f
 0001:00015139       ??1CView@@UAE@XZ           5f416139 f
 0001:0001518a       ?RemoveView@CDocument@@QAEXPAVCView@@@Z 5f41618a f
 0001:000151b9       ?Find@CObList@@QBEPAU__POSITION@@PAVCObject@@PAU2@@Z 5f4161b9 f
 0001:000151dc       ?RemoveAt@CPtrList@@QAEXPAU__POSITION@@@Z 5f4161dc f
 0001:00015213       ?FreeNode@CObList@@IAEXPAUCNode@1@@Z 5f416213 f
 0001:0001522e       ?PostNcDestroy@CFrameWnd@@MAEXXZ 5f41622e f
 0001:0001523a       ??1CFrameWnd@@UAE@XZ       5f41623a f
 0001:000152b7       ?RemoveFrameWnd@CFrameWnd@@IAEXXZ 5f4162b7 f
 0001:000152d8       ??1COleLinkingDoc@@UAE@XZ  5f4162d8 f
 0001:00015330       ?DisconnectViews@CDocument@@QAEXXZ 5f416330 f
 0001:0001533f       ??1COleDocument@@UAE@XZ    5f41633f f
 0001:000153ac       ?AfxOleUnlockApp@@YGXXZ    5f4163ac f
 0001:000153c3       ?AfxOleOnReleaseAllObjects@@YGXXZ 5f4163c3 f
 0001:000153d3       ??1CObList@@UAE@XZ         5f4163d3 f
 0001:00015406       ??1CDocument@@UAE@XZ       5f416406 f
 0001:00015472       ?RemoveDocument@CDocTemplate@@UAEXPAVCDocument@@@Z 5f416472 f
 0001:0001547d       ?DestroyWindow@CControlBar@@UAEHXZ 5f41647d f
 0001:0001549d       ?IsFloating@CControlBar@@QBEHXZ 5f41649d f
 0001:000154b5       ?OnDestroy@CControlBar@@QAEXXZ 5f4164b5 f
 0001:000154e3       ?RemoveControlBar@CFrameWnd@@QAEXPAVCControlBar@@@Z 5f4164e3 f
 0001:00015504       ?PostNcDestroy@CControlBar@@UAEXXZ 5f416504 f
 0001:00015516       ??_GCDockBar@@UAEPAXI@Z    5f416516 f
 0001:00015516       ??_ECDockBar@@UAEPAXI@Z    5f416516 f
 0001:00015532       ??1CDockBar@@UAE@XZ        5f416532 f
 0001:000155a3       ??1CControlBar@@UAE@XZ     5f4165a3 f
 0001:00015625       ??1CToolBar@@UAE@XZ        5f416625 f
 0001:00015676       ??1CDockContext@@QAE@XZ    5f416676 f
 0001:0001568b       ??1CStatusBar@@UAE@XZ      5f41668b f
 0001:000156c6       ?WriteList@CRecentFileList@@UAEXXZ 5f4166c6 f
 0001:00015748       ?WriteProfileStringA@CWinApp@@QAEHPBD00@Z 5f416748 f
 0001:000157dc       ?OnUpdateFileExit@COleServerDoc@@IAEXPAVCCmdUI@@@Z 5f4167dc f
 0001:000157ed       ?UpdateUsingHostObj@COleServerDoc@@IAEXIPAVCCmdUI@@@Z 5f4167ed f
 0001:00015817       ?OnCloseDocument@COleServerDoc@@UAEXXZ 5f416817 f
 0001:000158a9       ?NotifyAllItems@COleServerDoc@@IAEXW4OLE_NOTIFICATION@@K@Z 5f4168a9 f
 0001:000158d3       ??1COleServerDoc@@UAE@XZ   5f4168d3 f
 0001:000159b7       ??1CWinApp@@UAE@XZ         5f4169b7 f
 0001:00015ad9       ??1COleObjectFactory@@UAE@XZ 5f416ad9 f
 0001:00015b40       ??_GCDynLinkLibrary@@UAEPAXI@Z 5f416b40 f
 0001:00015b40       ??_ECDynLinkLibrary@@UAEPAXI@Z 5f416b40 f
 0001:00015b5c       ??1CDynLinkLibrary@@UAE@XZ 5f416b5c f
 0001:00015bac       ?AfxTermExtensionModule@@YGXAAUAFX_EXTENSION_MODULE@@H@Z 5f416bac f
 0001:00015bee       ?AfxTermLocalData@@YGXPAUHINSTANCE__@@H@Z 5f416bee f
 0001:00015c08       ?AfxResetMsgCache@@YGXXZ   5f416c08 f
 0001:00015c5e       ??1CThreadLocalObject@@QAE@XZ 5f416c5e f
 0001:00015c81       ??1CProcessLocalObject@@QAE@XZ 5f416c81 f
 0001:00015cad       ??1AUX_DATA@@QAE@XZ        5f416cad f
 0001:00015cb7       ?AfxWingdixTerm@@YAXXZ     5f416cb7 f
 0001:00015cc7       ??1CUserException@@UAE@XZ  5f416cc7 f
 0001:00015cd4       ??1CMemoryException@@UAE@XZ 5f416cd4 f
 0001:00015cda       ??1CSimpleException@@UAE@XZ 5f416cda f
 0001:00015ce6       ??1CResourceException@@UAE@XZ 5f416ce6 f
 0001:00015cf5       ?AfxTrackerTerm@@YAXXZ     5f416cf5 f
 0001:00015d0a       ?_AfxWinminiTerm@@YAXXZ    5f416d0a f
 0001:00015d7e       ??1CNotSupportedException@@UAE@XZ 5f416d7e f
 0001:00015d8e       ??1AFX_MODULE_STATE@@UAE@XZ 5f416d8e f
 0001:00015dec       ?FreeSlot@CThreadSlotData@@QAEXH@Z 5f416dec f
 0001:00015e5d       ??_G_AFX_OLE_STATE@@UAEPAXI@Z 5f416e5d f
 0001:00015e5d       ??_E_AFX_OLE_STATE@@UAEPAXI@Z 5f416e5d f
 0001:00015e78       ??1_AFX_OLE_STATE@@UAE@XZ  5f416e78 f
 0001:00015e93       ??_G_AFX_CTL3D_STATE@@UAEPAXI@Z 5f416e93 f
 0001:00015e93       ??_E_AFX_CTL3D_STATE@@UAEPAXI@Z 5f416e93 f
 0001:00015eae       ??1_AFX_CTL3D_STATE@@UAE@XZ 5f416eae f
 0001:00015f37       ??1CSessionMapPtrToPtr@@UAE@XZ 5f416f37 f
 0001:00015f86       ??1CSyncObject@@UAE@XZ     5f416f86 f
 0001:00015fc2       ??1CFixedAlloc@@QAE@XZ     5f416fc2 f
 0001:00015fd6       ?FreeAll@CFixedAlloc@@QAEXXZ 5f416fd6 f
 0001:0001607a       ??_G_AFX_BASE_MODULE_STATE@@UAEPAXI@Z 5f41707a f
 0001:0001607a       ??_E_AFX_BASE_MODULE_STATE@@UAEPAXI@Z 5f41707a f
 0001:000160bd       ?AfxCriticalTerm@@YGXXZ    5f4170bd f
 0001:0001610d       ?AfxTlsRelease@@YGXXZ      5f41710d f
 0001:00016135       ??1CThreadSlotData@@QAE@XZ 5f417135 f
 0001:0001618c       ??_ECDocManager@@UAEPAXI@Z 5f41718c f
 0001:000161b7       ??1CDocManager@@UAE@XZ     5f4171b7 f
 0001:0001622a       ??1CSingleDocTemplate@@UAE@XZ 5f41722a f
 0001:00016230       ??1CDocTemplate@@UAE@XZ    5f417230 f
 0001:00016291       ??_GCRecentFileList@@UAEPAXI@Z 5f417291 f
 0001:00016291       ??_ECRecentFileList@@UAEPAXI@Z 5f417291 f
 0001:000162ad       ??1CRecentFileList@@UAE@XZ 5f4172ad f
 0001:0001630a       ??_ECString@@QAEPAXI@Z     5f41730a f
 0001:00016342       ??_M@YGXPAXIHP6EX0@Z@Z     5f417342 f
 0001:000163b5       ??_E_AFX_WIN_STATE@@UAEPAXI@Z 5f4173b5 f
 0001:000163b5       ??_G_AFX_WIN_STATE@@UAEPAXI@Z 5f4173b5 f
 0001:000163d0       ??1_AFX_WIN_STATE@@UAE@XZ  5f4173d0 f
 0001:000163fd       ??1CDockState@@UAE@XZ      5f4173fd f
 0001:00016466       ?AfxGlobalFree@@YGXPAX@Z   5f417466 f
 0001:00016491       ??_E_AFX_RICHEDIT_STATE@@UAEPAXI@Z 5f417491 f
 0001:00016491       ??_G_AFX_RICHEDIT_STATE@@UAEPAXI@Z 5f417491 f
 0001:000164ac       ??1_AFX_RICHEDIT_STATE@@UAE@XZ 5f4174ac f
 0001:000164cc       ??1_AFX_EDIT_STATE@@UAE@XZ 5f4174cc f
 0001:0001650b       __alloca_probe             5f41750b  
 0001:0001650b       __chkstk                   5f41750b  
 0001:0001653c       ??_GCObject@@UAEPAXI@Z     5f41753c f
 0001:0001653c       ??_ECObject@@UAEPAXI@Z     5f41753c f
 0001:00016559       ?Dump@CObject@@UBEXAAVCDumpContext@@@Z 5f417559 f
 0001:0001655c       ??_ECMemoryException@@UAEPAXI@Z 5f41755c f
 0001:0001655c       ??_GCMemoryException@@UAEPAXI@Z 5f41755c f
 0001:00016578       ??_ECNotSupportedException@@UAEPAXI@Z 5f417578 f
 0001:00016578       ??_GCNotSupportedException@@UAEPAXI@Z 5f417578 f
 0001:00016594       ??6CArchive@@QAEAAV0@E@Z   5f417594 f
 0001:000165c1       ??5CArchive@@QAEAAV0@AAE@Z 5f4175c1 f
 0001:00016601       ??3CObject@@SGXPAX@Z       5f417601 f
 0001:0001660e       ??_GCArchiveException@@UAEPAXI@Z 5f41760e f
 0001:0001660e       ??_ECArchiveException@@UAEPAXI@Z 5f41760e f
 0001:0001662a       ??1CArchiveException@@UAE@XZ 5f41762a f
 0001:00016660       ??_ECFileException@@UAEPAXI@Z 5f417660 f
 0001:00016660       ??_GCFileException@@UAEPAXI@Z 5f417660 f
 0001:0001667c       ?SetFilePath@CFile@@UAEXPBD@Z 5f41767c f
 0001:0001668b       ?GetAt@CStringArray@@QBE?AVCString@@H@Z 5f41768b f
 0001:000166c7       ??_ECSyncObject@@UAEPAXI@Z 5f4176c7 f
 0001:000166c7       ??_GCSyncObject@@UAEPAXI@Z 5f4176c7 f
 0001:000166f3       ?Lock@CSyncObject@@UAEHK@Z 5f4176f3 f
 0001:00016708       ?Unlock@CSyncObject@@UAEHJPAJ@Z 5f417708 f
 0001:0001670e       ??0CSemaphore@@QAE@JJPBDPAU_SECURITY_ATTRIBUTES@@@Z 5f41770e f
 0001:00016760       ??1CSemaphore@@UAE@XZ      5f417760 f
 0001:0001676b       ?Unlock@CSemaphore@@UAEHJPAJ@Z 5f41776b f
 0001:0001677f       ??0CMutex@@QAE@HPBDPAU_SECURITY_ATTRIBUTES@@@Z 5f41777f f
 0001:000167ce       ??1CMutex@@UAE@XZ          5f4177ce f
 0001:000167d9       ?Unlock@CMutex@@UAEHXZ     5f4177d9 f
 0001:000167e3       ??0CEvent@@QAE@HHPBDPAU_SECURITY_ATTRIBUTES@@@Z 5f4177e3 f
 0001:00016835       ??1CEvent@@UAE@XZ          5f417835 f
 0001:00016840       ?Unlock@CEvent@@UAEHXZ     5f417840 f
 0001:00016844       ??0CSingleLock@@QAE@PAVCSyncObject@@H@Z 5f417844 f
 0001:0001686b       ?Lock@CSingleLock@@QAEHK@Z 5f41786b f
 0001:00016880       ?Unlock@CSingleLock@@QAEHXZ 5f417880 f
 0001:000168a2       ?Unlock@CSingleLock@@QAEHJPAJ@Z 5f4178a2 f
 0001:000168ce       ??0CMultiLock@@QAE@QAPAVCSyncObject@@KH@Z 5f4178ce f
 0001:00016946       ??1CMultiLock@@QAE@XZ      5f417946 f
 0001:00016967       ?Lock@CMultiLock@@QAEKKHK@Z 5f417967 f
 0001:000169d0       ?Unlock@CMultiLock@@QAEHXZ 5f4179d0 f
 0001:00016a06       ?Unlock@CMultiLock@@QAEHJPAJ@Z 5f417a06 f
 0001:00016a50       ?Unlock@CSemaphore@@UAEHXZ 5f417a50 f
 0001:00016a8f       _xMonitorFromRect@8        5f417a8f f
 0001:00016bb0       ?BeginModalState@CWnd@@UAEXXZ 5f417bb0 f
 0001:00016bbc       ?EndModalState@CWnd@@UAEXXZ 5f417bbc f
 0001:00016bcb       ?GetTitle@CFrameWnd@@QBE?AVCString@@XZ 5f417bcb f
 0001:00016be9       ?MDIActivate@CMDIChildWnd@@QAEXXZ 5f417be9 f
 0001:00016c10       ??0CPoint@@QAE@K@Z         5f417c10 f
 0001:00016c27       ?OnCancelMode@CWnd@@IAEXXZ 5f417c27 f
 0001:00016c2c       ?PtVisible@CDC@@UBEHHH@Z   5f417c2c f
 0001:00016c40       ?GrayStringA@CDC@@UAEHPAVCBrush@@P6GHPAUHDC__@@JH@ZJHHHHH@Z 5f417c40 f
 0001:00016c70       ?GetCurSel@CListBox@@QBEHXZ 5f417c70 f
 0001:00016c83       ?LoadBitmapA@CBitmap@@QAEHI@Z 5f417c83 f
 0001:00016ca7       ?GetFont@CWnd@@QBEPAVCFont@@XZ 5f417ca7 f
 0001:00016cbd       ?GetTabControl@CPropertySheet@@QBEPAVCTabCtrl@@XZ 5f417cbd f
 0001:00016cd6       ??_GCCommonDialog@@UAEPAXI@Z 5f417cd6 f
 0001:00016cd6       ??_ECCommonDialog@@UAEPAXI@Z 5f417cd6 f
 0001:00016cf2       ??1CCommonDialog@@UAE@XZ   5f417cf2 f
 0001:00016cf7       ?GetFaceName@CFontDialog@@QBE?AVCString@@XZ 5f417cf7 f
 0001:00016d15       ??_GCComboBoxEx@@UAEPAXI@Z 5f417d15 f
 0001:00016d15       ??_ECComboBoxEx@@UAEPAXI@Z 5f417d15 f
 0001:00016d31       ??_GCIPAddressCtrl@@UAEPAXI@Z 5f417d31 f
 0001:00016d31       ??_ECIPAddressCtrl@@UAEPAXI@Z 5f417d31 f
 0001:00016d4d       ??_GCResourceException@@UAEPAXI@Z 5f417d4d f
 0001:00016d4d       ??_ECResourceException@@UAEPAXI@Z 5f417d4d f
 0001:00016d69       ??_ECUserException@@UAEPAXI@Z 5f417d69 f
 0001:00016d69       ??_GCUserException@@UAEPAXI@Z 5f417d69 f
 0001:00016d85       ?TextOutA@CDC@@UAEHHHPBDH@Z 5f417d85 f
 0001:00016da1       ?TabbedTextOutA@CDC@@UAE?AVCSize@@HHPBDHHPAHH@Z 5f417da1 f
 0001:00016dd9       ?DrawTextA@CDC@@UAEHPBDHPAUtagRECT@@I@Z 5f417dd9 f
 0001:00016df5       ?Escape@CDC@@UAEHHHPBDPAX@Z 5f417df5 f
 0001:00016e11       ??0CGdiObject@@QAE@XZ      5f417e11 f
 0001:00016e1e       ??1CMenu@@UAE@XZ           5f417e1e f
 0001:00016e51       ?IsModified@CDocument@@UAEHXZ 5f417e51 f
 0001:00016e55       ?SetModifiedFlag@CDocument@@UAEXH@Z 5f417e55 f
 0001:00016e5f       ?GetReplaceString@CFindReplaceDialog@@QBE?AVCString@@XZ 5f417e5f f
 0001:00016e79       ?GetFindString@CFindReplaceDialog@@QBE?AVCString@@XZ 5f417e79 f
 0001:00016e93       ??1CListView@@UAE@XZ       5f417e93 f
 0001:00016ec8       ??1CTreeView@@UAE@XZ       5f417ec8 f
 0001:00016f0a       ??1CCriticalSection@@UAE@XZ 5f417f0a f
 0001:00016f26       ?Lock@CCriticalSection@@UAEHK@Z 5f417f26 f
 0001:00016f36       ?Unlock@CCriticalSection@@UAEHXZ 5f417f36 f
 0001:00016f44       ?GetServerName@CInternetConnection@@QBE?AVCString@@XZ 5f417f44 f
 0001:00016f5f       ??0CGopherLocator@@QAE@ABV0@@Z 5f417f5f f
 0001:00016fb7       ??_ECGopherLocator@@UAEPAXI@Z 5f417fb7 f
 0001:00016fb7       ??_GCGopherLocator@@UAEPAXI@Z 5f417fb7 f
 0001:00016fd3       ??0CFileFind@@QAE@XZ       5f417fd3 f
 0001:0001701b       ?Close@CFileFind@@QAEXXZ   5f41801b f
 0001:0001705b       ?CloseContext@CFileFind@@MAEXXZ 5f41805b f
 0001:00017065       ?FindFile@CFileFind@@UAEHPBDK@Z 5f418065 f
 0001:00017146       ?MatchesMask@CFileFind@@UBEHK@Z 5f418146 f
 0001:00017160       ?GetLastAccessTime@CFileFind@@UBEHPAU_FILETIME@@@Z 5f418160 f
 0001:00017184       ?GetLastWriteTime@CFileFind@@UBEHPAU_FILETIME@@@Z 5f418184 f
 0001:000171a8       ?GetCreationTime@CFileFind@@UBEHPAU_FILETIME@@@Z 5f4181a8 f
 0001:000171cc       ?GetLastAccessTime@CFileFind@@UBEHAAVCTime@@@Z 5f4181cc f
 0001:000171f7       ?GetLastWriteTime@CFileFind@@UBEHAAVCTime@@@Z 5f4181f7 f
 0001:00017222       ?GetCreationTime@CFileFind@@UBEHAAVCTime@@@Z 5f418222 f
 0001:0001724d       ?IsDots@CFileFind@@UBEHXZ  5f41824d f
 0001:00017286       ?FindNextFileA@CFileFind@@UAEHXZ 5f418286 f
 0001:000172c1       ?GetFileURL@CFileFind@@UBE?AVCString@@XZ 5f4182c1 f
 0001:0001733a       ?GetRoot@CFileFind@@UBE?AVCString@@XZ 5f41833a f
 0001:00017355       ?GetFilePath@CFileFind@@UBE?AVCString@@XZ 5f418355 f
 0001:000173ed       ?GetFileTitle@CFileFind@@UBE?AVCString@@XZ 5f4183ed f
 0001:0001747f       ?GetFileName@CFileFind@@UBE?AVCString@@XZ 5f41847f f
 0001:000174e2       ?GetLength@CFileFind@@QBEKXZ 5f4184e2 f
 0001:000174f0       ?GetLength64@CFileFind@@QBE_JXZ 5f4184f0 f
 0001:00017501       ??6CHttpServerContext@@QAEAAV0@ABVCLongBinary@@@Z 5f418501 f
 0001:0001751a       ??6CHttpServerContext@@QAEAAV0@ABVCByteArray@@@Z 5f41851a f
 0001:00017533       ??6CHtmlStream@@QAEAAV0@ABVCByteArray@@@Z 5f418533 f
 0001:00017557       ??6CHtmlStream@@QAEAAV0@ABVCLongBinary@@@Z 5f418557 f
 0001:00017592       ??1COleDataObject@@QAE@XZ  5f418592 f
 0001:00017597       ?AfxCheckError@@YGXJ@Z     5f418597 f
 0001:000175b6       ?_AfxCompareSafeArrays@@YGHPAUtagSAFEARRAY@@0@Z 5f4185b6 f
 0001:00017825       ?_AfxCreateOneDimArray@@YGXAAUtagVARIANT@@K@Z 5f418825 f
 0001:000178d1       ?_AfxCopyBinaryData@@YGXPAUtagSAFEARRAY@@PBXK@Z 5f4188d1 f
 0001:0001790c       ??0COleVariant@@QAE@ABV0@@Z 5f41890c f
 0001:0001792c       ??0COleVariant@@QAE@PBDG@Z 5f41892c f
 0001:000179a7       ?SetString@COleVariant@@QAEXPBDG@Z 5f4189a7 f
 0001:00017a27       ??0COleVariant@@QAE@FG@Z   5f418a27 f
 0001:00017a5d       ??0COleVariant@@QAE@JG@Z   5f418a5d f
 0001:00017a9f       ?_ClearCompat@COleVariant@@QAEXXZ 5f418a9f f
 0001:00017aa7       ?ChangeType@COleVariant@@QAEXGPAUtagVARIANT@@@Z 5f418aa7 f
 0001:00017ad2       ?Detach@COleVariant@@QAE?AUtagVARIANT@@XZ 5f418ad2 f
 0001:00017af9       ??8COleVariant@@QBEHABUtagVARIANT@@@Z 5f418af9 f
 0001:00017c1c       ??4COleVariant@@QAEABV0@PBUtagVARIANT@@@Z 5f418c1c f
 0001:00017c36       ??4COleVariant@@QAEABV0@QBD@Z 5f418c36 f
 0001:00017ca4       ??4COleVariant@@QAEABV0@ABVCString@@@Z 5f418ca4 f
 0001:00017d16       ??4COleVariant@@QAEABV0@E@Z 5f418d16 f
 0001:00017d38       ??4COleVariant@@QAEABV0@F@Z 5f418d38 f
 0001:00017d7b       ??4COleVariant@@QAEABV0@J@Z 5f418d7b f
 0001:00017dc1       ??4COleVariant@@QAEABV0@ABVCOleCurrency@@@Z 5f418dc1 f
 0001:00017deb       ??4COleVariant@@QAEABV0@M@Z 5f418deb f
 0001:00017e0d       ??4COleVariant@@QAEABV0@N@Z 5f418e0d f
 0001:00017e2f       ??4COleVariant@@QAEABV0@ABVCOleDateTime@@@Z 5f418e2f f
 0001:00017e53       ??4COleVariant@@QAEABV0@ABVCByteArray@@@Z 5f418e53 f
 0001:00017e7a       ??4COleVariant@@QAEABV0@ABVCLongBinary@@@Z 5f418e7a f
 0001:00017eb0       ??6@YGAAVCArchive@@AAV0@VCOleVariant@@@Z 5f418eb0 f
 0001:0001807b       ??5@YGAAVCArchive@@AAV0@AAVCOleVariant@@@Z 5f41907b f
 0001:000182af       ?ConstructElements@@YGXPAVCOleVariant@@H@Z 5f4192af f
 0001:000182da       ?DestructElements@@YGXPAVCOleVariant@@H@Z 5f4192da f
 0001:000182ff       ?CopyElements@@YGXPAVCOleVariant@@PBV1@H@Z 5f4192ff f
 0001:0001832b       ?SerializeElements@@YGXAAVCArchive@@PAVCOleVariant@@H@Z 5f41932b f
 0001:00018386       ?HashKey@@YGIABUtagVARIANT@@@Z 5f419386 f
 0001:0001840e       ??0COleCurrency@@QAE@JJ@Z  5f41940e f
 0001:00018428       ??4COleCurrency@@QAEABV0@TtagCY@@@Z 5f419428 f
 0001:0001843e       ??4COleCurrency@@QAEABV0@ABV0@@Z 5f41943e f
 0001:00018457       ??4COleCurrency@@QAEABV0@ABUtagVARIANT@@@Z 5f419457 f
 0001:000184f5       ??MCOleCurrency@@QBEHABV0@@Z 5f4194f5 f
 0001:0001851b       ??OCOleCurrency@@QBEHABV0@@Z 5f41951b f
 0001:00018541       ??NCOleCurrency@@QBEHABV0@@Z 5f419541 f
 0001:00018566       ??PCOleCurrency@@QBEHABV0@@Z 5f419566 f
 0001:0001858b       ??HCOleCurrency@@QBE?AV0@ABV0@@Z 5f41958b f
 0001:00018617       ??GCOleCurrency@@QBE?AV0@ABV0@@Z 5f419617 f
 0001:000186a2       ??GCOleCurrency@@QBE?AV0@XZ 5f4196a2 f
 0001:000186ec       ??DCOleCurrency@@QBE?AV0@J@Z 5f4196ec f
 0001:000188c6       ??KCOleCurrency@@QBE?AV0@J@Z 5f4198c6 f
 0001:00018b2f       ?SetCurrency@COleCurrency@@QAEXJJ@Z 5f419b2f f
 0001:00018bd5       ?ParseCurrency@COleCurrency@@QAEHPBDKK@Z 5f419bd5 f
 0001:00018ca9       ?Format@COleCurrency@@QBE?AVCString@@KK@Z 5f419ca9 f
 0001:00018daf       ??6@YGAAVCArchive@@AAV0@VCOleCurrency@@@Z 5f419daf f
 0001:00018dd7       ??5@YGAAVCArchive@@AAV0@AAVCOleCurrency@@@Z 5f419dd7 f
 0001:00018e04       ?_AfxOleDateFromTm@@YGHGGGGGGAAN@Z 5f419e04 f
 0001:00018f53       ?_AfxTmFromOleDate@@YGHNAAUtm@@@Z 5f419f53 f
 0001:00019152       ??6CArchive@@QAEAAV0@N@Z   5f41a152 f
 0001:0001917f       ?_AfxTmConvertToStandardFormat@@YGXAAUtm@@@Z 5f41a17f f
 0001:00019196       ?_AfxDoubleFromDate@@YGNN@Z 5f41a196 f
 0001:000191bd       ?_AfxDateFromDouble@@YGNN@Z 5f41a1bd f
 0001:000191e4       ?GetTickCount@COleDateTime@@SG?AV1@XZ 5f41a1e4 f
 0001:00019207       ?GetAsSystemTime@COleDateTime@@QBEHAAU_SYSTEMTIME@@@Z 5f41a207 f
 0001:00019271       ??5CArchive@@QAEAAV0@AAN@Z 5f41a271 f
 0001:000192a9       ?GetYear@COleDateTime@@QBEHXZ 5f41a2a9 f
 0001:000192d3       ?GetMonth@COleDateTime@@QBEHXZ 5f41a2d3 f
 0001:000192fd       ?GetDay@COleDateTime@@QBEHXZ 5f41a2fd f
 0001:00019327       ?GetHour@COleDateTime@@QBEHXZ 5f41a327 f
 0001:00019351       ?GetMinute@COleDateTime@@QBEHXZ 5f41a351 f
 0001:0001937b       ?GetSecond@COleDateTime@@QBEHXZ 5f41a37b f
 0001:000193a5       ?GetDayOfWeek@COleDateTime@@QBEHXZ 5f41a3a5 f
 0001:000193cf       ?GetDayOfYear@COleDateTime@@QBEHXZ 5f41a3cf f
 0001:000193f9       ??4COleDateTime@@QAEABV0@ABUtagVARIANT@@@Z 5f41a3f9 f
 0001:00019488       ??4COleDateTime@@QAEABV0@N@Z 5f41a488 f
 0001:00019497       ??4COleDateTime@@QAEABV0@ABJ@Z 5f41a497 f
 0001:000194e9       ??4COleDateTime@@QAEABV0@ABU_SYSTEMTIME@@@Z 5f41a4e9 f
 0001:00019521       ??4COleDateTime@@QAEABV0@ABU_FILETIME@@@Z 5f41a521 f
 0001:00019583       ??MCOleDateTime@@QBEHABV0@@Z 5f41a583 f
 0001:000195b9       ??OCOleDateTime@@QBEHABV0@@Z 5f41a5b9 f
 0001:000195ef       ??NCOleDateTime@@QBEHABV0@@Z 5f41a5ef f
 0001:00019625       ??PCOleDateTime@@QBEHABV0@@Z 5f41a625 f
 0001:0001965b       ??HCOleDateTime@@QBE?AV0@ABVCOleDateTimeSpan@@@Z 5f41a65b f
 0001:000196d8       ??GCOleDateTime@@QBE?AV0@ABVCOleDateTimeSpan@@@Z 5f41a6d8 f
 0001:00019755       ??GCOleDateTime@@QBE?AVCOleDateTimeSpan@@ABV0@@Z 5f41a755 f
 0001:000197b4       ?SetDateTime@COleDateTime@@QAEHHHHHHH@Z 5f41a7b4 f
 0001:000197df       ?ParseDateTime@COleDateTime@@QAEHPBDKK@Z 5f41a7df f
 0001:000198a9       ?Format@COleDateTime@@QBE?AVCString@@KK@Z 5f41a8a9 f
 0001:000199b1       ?Format@COleDateTime@@QBE?AVCString@@PBD@Z 5f41a9b1 f
 0001:00019a7a       ?Format@COleDateTime@@QBE?AVCString@@I@Z 5f41aa7a f
 0001:00019ad6       ?CheckRange@COleDateTime@@IAEXXZ 5f41aad6 f
 0001:00019af8       ??6@YGAAVCArchive@@AAV0@VCOleDateTime@@@Z 5f41aaf8 f
 0001:00019b1a       ??5@YGAAVCArchive@@AAV0@AAVCOleDateTime@@@Z 5f41ab1a f
 0001:00019b3a       ?GetHours@COleDateTimeSpan@@QBEJXZ 5f41ab3a f
 0001:00019b6d       ?GetMinutes@COleDateTimeSpan@@QBEJXZ 5f41ab6d f
 0001:00019ba6       ?GetSeconds@COleDateTimeSpan@@QBEJXZ 5f41aba6 f
 0001:00019bdf       ??4COleDateTimeSpan@@QAEABV0@ABV0@@Z 5f41abdf f
 0001:00019bf2       ??HCOleDateTimeSpan@@QBE?AV0@ABV0@@Z 5f41abf2 f
 0001:00019c51       ??GCOleDateTimeSpan@@QBE?AV0@ABV0@@Z 5f41ac51 f
 0001:00019cb0       ?SetDateTimeSpan@COleDateTimeSpan@@QAEXJHHH@Z 5f41acb0 f
 0001:00019cdf       ?Format@COleDateTimeSpan@@QBE?AVCString@@PBD@Z 5f41acdf f
 0001:00019ea8       ?Format@COleDateTimeSpan@@QBE?AVCString@@I@Z 5f41aea8 f
 0001:00019f04       ?CheckRange@COleDateTimeSpan@@QAEXXZ 5f41af04 f
 0001:00019f26       ??0COleSafeArray@@QAE@ABUtagSAFEARRAY@@G@Z 5f41af26 f
 0001:00019f6b       ??0COleSafeArray@@QAE@PBUtagVARIANT@@@Z 5f41af6b f
 0001:00019f9d       ?Attach@COleSafeArray@@QAEXAAUtagVARIANT@@@Z 5f41af9d f
 0001:00019fc1       ??8COleSafeArray@@QBEHPBUtagSAFEARRAY@@@Z 5f41afc1 f
 0001:00019fd0       ??8COleSafeArray@@QBEHPBUtagVARIANT@@@Z 5f41afd0 f
 0001:00019fee       ?CreateOneDim@COleSafeArray@@QAEXGKPBXJ@Z 5f41afee f
 0001:0001a04a       ?GetOneDimSize@COleSafeArray@@QAEKXZ 5f41b04a f
 0001:0001a074       ?ResizeOneDim@COleSafeArray@@QAEXK@Z 5f41b074 f
 0001:0001a090       ?Create@COleSafeArray@@QAEXGKPAK@Z 5f41b090 f
 0001:0001a113       ?Create@COleSafeArray@@QAEXGKPAUtagSAFEARRAYBOUND@@@Z 5f41b113 f
 0001:0001a15d       ?AccessData@COleSafeArray@@QAEXPAPAX@Z 5f41b15d f
 0001:0001a173       ?UnaccessData@COleSafeArray@@QAEXXZ 5f41b173 f
 0001:0001a183       ?AllocData@COleSafeArray@@QAEXXZ 5f41b183 f
 0001:0001a193       ?AllocDescriptor@COleSafeArray@@QAEXK@Z 5f41b193 f
 0001:0001a1aa       ?Copy@COleSafeArray@@QAEXPAPAUtagSAFEARRAY@@@Z 5f41b1aa f
 0001:0001a1c0       ?GetLBound@COleSafeArray@@QAEXKPAJ@Z 5f41b1c0 f
 0001:0001a1da       ?GetUBound@COleSafeArray@@QAEXKPAJ@Z 5f41b1da f
 0001:0001a1f4       ?GetElement@COleSafeArray@@QAEXPAJPAX@Z 5f41b1f4 f
 0001:0001a20e       ?PtrOfIndex@COleSafeArray@@QAEXPAJPAPAX@Z 5f41b20e f
 0001:0001a228       ?PutElement@COleSafeArray@@QAEXPAJPAX@Z 5f41b228 f
 0001:0001a242       ?Redim@COleSafeArray@@QAEXPAUtagSAFEARRAYBOUND@@@Z 5f41b242 f
 0001:0001a258       ?Lock@COleSafeArray@@QAEXXZ 5f41b258 f
 0001:0001a268       ?Unlock@COleSafeArray@@QAEXXZ 5f41b268 f
 0001:0001a278       ?Destroy@COleSafeArray@@QAEXXZ 5f41b278 f
 0001:0001a288       ?DestroyData@COleSafeArray@@QAEXXZ 5f41b288 f
 0001:0001a298       ?DestroyDescriptor@COleSafeArray@@QAEXXZ 5f41b298 f
 0001:0001a2a8       ?AfxSafeArrayInit@@YGXPAVCOleSafeArray@@@Z 5f41b2a8 f
 0001:0001a2bb       ?DDX_Text@@YGXPAVCDataExchange@@HAAVCOleDateTime@@@Z 5f41b2bb f
 0001:0001a382       ?DDX_Text@@YGXPAVCDataExchange@@HAAVCOleCurrency@@@Z 5f41b382 f
 0001:0001a449       ??0COleVariant@@QAE@PBU_ITEMIDLIST@@@Z 5f41b449 f
 0001:0001a4ae       ??_9@$BBAI@AE              5f41b4ae f
 0001:0001a4b6       ?AtlDevModeA2W@@YAPAU_devicemodeW@@PAU1@PAU_devicemodeA@@@Z 5f41b4b6 f
 0001:0001a547       ?AtlDevModeW2A@@YGPAU_devicemodeA@@PAU1@PAU_devicemodeW@@@Z 5f41b547 f
 0001:0001a5e1       ??_GCOleException@@UAEPAXI@Z 5f41b5e1 f
 0001:0001a5e1       ??_ECOleException@@UAEPAXI@Z 5f41b5e1 f
 0001:0001a5fd       ?_GetBaseInterfaceMap@CEnumOleVerb@@KGPBUAFX_INTERFACEMAP@@XZ 5f41b5fd f
 0001:0001a603       ?GetInterfaceMap@CEnumOleVerb@@MBEPBUAFX_INTERFACEMAP@@XZ 5f41b603 f
 0001:0001a609       ??1CEnumOleVerb@@UAE@XZ    5f41b609 f
 0001:0001a642       ??_ECEnumOleVerb@@UAEPAXI@Z 5f41b642 f
 0001:0001a642       ??_GCEnumOleVerb@@UAEPAXI@Z 5f41b642 f
 0001:0001a65e       ?OnNext@CEnumOleVerb@@MAEHPAX@Z 5f41b65e f
 0001:0001a68d       ?EnumOleVerbs@CCmdTarget@@QAEHPAPAUIEnumOLEVERB@@@Z 5f41b68d f
 0001:0001a7fb       ?DoOleVerb@CCmdTarget@@QAEHJPAUtagMSG@@PAUHWND__@@PBUtagRECT@@@Z 5f41b7fb f
 0001:0001a8d5       ?OnSize@CWnd@@IAEXIHH@Z    5f41b8d5 f
 0001:0001a8dd       ?GetPrintRect@CRichEditView@@QBE?AVCRect@@XZ 5f41b8dd f
 0001:0001a90e       ?GetPageRect@CRichEditView@@QBE?AVCRect@@XZ 5f41b90e f
 0001:0001a92e       ?EnableTypeLib@CCmdTarget@@QAEXXZ 5f41b92e f
 0001:0001a953       ?GetTypeInfoOfGuid@CCmdTarget@@QAEJKABU_GUID@@PAPAUITypeInfo@@@Z 5f41b953 f
 0001:0001aab7       ?AfxGetTypeLibCache@@YGPAVCTypeLibCache@@PBU_GUID@@@Z 5f41bab7 f
 0001:0001ab91       ??_ECTypeLibCacheMap@@UAEPAXI@Z 5f41bb91 f
 0001:0001ab91       ??_GCTypeLibCacheMap@@UAEPAXI@Z 5f41bb91 f
 0001:0001abad       ??1CTypeLibCacheMap@@UAE@XZ 5f41bbad f
 0001:0001abb2       ?Lock@CTypeLibCache@@QAEXXZ 5f41bbb2 f
 0001:0001abc7       ?Lookup@CTypeLibCache@@QAEHKPAPAUITypeLib@@@Z 5f41bbc7 f
 0001:0001abf8       ?Cache@CTypeLibCache@@QAEXKPAUITypeLib@@@Z 5f41bbf8 f
 0001:0001ac3b       ?LookupTypeInfo@CTypeLibCache@@QAEHKABU_GUID@@PAPAUITypeInfo@@@Z 5f41bc3b f
 0001:0001ac8c       ?CacheTypeInfo@CTypeLibCache@@QAEXKABU_GUID@@PAUITypeInfo@@@Z 5f41bc8c f
 0001:0001acc2       ??8@YAHABU_GUID@@0@Z       5f41bcc2 f
 0001:0001acda       ?AtlA2WHelper@@YGPAGPAGPBDH@Z 5f41bcda f
 0001:0001acfd       ?Create@CDateTimeCtrl@@QAEHKABUtagRECT@@PAVCWnd@@I@Z 5f41bcfd f
 0001:0001ad2e       ?GetRange@CDateTimeCtrl@@QBEKPAVCTime@@0@Z 5f41bd2e f
 0001:0001ada2       ?GetRange@CDateTimeCtrl@@QBEKPAVCOleDateTime@@0@Z 5f41bda2 f
 0001:0001ae2e       ?SetRange@CDateTimeCtrl@@QAEHPBVCTime@@0@Z 5f41be2e f
 0001:0001ae81       ?SetRange@CDateTimeCtrl@@QAEHPBVCOleDateTime@@0@Z 5f41be81 f
 0001:0001aee0       ?SetTime@CDateTimeCtrl@@QAEHPAU_SYSTEMTIME@@@Z 5f41bee0 f
 0001:0001aeff       ?SetTime@CDateTimeCtrl@@QAEHABVCOleDateTime@@@Z 5f41beff f
 0001:0001af3d       ?SetTime@CDateTimeCtrl@@QAEHPBVCTime@@@Z 5f41bf3d f
 0001:0001af79       ?GetTime@CDateTimeCtrl@@QBEHAAVCOleDateTime@@@Z 5f41bf79 f
 0001:0001afd2       ?GetTime@CDateTimeCtrl@@QBEKAAVCTime@@@Z 5f41bfd2 f
 0001:0001b00f       ??1CDateTimeCtrl@@UAE@XZ   5f41c00f f
 0001:0001b047       ?Create@CMonthCalCtrl@@QAEHKABUtagRECT@@PAVCWnd@@I@Z 5f41c047 f
 0001:0001b078       ?Create@CMonthCalCtrl@@QAEHKABUtagPOINT@@PAVCWnd@@I@Z 5f41c078 f
 0001:0001b0e6       ?SizeMinReq@CMonthCalCtrl@@QAEHH@Z 5f41c0e6 f
 0001:0001b13a       ?SetToday@CMonthCalCtrl@@QAEXABVCOleDateTime@@@Z 5f41c13a f
 0001:0001b183       ?SetToday@CMonthCalCtrl@@QAEXPBVCTime@@@Z 5f41c183 f
 0001:0001b1d0       ?SetCurSel@CMonthCalCtrl@@QAEHABVCOleDateTime@@@Z 5f41c1d0 f
 0001:0001b212       ?SetCurSel@CMonthCalCtrl@@QAEHABVCTime@@@Z 5f41c212 f
 0001:0001b24b       ?GetCurSel@CMonthCalCtrl@@QBEHAAVCOleDateTime@@@Z 5f41c24b f
 0001:0001b28d       ?GetToday@CMonthCalCtrl@@QBEHAAVCOleDateTime@@@Z 5f41c28d f
 0001:0001b2cf       ?GetCurSel@CMonthCalCtrl@@QBEHAAVCTime@@@Z 5f41c2cf f
 0001:0001b30c       ?GetToday@CMonthCalCtrl@@QBEHAAVCTime@@@Z 5f41c30c f
 0001:0001b349       ??1CMonthCalCtrl@@UAE@XZ   5f41c349 f
 0001:0001b381       ?GetFirstDayOfWeek@CMonthCalCtrl@@QBEHPAH@Z 5f41c381 f
 0001:0001b3a8       ?SetFirstDayOfWeek@CMonthCalCtrl@@QAEHHPAH@Z 5f41c3a8 f
 0001:0001b3cf       ?SetDayState@CMonthCalCtrl@@QAEHHPAK@Z 5f41c3cf f
 0001:0001b3e8       ?SetRange@CMonthCalCtrl@@QAEHPBVCOleDateTime@@0@Z 5f41c3e8 f
 0001:0001b447       ?SetRange@CMonthCalCtrl@@QAEHQAU_SYSTEMTIME@@0@Z 5f41c447 f
 0001:0001b49f       ?GetRange@CMonthCalCtrl@@QBEKPAVCOleDateTime@@0@Z 5f41c49f f
 0001:0001b51d       ?GetRange@CMonthCalCtrl@@QBEKPAU_SYSTEMTIME@@0@Z 5f41c51d f
 0001:0001b58d       ?SetRange@CMonthCalCtrl@@QAEHPBVCTime@@0@Z 5f41c58d f
 0001:0001b5e0       ?GetRange@CMonthCalCtrl@@QBEKPAVCTime@@0@Z 5f41c5e0 f
 0001:0001b654       ?GetMonthRange@CMonthCalCtrl@@QBEHAAVCOleDateTime@@0K@Z 5f41c654 f
 0001:0001b6bf       ?GetMonthRange@CMonthCalCtrl@@QBEHPAU_SYSTEMTIME@@0K@Z 5f41c6bf f
 0001:0001b703       ?GetMonthRange@CMonthCalCtrl@@QBEHAAVCTime@@0K@Z 5f41c703 f
 0001:0001b764       ?GetSelRange@CMonthCalCtrl@@QBEHPAU_SYSTEMTIME@@0@Z 5f41c764 f
 0001:0001b7ab       ?SetSelRange@CMonthCalCtrl@@QAEHQAU_SYSTEMTIME@@0@Z 5f41c7ab f
 0001:0001b7ec       ?SetSelRange@CMonthCalCtrl@@QAEHABVCOleDateTime@@0@Z 5f41c7ec f
 0001:0001b83a       ?GetSelRange@CMonthCalCtrl@@QBEHAAVCOleDateTime@@0@Z 5f41c83a f
 0001:0001b8a8       ?SetSelRange@CMonthCalCtrl@@QAEHABVCTime@@0@Z 5f41c8a8 f
 0001:0001b8f1       ?GetSelRange@CMonthCalCtrl@@QBEHAAVCTime@@0@Z 5f41c8f1 f
 0001:0001b955       ?DDX_DateTimeCtrl@@YGXPAVCDataExchange@@HAAVCOleDateTime@@@Z 5f41c955 f
 0001:0001b986       ?DDX_DateTimeCtrl@@YGXPAVCDataExchange@@HAAVCTime@@@Z 5f41c986 f
 0001:0001b9b7       ?DDX_MonthCalCtrl@@YGXPAVCDataExchange@@HAAVCOleDateTime@@@Z 5f41c9b7 f
 0001:0001b9e8       ?DDX_MonthCalCtrl@@YGXPAVCDataExchange@@HAAVCTime@@@Z 5f41c9e8 f
 0001:0001ba19       ?DDV_MinMaxDateTime@@YGXPAVCDataExchange@@AAVCTime@@PBV2@2@Z 5f41ca19 f
 0001:0001ba7d       ?DDV_MinMaxDateTime@@YGXPAVCDataExchange@@AAVCOleDateTime@@PBV2@2@Z 5f41ca7d f
 0001:0001bade       ?DDV_MinMaxMonth@@YGXPAVCDataExchange@@AAVCTime@@PBV2@2@Z 5f41cade f
 0001:0001bb42       ?DDV_MinMaxMonth@@YGXPAVCDataExchange@@AAVCOleDateTime@@PBV2@2@Z 5f41cb42 f
 0001:0001bb96       ??MCTime@@QBEHV0@@Z        5f41cb96 f
 0001:0001bba4       ??OCTime@@QBEHV0@@Z        5f41cba4 f
 0001:0001bbb2       ??_GCDateTimeCtrl@@UAEPAXI@Z 5f41cbb2 f
 0001:0001bbb2       ??_ECDateTimeCtrl@@UAEPAXI@Z 5f41cbb2 f
 0001:0001bbce       ??_ECMonthCalCtrl@@UAEPAXI@Z 5f41cbce f
 0001:0001bbce       ??_GCMonthCalCtrl@@UAEPAXI@Z 5f41cbce f
 0001:0001bbea       ?GetMessageMap@CHtmlView@@MBEPBUAFX_MSGMAP@@XZ 5f41cbea f
 0001:0001bbf0       ?_GetBaseEventSinkMap@CHtmlView@@KGPBUAFX_EVENTSINKMAP@@XZ 5f41cbf0 f
 0001:0001bbf6       ?GetEventSinkMap@CHtmlView@@MBEPBUAFX_EVENTSINKMAP@@XZ 5f41cbf6 f
 0001:0001bbfc       ??0CHtmlView@@IAE@XZ       5f41cbfc f
 0001:0001bc3f       ??_GCHtmlView@@UAEPAXI@Z   5f41cc3f f
 0001:0001bc3f       ??_ECHtmlView@@UAEPAXI@Z   5f41cc3f f
 0001:0001bc5b       ??1CHtmlView@@UAE@XZ       5f41cc5b f
 0001:0001bcb0       ?OnFilePrint@CHtmlView@@QAEXXZ 5f41ccb0 f
 0001:0001bd02       ?OnDestroy@CHtmlView@@IAEXXZ 5f41cd02 f
 0001:0001bd0f       ?OnSize@CHtmlView@@IAEXIHH@Z 5f41cd0f f
 0001:0001bd86       ?OnPaint@CHtmlView@@IAEXXZ 5f41cd86 f
 0001:0001bd8b       ?Create@CHtmlView@@UAEHPBD0KABUtagRECT@@PAVCWnd@@IPAUCCreateContext@@@Z 5f41cd8b f
 0001:0001be34       ?GetType@CHtmlView@@QBE?AVCString@@XZ 5f41ce34 f
 0001:0001be94       ?GetLeft@CHtmlView@@QBEJXZ 5f41ce94 f
 0001:0001bead       ?GetTop@CHtmlView@@QBEJXZ  5f41cead f
 0001:0001bec6       ?GetToolBar@CHtmlView@@QBEHXZ 5f41cec6 f
 0001:0001bee2       ?GetHeight@CHtmlView@@QBEJXZ 5f41cee2 f
 0001:0001befb       ?GetVisible@CHtmlView@@QBEHXZ 5f41cefb f
 0001:0001bf18       ?GetLocationName@CHtmlView@@QBE?AVCString@@XZ 5f41cf18 f
 0001:0001bf78       ?GetLocationURL@CHtmlView@@QBE?AVCString@@XZ 5f41cf78 f
 0001:0001bfd8       ?GetBusy@CHtmlView@@QBEHXZ 5f41cfd8 f
 0001:0001bff2       ?GetReadyState@CHtmlView@@QBE?AW4tagREADYSTATE@@XZ 5f41cff2 f
 0001:0001c00e       ?GetOffline@CHtmlView@@QBEHXZ 5f41d00e f
 0001:0001c02b       ?GetSilent@CHtmlView@@QBEHXZ 5f41d02b f
 0001:0001c048       ?GetApplication@CHtmlView@@QBEPAUIDispatch@@XZ 5f41d048 f
 0001:0001c061       ?GetParentBrowser@CHtmlView@@QBEPAUIDispatch@@XZ 5f41d061 f
 0001:0001c07a       ?GetContainer@CHtmlView@@QBEPAUIDispatch@@XZ 5f41d07a f
 0001:0001c093       ?GetHtmlDocument@CHtmlView@@QBEPAUIDispatch@@XZ 5f41d093 f
 0001:0001c0ac       ?GetTopLevelContainer@CHtmlView@@QBEHXZ 5f41d0ac f
 0001:0001c0c6       ?GetMenuBar@CHtmlView@@QBEHXZ 5f41d0c6 f
 0001:0001c0e3       ?GetFullScreen@CHtmlView@@QBEHXZ 5f41d0e3 f
 0001:0001c100       ?GetStatusBar@CHtmlView@@QBEHXZ 5f41d100 f
 0001:0001c11d       ?QueryStatusWB@CHtmlView@@QBE?AW4OLECMDF@@W4OLECMDID@@@Z 5f41d11d f
 0001:0001c13d       ?ExecWB@CHtmlView@@QAEXW4OLECMDID@@W4OLECMDEXECOPT@@PAUtagVARIANT@@2@Z 5f41d13d f
 0001:0001c15f       ?GetRegisterAsBrowser@CHtmlView@@QBEHXZ 5f41d15f f
 0001:0001c17c       ?GetRegisterAsDropTarget@CHtmlView@@QBEHXZ 5f41d17c f
 0001:0001c199       ?GetTheaterMode@CHtmlView@@QBEHXZ 5f41d199 f
 0001:0001c1b6       ?GetAddressBar@CHtmlView@@QBEHXZ 5f41d1b6 f
 0001:0001c1d3       ?LoadFromResource@CHtmlView@@QAEHPBD@Z 5f41d1d3 f
 0001:0001c273       ?LoadFromResource@CHtmlView@@QAEHI@Z 5f41d273 f
 0001:0001c313       ?Navigate@CHtmlView@@QAEXPBDK00PAXK@Z 5f41d313 f
 0001:0001c3fd       ?Navigate2@CHtmlView@@QAEXPAU_ITEMIDLIST@@KPBD@Z 5f41d3fd f
 0001:0001c499       ?Navigate2@CHtmlView@@QAEXPBDK00PAXK@Z 5f41d499 f
 0001:0001c57b       ?Navigate2@CHtmlView@@QAEXPBDKAAVCByteArray@@00@Z 5f41d57b f
 0001:0001c639       ?PutProperty@CHtmlView@@QAEXPBDABUtagVARIANT@@@Z 5f41d639 f
 0001:0001c6a1       ?GetProperty@CHtmlView@@QAEHPBDAAVCString@@@Z 5f41d6a1 f
 0001:0001c73a       ?GetProperty@CHtmlView@@QAE?AVCOleVariant@@PBD@Z 5f41d73a f
 0001:0001c7a7       ?GetFullName@CHtmlView@@QBE?AVCString@@XZ 5f41d7a7 f
 0001:0001c80a       ?NavigateComplete2@CHtmlView@@MAEXPAUIDispatch@@PAUtagVARIANT@@@Z 5f41d80a f
 0001:0001c895       ?BeforeNavigate2@CHtmlView@@MAEXPAUIDispatch@@PAUtagVARIANT@@1111PAH@Z 5f41d895 f
 0001:0001c9af       ?DocumentComplete@CHtmlView@@MAEXPAUIDispatch@@PAUtagVARIANT@@@Z 5f41d9af f
 0001:0001c9f6       ?OnDownloadBegin@CHtmlView@@UAEXXZ 5f41d9f6 f
 0001:0001c9f7       ?OnTheaterMode@CHtmlView@@UAEXH@Z 5f41d9f7 f
 0001:0001c9fa       ?OnBeforeNavigate2@CHtmlView@@UAEXPBDK0AAVCByteArray@@0PAH@Z 5f41d9fa f
 0001:0001c9fd       ?OnStatusTextChange@CHtmlView@@UAEXPBD@Z 5f41d9fd f
 0001:0001ca14       ??_9@$BBDM@AE              5f41da14 f
 0001:0001ca1c       ??_9@$BBFM@AE              5f41da1c f
 0001:0001ca24       ??_9@$BBBM@AE              5f41da24 f
 0001:0001ca2c       ??_9@$BBEA@AE              5f41da2c f
 0001:0001ca34       ??_9@$BBGA@AE              5f41da34 f
 0001:0001ca3c       ??_9@$BBCA@AE              5f41da3c f
 0001:0001ca44       ??_9@$BBEE@AE              5f41da44 f
 0001:0001ca4c       ??_9@$BBCE@AE              5f41da4c f
 0001:0001ca54       ??_9@$BBEI@AE              5f41da54 f
 0001:0001ca5c       ??_9@$BBCI@AE              5f41da5c f
 0001:0001ca64       ??_9@$BBEM@AE              5f41da64 f
 0001:0001ca6c       ??_9@$BBCM@AE              5f41da6c f
 0001:0001ca74       ??_9@$BBFA@AE              5f41da74 f
 0001:0001ca7c       ??_9@$BBDA@AE              5f41da7c f
 0001:0001ca84       ??_9@$BBFE@AE              5f41da84 f
 0001:0001ca8c       ??_9@$BBDE@AE              5f41da8c f
 0001:0001ca94       ??_9@$BBFI@AE              5f41da94 f
 0001:0001ca9c       ??_9@$BBBI@AE              5f41da9c f
 0001:0001caa4       ?AfxEnableControlContainer@@YAXPAVCOccManager@@@Z 5f41daa4 f
 0001:0001cacb       ?_AfxFindFirstDlgItem@@YGPAUDLGITEMTEMPLATE@@PBUDLGTEMPLATE@@@Z 5f41dacb f
 0001:0001cb4f       ?_AfxFindNextDlgItem@@YGPAUDLGITEMTEMPLATE@@PAU1@H@Z 5f41db4f f
 0001:0001cba3       ?OnEvent@COccManager@@UAEHPAVCCmdTarget@@IPAUAFX_EVENT@@PAUAFX_CMDHANDLERINFO@@@Z 5f41dba3 f
 0001:0001cbbb       ?CreateContainer@COccManager@@UAEPAVCOleControlContainer@@PAVCWnd@@@Z 5f41dbbb f
 0001:0001cbf2       ?CreateSite@COccManager@@UAEPAVCOleControlSite@@PAVCOleControlContainer@@@Z 5f41dbf2 f
 0001:0001cc2c       ?PreCreateDialog@COccManager@@UAEPBUDLGTEMPLATE@@PAU_AFX_OCC_DIALOG_INFO@@PBU2@@Z 5f41dc2c f
 0001:0001cc77       ?PostCreateDialog@COccManager@@UAEXPAU_AFX_OCC_DIALOG_INFO@@@Z 5f41dc77 f
 0001:0001cc9c       ?SplitDialogTemplate@COccManager@@UAEPAUDLGTEMPLATE@@PBU2@PAPAUDLGITEMTEMPLATE@@@Z 5f41dc9c f
 0001:0001cddb       ?CreateDlgControls@COccManager@@UAEHPAVCWnd@@PBDPAU_AFX_OCC_DIALOG_INFO@@@Z 5f41dddb f
 0001:0001ce3d       ?CreateDlgControls@COccManager@@UAEHPAVCWnd@@PAXPAU_AFX_OCC_DIALOG_INFO@@@Z 5f41de3d f
 0001:0001cfad       ?BindControls@COccManager@@IAEXPAVCWnd@@@Z 5f41dfad f
 0001:0001d0c8       ?CreateDlgControl@COccManager@@IAEPAUHWND__@@PAVCWnd@@PAU2@HPAUDLGITEMTEMPLATE@@GPAEK@Z 5f41e0c8 f
 0001:0001d399       ?PrepareOleCtrl@CDataExchange@@QAEPAVCWnd@@H@Z 5f41e399 f
 0001:0001d3cb       ?CreateObject@?$CProcessLocal@VCOccManager@@@@SGPAVCNoTrackObject@@XZ 5f41e3cb f
 0001:0001d3e0       ??_ECOccManager@@UAEPAXI@Z 5f41e3e0 f
 0001:0001d3e0       ??_GCOccManager@@UAEPAXI@Z 5f41e3e0 f
 0001:0001d3fb       ?OnEvent@CCmdTarget@@QAEHIPAUAFX_EVENT@@PAUAFX_CMDHANDLERINFO@@@Z 5f41e3fb f
 0001:0001d60e       ?GetEventSinkEntry@CCmdTarget@@IAGPBUAFX_EVENTSINKMAP_ENTRY@@IPAUAFX_EVENT@@@Z 5f41e60e f
 0001:0001d685       ?CreateControl@CWnd@@QAEHPBD0KABUtagRECT@@PAV1@IPAVCFile@@HPAG@Z 5f41e685 f
 0001:0001d6ca       ?CreateControl@CWnd@@QAEHABU_GUID@@PBDKABUtagRECT@@PAV1@IPAVCFile@@HPAG@Z 5f41e6ca f
 0001:0001d728       ?CreateControl@CWnd@@QAEHABU_GUID@@PBDKPBUtagPOINT@@PBUtagSIZE@@PAV1@IPAVCFile@@HPAG@Z 5f41e728 f
 0001:0001d771       ?InitControlContainer@CWnd@@IAEHXZ 5f41e771 f
 0001:0001d81a       ?GetInterfaceMap@COleControlContainer@@MBEPBUAFX_INTERFACEMAP@@XZ 5f41e81a f
 0001:0001d820       ?_GetBaseDispatchMap@COleControlContainer@@KGPBUAFX_DISPMAP@@XZ 5f41e820 f
 0001:0001d826       ?GetDispatchMap@COleControlContainer@@MBEPBUAFX_DISPMAP@@XZ 5f41e826 f
 0001:0001d82c       ??0COleControlContainer@@QAE@PAVCWnd@@@Z 5f41e82c f
 0001:0001d88b       ??_ECOleControlContainer@@UAEPAXI@Z 5f41e88b f
 0001:0001d88b       ??_GCOleControlContainer@@UAEPAXI@Z 5f41e88b f
 0001:0001d8a7       ??1COleControlContainer@@UAE@XZ 5f41e8a7 f
 0001:0001d985       ?CreateControl@COleControlContainer@@QAEHPAVCWnd@@ABU_GUID@@PBDKABUtagRECT@@IPAVCFile@@HPAGPAPAVCOleControlSite@@@Z 5f41e985 f
 0001:0001d9e6       ?CreateControl@COleControlContainer@@QAEHPAVCWnd@@ABU_GUID@@PBDKPBUtagPOINT@@PBUtagSIZE@@IPAVCFile@@HPAGPAPAVCOleControlSite@@@Z 5f41e9e6 f
 0001:0001daa1       ?FindItem@COleControlContainer@@UBEPAVCOleControlSite@@I@Z 5f41eaa1 f
 0001:0001daeb       ?GetAmbientProp@COleControlContainer@@UAEHPAVCOleControlSite@@JPAUtagVARIANT@@@Z 5f41eaeb f
 0001:0001dcf3       ?CreateOleFont@COleControlContainer@@QAEXPAVCFont@@@Z 5f41ecf3 f
 0001:0001de73       ?FreezeAllEvents@COleControlContainer@@QAEXH@Z 5f41ee73 f
 0001:0001deb4       ?ScrollChildren@COleControlContainer@@UAEXHH@Z 5f41eeb4 f
 0001:0001df0e       ?OnUIActivate@COleControlContainer@@UAEXPAVCOleControlSite@@@Z 5f41ef0e f
 0001:0001df2c       ?OnUIDeactivate@COleControlContainer@@UAEXPAVCOleControlSite@@@Z 5f41ef2c f
 0001:0001df3c       ?CheckDlgButton@COleControlContainer@@UAEXHI@Z 5f41ef3c f
 0001:0001df79       ?CheckRadioButton@COleControlContainer@@UAEXHHH@Z 5f41ef79 f
 0001:0001dfa1       ?GetDlgItem@COleControlContainer@@UBEPAVCWnd@@H@Z 5f41efa1 f
 0001:0001dfbc       ?GetDlgItem@COleControlContainer@@UBEXHPAPAUHWND__@@@Z 5f41efbc f
 0001:0001dff8       ?GetDlgItemInt@COleControlContainer@@UBEIHPAHH@Z 5f41eff8 f
 0001:0001e0ae       ?GetDlgItemTextA@COleControlContainer@@UBEHHPADH@Z 5f41f0ae f
 0001:0001e0cd       ?SendDlgItemMessageA@COleControlContainer@@UAEJHIIJ@Z 5f41f0cd f
 0001:0001e0f2       ?SetDlgItemInt@COleControlContainer@@UAEXHIH@Z 5f41f0f2 f
 0001:0001e131       ?SetDlgItemTextA@COleControlContainer@@UAEXHPBD@Z 5f41f131 f
 0001:0001e14c       ?IsDlgButtonChecked@COleControlContainer@@UBEIH@Z 5f41f14c f
 0001:0001e1c8       ?QueryInterface@XOleIPFrame@COleControlContainer@@UAGJABU_GUID@@PAPAX@Z 5f41f1c8 f
 0001:0001e1df       ?AddRef@XOleIPFrame@COleControlContainer@@UAGKXZ 5f41f1df f
 0001:0001e1f0       ?Release@XOleIPFrame@COleControlContainer@@UAGKXZ 5f41f1f0 f
 0001:0001e1ff       ?GetWindow@XOleIPFrame@COleControlContainer@@UAGJPAPAUHWND__@@@Z 5f41f1ff f
 0001:0001e214       ?SetActiveObject@XOleIPFrame@COleControlContainer@@UAGJPAUIOleInPlaceActiveObject@@PBG@Z 5f41f214 f
 0001:0001e24b       ?GetInterfaceMap@CEnumUnknown@@MBEPBUAFX_INTERFACEMAP@@XZ 5f41f24b f
 0001:0001e251       ??1CEnumUnknown@@UAE@XZ    5f41f251 f
 0001:0001e2a7       ??_ECEnumUnknown@@UAEPAXI@Z 5f41f2a7 f
 0001:0001e2a7       ??_GCEnumUnknown@@UAEPAXI@Z 5f41f2a7 f
 0001:0001e2c3       ?OnNext@CEnumUnknown@@MAEHPAX@Z 5f41f2c3 f
 0001:0001e2e1       ?QueryInterface@XOleContainer@COleControlContainer@@UAGJABU_GUID@@PAPAX@Z 5f41f2e1 f
 0001:0001e2f8       ?Release@XOleContainer@COleControlContainer@@UAGKXZ 5f41f2f8 f
 0001:0001e307       ?AddRef@XOleContainer@COleControlContainer@@UAGKXZ 5f41f307 f
 0001:0001e318       ?EnumObjects@XOleContainer@COleControlContainer@@UAGJKPAPAUIEnumUnknown@@@Z 5f41f318 f
 0001:0001e426       ?GetInterfaceMap@COleControlSite@@MBEPBUAFX_INTERFACEMAP@@XZ 5f41f426 f
 0001:0001e42c       ??0COleControlSite@@QAE@PAVCOleControlContainer@@@Z 5f41f42c f
 0001:0001e537       ??_GCOleControlSite@@UAEPAXI@Z 5f41f537 f
 0001:0001e537       ??_ECOleControlSite@@UAEPAXI@Z 5f41f537 f
 0001:0001e553       ??1COleControlSite@@UAE@XZ 5f41f553 f
 0001:0001e67f       ?SetExtent@COleControlSite@@IAEHXZ 5f41f67f f
 0001:0001e727       ?CreateControl@COleControlSite@@QAEJPAVCWnd@@ABU_GUID@@PBDKABUtagRECT@@IPAVCFile@@HPAG@Z 5f41f727 f
 0001:0001e785       ?CreateControl@COleControlSite@@QAEJPAVCWnd@@ABU_GUID@@PBDKPBUtagPOINT@@PBUtagSIZE@@IPAVCFile@@HPAG@Z 5f41f785 f
 0001:0001ea42       ?DestroyControl@COleControlSite@@UAEHXZ 5f41fa42 f
 0001:0001ea71       ?_AfxCoCreateInstanceLic@@YGJABU_GUID@@PAUIUnknown@@K0PAPAXPAG@Z 5f41fa71 f
 0001:0001eafe       ?QuickActivate@COleControlSite@@UAEHXZ 5f41fafe f
 0001:0001ec9f       ?CreateOrLoad@COleControlSite@@IAEJABU_GUID@@PAVCFile@@HPAG@Z 5f41fc9f f
 0001:0001efb1       ?GetID@COleControlSite@@QAEIXZ 5f41ffb1 f
 0001:0001efb5       ?DoVerb@COleControlSite@@UAEJJPAUtagMSG@@@Z 5f41ffb5 f
 0001:0001efe1       ?IsDefaultButton@COleControlSite@@QAEHXZ 5f41ffe1 f
 0001:0001eff5       ?SetDefaultButton@COleControlSite@@QAEXH@Z 5f41fff5 f
 0001:0001f045       ?ConnectSink@COleControlSite@@IAEKABU_GUID@@PAUIUnknown@@@Z 5f420045 f
 0001:0001f0ad       ?DisconnectSink@COleControlSite@@IAEXABU_GUID@@K@Z 5f4200ad f
 0001:0001f10b       ?GetEventIID@COleControlSite@@QAEHPAU_GUID@@@Z 5f42010b f
 0001:0001f278       ?GetControlInfo@COleControlSite@@QAEXXZ 5f420278 f
 0001:0001f2c6       ?IsMatchingMnemonic@COleControlSite@@QAEHPAUtagMSG@@@Z 5f4202c6 f
 0001:0001f373       ?SendMnemonic@COleControlSite@@QAEXPAUtagMSG@@@Z 5f420373 f
 0001:0001f3bb       ?FreezeEvents@COleControlSite@@QAEXH@Z 5f4203bb f
 0001:0001f3f1       ?AttachWindow@COleControlSite@@IAEXXZ 5f4203f1 f
 0001:0001f42e       ?DetachWindow@COleControlSite@@IAEXXZ 5f42042e f
 0001:0001f47c       ?OnEvent@COleControlSite@@IAEHPAUAFX_EVENT@@@Z 5f42047c f
 0001:0001f4b9       ?InvokeHelperV@COleControlSite@@UAEXJGGPAXPBEPAD@Z 5f4204b9 f
 0001:0001f50f       ?SetPropertyV@COleControlSite@@UAEXJGPAD@Z 5f42050f f
 0001:0001f56a       ?InvokeHelper@COleControlSite@@UAAXJGGPAXPBEZZ 5f42056a f
 0001:0001f58a       ?GetProperty@COleControlSite@@UBEXJGPAX@Z 5f42058a f
 0001:0001f5a6       ?SetProperty@COleControlSite@@UAAXJGZZ 5f4205a6 f
 0001:0001f5bd       ?SafeSetProperty@COleControlSite@@UAAHJGZZ 5f4205bd f
 0001:0001f610       ?GetStyle@COleControlSite@@UBEKXZ 5f420610 f
 0001:0001f6c6       ?GetExStyle@COleControlSite@@UBEKXZ 5f4206c6 f
 0001:0001f72e       ?ModifyStyle@COleControlSite@@UAEHKKI@Z 5f42072e f
 0001:0001f7be       ?ModifyStyleEx@COleControlSite@@UAEHKKI@Z 5f4207be f
 0001:0001f80e       ?SetWindowTextA@COleControlSite@@UAEXPBD@Z 5f42080e f
 0001:0001f841       ?GetWindowTextA@COleControlSite@@UBEXAAVCString@@@Z 5f420841 f
 0001:0001f8b0       ?GetWindowTextA@COleControlSite@@UBEHPADH@Z 5f4208b0 f
 0001:0001f90f       ?GetWindowTextLengthA@COleControlSite@@UBEHXZ 5f42090f f
 0001:0001f958       ?SetDlgCtrlID@COleControlSite@@UAEHH@Z 5f420958 f
 0001:0001f965       ?MoveWindow@COleControlSite@@UAEXHHHHH@Z 5f420965 f
 0001:0001f9df       ?SetWindowPos@COleControlSite@@UAEHPBVCWnd@@HHHHI@Z 5f4209df f
 0001:0001fa94       ?ShowWindow@COleControlSite@@UAEHH@Z 5f420a94 f
 0001:0001fad3       ?IsWindowEnabled@COleControlSite@@UBEHXZ 5f420ad3 f
 0001:0001fb21       ?EnableWindow@COleControlSite@@UAEHH@Z 5f420b21 f
 0001:0001fb8a       ?SetFocus@COleControlSite@@UAEPAVCWnd@@XZ 5f420b8a f
 0001:0001fbc3       ?EnableDSC@COleControlSite@@UAEXXZ 5f420bc3 f
 0001:0001fc17       ?BindDefaultProperty@COleControlSite@@UAEXJGPBDPAVCWnd@@@Z 5f420c17 f
 0001:0001fcb9       ?BindProperty@COleControlSite@@UAEXJPAVCWnd@@@Z 5f420cb9 f
 0001:0001fdd3       ?AddRef@XOleClientSite@COleControlSite@@UAGKXZ 5f420dd3 f
 0001:0001fde6       ?Release@XOleClientSite@COleControlSite@@UAGKXZ 5f420de6 f
 0001:0001fdf8       ?QueryInterface@XOleClientSite@COleControlSite@@UAGJABU_GUID@@PAPAX@Z 5f420df8 f
 0001:0001fe12       ?GetContainer@XOleClientSite@COleControlSite@@UAGJPAPAUIOleContainer@@@Z 5f420e12 f
 0001:0001fe2d       ?ShowObject@XOleClientSite@COleControlSite@@UAGJXZ 5f420e2d f
 0001:0001fe76       ?AddRef@XOleIPSite@COleControlSite@@UAGKXZ 5f420e76 f
 0001:0001fe89       ?Release@XOleIPSite@COleControlSite@@UAGKXZ 5f420e89 f
 0001:0001fe9b       ?QueryInterface@XOleIPSite@COleControlSite@@UAGJABU_GUID@@PAPAX@Z 5f420e9b f
 0001:0001feb5       ?GetWindow@XOleIPSite@COleControlSite@@UAGJPAPAUHWND__@@@Z 5f420eb5 f
 0001:0001fee0       ?OnUIActivate@XOleIPSite@COleControlSite@@UAGJXZ 5f420ee0 f
 0001:0001fef7       ?GetWindowContext@XOleIPSite@COleControlSite@@UAGJPAPAUIOleInPlaceFrame@@PAPAUIOleInPlaceUIWindow@@PAUtagRECT@@2PAUtagOIFI@@@Z 5f420ef7 f
 0001:0001ffa0       ?Scroll@XOleIPSite@COleControlSite@@UAGJUtagSIZE@@@Z 5f420fa0 f
 0001:0001ffa6       ?OnUIDeactivate@XOleIPSite@COleControlSite@@UAGJH@Z 5f420fa6 f
 0001:0001ffbd       ?OnInPlaceDeactivate@XOleIPSite@COleControlSite@@UAGJXZ 5f420fbd f
 0001:00020006       ?DeactivateAndUndo@XOleIPSite@COleControlSite@@UAGJXZ 5f421006 f
 0001:00020018       ?OnPosRectChange@XOleIPSite@COleControlSite@@UAGJPBUtagRECT@@@Z 5f421018 f
 0001:0002006b       ?AddRef@XOleControlSite@COleControlSite@@UAGKXZ 5f42106b f
 0001:0002007e       ?Release@XOleControlSite@COleControlSite@@UAGKXZ 5f42107e f
 0001:00020090       ?QueryInterface@XOleControlSite@COleControlSite@@UAGJABU_GUID@@PAPAX@Z 5f421090 f
 0001:000200aa       ?OnControlInfoChanged@XOleControlSite@COleControlSite@@UAGJXZ 5f4210aa f
 0001:000200be       ?TransformCoords@XOleControlSite@COleControlSite@@UAGJPAU_POINTL@@PAUtagPOINTF@@K@Z 5f4210be f
 0001:000201c3       ?AddRef@XAmbientProps@COleControlSite@@UAGKXZ 5f4211c3 f
 0001:000201d6       ?Release@XAmbientProps@COleControlSite@@UAGKXZ 5f4211d6 f
 0001:000201e8       ?QueryInterface@XAmbientProps@COleControlSite@@UAGJABU_GUID@@PAPAX@Z 5f4211e8 f
 0001:00020202       ?Invoke@XAmbientProps@COleControlSite@@UAGJJABU_GUID@@KGPAUtagDISPPARAMS@@PAUtagVARIANT@@PAUtagEXCEPINFO@@PAI@Z 5f421202 f
 0001:00020265       ?QueryInterface@XPropertyNotifySink@COleControlSite@@UAGJABU_GUID@@PAPAX@Z 5f421265 f
 0001:000202af       ?AddRef@XPropertyNotifySink@COleControlSite@@UAGKXZ 5f4212af f
 0001:000202b5       ?OnChanged@XPropertyNotifySink@COleControlSite@@UAGJJ@Z 5f4212b5 f
 0001:000203fe       ?OnRequestEdit@XPropertyNotifySink@COleControlSite@@UAGJJ@Z 5f4213fe f
 0001:00020485       ?QueryInterface@XEventSink@COleControlSite@@UAGJABU_GUID@@PAPAX@Z 5f421485 f
 0001:000204e9       ?GetIDsOfNames@XEventSink@COleControlSite@@UAGJABU_GUID@@PAPAGIKPAJ@Z 5f4214e9 f
 0001:000204f1       ?Invoke@XEventSink@COleControlSite@@UAGJJABU_GUID@@KGPAUtagDISPPARAMS@@PAUtagVARIANT@@PAUtagEXCEPINFO@@PAI@Z 5f4214f1 f
 0001:00020575       ??0CDataSourceControl@@QAE@PAVCOleControlSite@@@Z 5f421575 f
 0001:000205c3       ??1CDataSourceControl@@QAE@XZ 5f4215c3 f
 0001:000207a3       ?ReleaseAccessors@CAccessorBase@ATL@@QAEJPAUIUnknown@@@Z 5f4217a3 f
 0001:0002082a       ??1CRowset@ATL@@QAE@XZ     5f42182a f
 0001:00020875       ?Close@CRowset@ATL@@QAEXXZ 5f421875 f
 0001:000208a4       ?ReleaseRows@CRowset@ATL@@QAEJXZ 5f4218a4 f
 0001:000208c4       ?Close@CDynamicAccessor@ATL@@QAEXXZ 5f4218c4 f
 0001:000208fe       ?Initialize@CDataSourceControl@@QAEJXZ 5f4218fe f
 0001:00020a9c       ?GetCursor@CDataSourceControl@@UAEPAUIUnknown@@XZ 5f421a9c f
 0001:00020b03       ?GetMetaData@CDataSourceControl@@QAEJXZ 5f421b03 f
 0001:00020e41       ??0CRowset@ATL@@QAE@PAUIRowset@@@Z 5f421e41 f
 0001:00020e92       ?MoveFirst@CRowset@ATL@@QAEJXZ 5f421e92 f
 0001:00020eb5       ?MoveNext@CRowset@ATL@@QAEJJ_N@Z 5f421eb5 f
 0001:00020f0e       ?GetData@CRowset@ATL@@QAEJXZ 5f421f0e f
 0001:00020f42       ?GetData@CRowset@ATL@@QAEJH@Z 5f421f42 f
 0001:00020f65       ?SetupOptionalRowsetInterfaces@CRowset@ATL@@QAEXXZ 5f421f65 f
 0001:00020f7a       ?BindColumns@CDynamicAccessor@ATL@@QAEJPAUIUnknown@@@Z 5f421f7a f
 0001:00021231       ?AllocateAccessorMemory@CAccessorBase@ATL@@QAEJH@Z 5f422231 f
 0001:0002128d       ?BindEntries@CAccessorBase@ATL@@SAJPAUtagDBBINDING@@HPAKKPAUIAccessor@@@Z 5f42228d f
 0001:000212d7       ?Bind@CAccessorBase@ATL@@SAXPAUtagDBBINDING@@KGKEEKKKKPAUtagDBOBJECT@@@Z 5f4222d7 f
 0001:00021356       ?CopyColumnID@CDataSourceControl@@QAEHPAUtagDBCOLUMNID@@PBU2@@Z 5f422356 f
 0001:000213c4       ?BindProp@CDataSourceControl@@UAEXPAVCOleControlSite@@H@Z 5f4223c4 f
 0001:00021508       ?TranslateColumnNo@CDynamicAccessor@ATL@@QBE_NAAK@Z 5f422508 f
 0001:0002155b       ?BindProp@CDataSourceControl@@UAEXPAVCDataBoundProperty@@H@Z 5f42255b f
 0001:000215a3       ?BindColumns@CDataSourceControl@@UAEXXZ 5f4225a3 f
 0001:0002174d       ?GetBoundClientRow@CDataSourceControl@@QAEJXZ 5f42274d f
 0001:000217aa       ?ToVariant@CDataSourceControl@@QAE?AVCOleVariant@@H@Z 5f4227aa f
 0001:00021f23       ?GetStatus@CDynamicAccessor@ATL@@QBE_NKPAK@Z 5f422f23 f
 0001:00021f67       ?_GetDataPtr@CDynamicAccessor@ATL@@QBEPAXK@Z 5f422f67 f
 0001:00021f7e       ?UpdateControls@CDataSourceControl@@UAEJXZ 5f422f7e f
 0001:00022119       ?UpdateCursor@CDataSourceControl@@UAEJXZ 5f423119 f
 0001:00022a6e       ?SetData@CRowset@ATL@@QBEJXZ 5f423a6e f
 0001:00022a96       ?SetData@CRowset@ATL@@QBEJH@Z 5f423a96 f
 0001:00022ac5       ?CreateAccessor@CManualAccessor@ATL@@QAEJHPAXK@Z 5f423ac5 f
 0001:00022b3c       ?AddBindEntry@CManualAccessor@ATL@@QAEXKGKPAX00@Z 5f423b3c f
 0001:00022b90       ?BindColumns@CManualAccessor@ATL@@QAEJPAUIUnknown@@@Z 5f423b90 f
 0001:00022c28       ??0CDataBoundProperty@@QAE@PAV0@JG@Z 5f423c28 f
 0001:00022c4e       ?SetClientSite@CDataBoundProperty@@QAEXPAVCOleControlSite@@@Z 5f423c4e f
 0001:00022c57       ?SetDSCSite@CDataBoundProperty@@QAEXPAVCOleControlSite@@@Z 5f423c57 f
 0001:00022c6b       ?GetNext@CDataBoundProperty@@QAEPAV1@XZ 5f423c6b f
 0001:00022c6f       ?RemoveSource@CDataBoundProperty@@QAEXXZ 5f423c6f f
 0001:00022c73       ?Notify@CDataBoundProperty@@QAEXXZ 5f423c73 f
 0001:00022cf6       ?GetCursor@CDataBoundProperty@@QAEPAUIUnknown@@XZ 5f423cf6 f
 0001:00022d2c       ?GetCursor@COleControlSite@@IAEJJPAPAUIUnknown@@PAPAX@Z 5f423d2c f
 0001:00022d63       ?AddRef@XBoundObjectSite@COleControlSite@@UAGKXZ 5f423d63 f
 0001:00022daa       ?Release@XBoundObjectSite@COleControlSite@@UAGKXZ 5f423daa f
 0001:00022df1       ?QueryInterface@XBoundObjectSite@COleControlSite@@UAGJABU_GUID@@PAPAX@Z 5f423df1 f
 0001:00022e3e       ?GetCursor@XBoundObjectSite@COleControlSite@@UAGJJPAPAUICursor@@PAPAX@Z 5f423e3e f
 0001:00022e8e       ?QueryInterface@XNotifyDBEvents@COleControlSite@@UAGJABU_GUID@@PAPAX@Z 5f423e8e f
 0001:00022ed8       ?OKToDo@XNotifyDBEvents@COleControlSite@@UAGJKKQAUtagDBNOTIFYREASON@@@Z 5f423ed8 f
 0001:00022f62       ?Cancelled@XNotifyDBEvents@COleControlSite@@UAGJKKQAUtagDBNOTIFYREASON@@@Z 5f423f62 f
 0001:00022fb4       ?SyncBefore@XNotifyDBEvents@COleControlSite@@UAGJKKQAUtagDBNOTIFYREASON@@@Z 5f423fb4 f
 0001:00023039       ?AboutToDo@XNotifyDBEvents@COleControlSite@@UAGJKKQAUtagDBNOTIFYREASON@@@Z 5f424039 f
 0001:0002308b       ?FailedToDo@XNotifyDBEvents@COleControlSite@@UAGJKKQAUtagDBNOTIFYREASON@@@Z 5f42408b f
 0001:000230dd       ?SyncAfter@XNotifyDBEvents@COleControlSite@@UAGJKKQAUtagDBNOTIFYREASON@@@Z 5f4240dd f
 0001:00023181       ?DidEvent@XNotifyDBEvents@COleControlSite@@UAGJKKQAUtagDBNOTIFYREASON@@@Z 5f424181 f
 0001:0002320a       ?FireEvent@XNotifyDBEvents@COleControlSite@@QAEJKKQAUtagDBNOTIFYREASON@@W4DSCSTATE@@@Z 5f42420a f
 0001:000232cc       ?QueryInterface@XRowsetNotify@COleControlSite@@UAGJABU_GUID@@PAPAX@Z 5f4242cc f
 0001:00023316       ?OnFieldChange@XRowsetNotify@COleControlSite@@UAGJPAUIRowset@@KKQAKKKH@Z 5f424316 f
 0001:000233fe       ?OnRowChange@XRowsetNotify@COleControlSite@@UAGJPAUIRowset@@KQBKKKH@Z 5f4243fe f
 0001:000235a4       ?OnRowsetChange@XRowsetNotify@COleControlSite@@UAGJPAUIRowset@@KKH@Z 5f4245a4 f
 0001:0002364e       ?AtlComPtrAssign@ATL@@YGPAUIUnknown@@PAPAU2@PAU2@@Z 5f42464e f
 0001:00023677       ??1COleDispatchDriver@@QAE@XZ 5f424677 f
 0001:0002367c       ??0AFX_EVENT@@QAE@H@Z      5f42467c f
 0001:0002369f       ??0COleControlLock@@QAE@ABU_GUID@@@Z 5f42469f f
 0001:0002370e       ??_GCOleControlLock@@UAEPAXI@Z 5f42470e f
 0001:0002370e       ??_ECOleControlLock@@UAEPAXI@Z 5f42470e f
 0001:0002372a       ??1COleControlLock@@UAE@XZ 5f42472a f
 0001:00023751       ?AfxOleLockControl@@YGHABU_GUID@@@Z 5f424751 f
 0001:000237f0       ?AfxOleLockControl@@YGHPBD@Z 5f4247f0 f
 0001:00023817       ?AfxOleUnlockControl@@YGHPBD@Z 5f424817 f
 0001:0002383e       ?AfxOleUnlockControl@@YGHABU_GUID@@@Z 5f42483e f
 0001:000238c1       ?DDX_OCText@@YGXPAVCDataExchange@@HJAAVCString@@@Z 5f4248c1 f
 0001:00023900       ?DDX_OCTextRO@@YGXPAVCDataExchange@@HJAAVCString@@@Z 5f424900 f
 0001:00023942       ?DDX_OCBool@@YGXPAVCDataExchange@@HJAAH@Z 5f424942 f
 0001:00023981       ?DDX_OCBoolRO@@YGXPAVCDataExchange@@HJAAH@Z 5f424981 f
 0001:0002399e       ?DDX_OCInt@@YGXPAVCDataExchange@@HJAAH@Z 5f42499e f
 0001:000239dd       ?DDX_OCIntRO@@YGXPAVCDataExchange@@HJAAH@Z 5f4249dd f
 0001:000239fa       ?DDX_OCIntRO@@YGXPAVCDataExchange@@HJAAJ@Z 5f4249fa f
 0001:00023a17       ?DDX_OCShort@@YGXPAVCDataExchange@@HJAAF@Z 5f424a17 f
 0001:00023a58       ?DDX_OCShortRO@@YGXPAVCDataExchange@@HJAAF@Z 5f424a58 f
 0001:00023a75       ?DDX_OCColorRO@@YGXPAVCDataExchange@@HJAAK@Z 5f424a75 f
 0001:00023a92       ?DDX_OCFloat@@YGXPAVCDataExchange@@HJAAM@Z 5f424a92 f
 0001:00023ad6       ?DDX_OCFloatRO@@YGXPAVCDataExchange@@HJAAM@Z 5f424ad6 f
 0001:00023afc       ?DDX_OCFloat@@YGXPAVCDataExchange@@HJAAN@Z 5f424afc f
 0001:00023b40       ?DDX_OCFloatRO@@YGXPAVCDataExchange@@HJAAN@Z 5f424b40 f
 0001:00023b66       ?_AfxGetDlgCode@@YGKPAVCWnd@@PAUtagMSG@@@Z 5f424b66 f
 0001:00023b94       ?_AfxDlgSetFocus@@YGXPAVCWnd@@@Z 5f424b94 f
 0001:00023bc2       ?_AfxGetChildControl@@YGPAVCWnd@@PAV1@0@Z 5f424bc2 f
 0001:00023c1b       ?_AfxNextControl@@YGPAVCWnd@@PAV1@0I@Z 5f424c1b f
 0001:00023cf7       ?IsMatchingMnemonic@COccManager@@SAHPAVCWnd@@PAUtagMSG@@@Z 5f424cf7 f
 0001:00023d16       ?_AfxFindNextMnem@@YGPAVCWnd@@PAV1@0PAUtagMSG@@@Z 5f424d16 f
 0001:00023d9b       ?IsLabelControl@COccManager@@SAHPAVCWnd@@@Z 5f424d9b f
 0001:00023dc1       ?_AfxGetNextMnem@@YGPAVCWnd@@PAV1@0PAUtagMSG@@@Z 5f424dc1 f
 0001:00023e36       ?UIActivateControl@COccManager@@KAXPAVCWnd@@@Z 5f424e36 f
 0001:00023e93       ?UIDeactivateIfNecessary@COccManager@@KAXPAVCWnd@@0@Z 5f424e93 f
 0001:00023f06       ?_AfxFindDlgItem@@YGPAVCWnd@@PAV1@K@Z 5f424f06 f
 0001:00023f5d       ?SetDefaultButton@COccManager@@SAXPAVCWnd@@H@Z 5f424f5d f
 0001:00023faa       ?GetDefBtnCode@COccManager@@SAKPAVCWnd@@@Z 5f424faa f
 0001:00023fba       ?GetDefBtnCode@COleControlSite@@QAEKXZ 5f424fba f
 0001:00023fdf       ?_AfxRemoveDefaultButton@@YGXPAVCWnd@@0@Z 5f424fdf f
 0001:00024041       ?_AfxOriginalDefButton@@YGHPAVCWnd@@@Z 5f425041 f
 0001:0002406e       ?_AfxCheckDefPushButton@@YGXPAVCWnd@@00@Z 5f42506e f
 0001:00024156       ?IsDialogMessageA@COccManager@@UAEHPAVCWnd@@PAUtagMSG@@@Z 5f425156 f
 0001:0002454f       ?OnActivateView@CDocObjectServer@@MAEJXZ 5f42554f f
 0001:00024929       ?AddRef@XOleDocumentView@CDocObjectServer@@UAGKXZ 5f425929 f
 0001:00024968       ?Release@XOleDocumentView@CDocObjectServer@@UAGKXZ 5f425968 f
 0001:000249a7       ?QueryInterface@XOleDocumentView@CDocObjectServer@@UAGJABU_GUID@@PAPAX@Z 5f4259a7 f
 0001:000249ec       ?SetInPlaceSite@XOleDocumentView@CDocObjectServer@@UAGJPAUIOleInPlaceSite@@@Z 5f4259ec f
 0001:00024a5d       ?GetInPlaceSite@XOleDocumentView@CDocObjectServer@@UAGJPAPAUIOleInPlaceSite@@@Z 5f425a5d f
 0001:00024aab       ?GetDocument@XOleDocumentView@CDocObjectServer@@UAGJPAPAUIUnknown@@@Z 5f425aab f
 0001:00024af3       ?OnSetItemRects@CDocObjectServer@@IAEXPAUtagRECT@@0@Z 5f425af3 f
 0001:00024b09       ?SetRect@XOleDocumentView@CDocObjectServer@@UAGJPAUtagRECT@@@Z 5f425b09 f
 0001:00024b78       ?GetRect@XOleDocumentView@CDocObjectServer@@UAGJPAUtagRECT@@@Z 5f425b78 f
 0001:00024bbc       ?SetRectComplex@XOleDocumentView@CDocObjectServer@@UAGJPAUtagRECT@@000@Z 5f425bbc f
 0001:00024be1       ?Show@XOleDocumentView@CDocObjectServer@@UAGJH@Z 5f425be1 f
 0001:00024c36       ?UIActivate@XOleDocumentView@CDocObjectServer@@UAGJH@Z 5f425c36 f
 0001:00024c92       ?Open@XOleDocumentView@CDocObjectServer@@UAGJXZ 5f425c92 f
 0001:00024ce4       ?CloseView@XOleDocumentView@CDocObjectServer@@UAGJK@Z 5f425ce4 f
 0001:00024d2b       ?SaveViewState@XOleDocumentView@CDocObjectServer@@UAGJPAUIStream@@@Z 5f425d2b f
 0001:00024e55       ?ApplyViewState@XOleDocumentView@CDocObjectServer@@UAGJPAUIStream@@@Z 5f425e55 f
 0001:00024f7f       ?Clone@XOleDocumentView@CDocObjectServer@@UAGJPAUIOleInPlaceSite@@PAPAUIOleDocumentView@@@Z 5f425f7f f
 0001:00024fa4       ?_GetBaseClass@CDocObjectServer@@KGPAUCRuntimeClass@@XZ 5f425fa4 f
 0001:00024faa       ?GetRuntimeClass@CDocObjectServer@@UBEPAUCRuntimeClass@@XZ 5f425faa f
 0001:00024fb0       ?_GetBaseMessageMap@CDocObjectServer@@KGPBUAFX_MSGMAP@@XZ 5f425fb0 f
 0001:00024fb6       ?GetMessageMap@CDocObjectServer@@MBEPBUAFX_MSGMAP@@XZ 5f425fb6 f
 0001:00024fbc       ?GetInterfaceMap@CDocObjectServer@@MBEPBUAFX_INTERFACEMAP@@XZ 5f425fbc f
 0001:00024fc2       ??0CDocObjectServer@@QAE@PAVCOleServerDoc@@PAUIOleDocumentSite@@@Z 5f425fc2 f
 0001:00025016       ??_ECDocObjectServer@@UAEPAXI@Z 5f426016 f
 0001:00025016       ??_GCDocObjectServer@@UAEPAXI@Z 5f426016 f
 0001:00025032       ??1CDocObjectServer@@UAE@XZ 5f426032 f
 0001:0002506a       ?ReleaseDocSite@CDocObjectServer@@QAEXXZ 5f42606a f
 0001:00025080       ?SetDocSite@CDocObjectServer@@QAEXPAUIOleDocumentSite@@@Z 5f426080 f
 0001:00025093       ?OnCloseDocument@CDocObjectServer@@UAEXXZ 5f426093 f
 0001:000250a8       ?OnExecOleCmd@CDocObjectServer@@IAGJPBU_GUID@@KKPAUtagVARIANT@@1@Z 5f4260a8 f
 0001:000250d7       ?GetControllingFrame@CDocObjectServer@@QBEPAVCOleDocIPFrameWnd@@XZ 5f4260d7 f
 0001:0002511c       ?DoPreparePrinting@CDocObjectServer@@IAEHPAVCView@@PAUCPrintInfo@@@Z 5f42611c f
 0001:0002512f       ?DoPrepareDC@CDocObjectServer@@IAEXPAVCView@@PAVCDC@@PAUCPrintInfo@@@Z 5f42612f f
 0001:00025146       ?DoPrint@CDocObjectServer@@IAEXPAVCView@@PAVCDC@@PAUCPrintInfo@@@Z 5f426146 f
 0001:0002515d       ?DoBeginPrinting@CDocObjectServer@@IAEXPAVCView@@PAVCDC@@PAUCPrintInfo@@@Z 5f42615d f
 0001:00025174       ?DoEndPrinting@CDocObjectServer@@IAEXPAVCView@@PAVCDC@@PAUCPrintInfo@@@Z 5f426174 f
 0001:0002518b       ?AddRef@XPrint@CDocObjectServer@@UAGKXZ 5f42618b f
 0001:000251ca       ?Release@XPrint@CDocObjectServer@@UAGKXZ 5f4261ca f
 0001:00025209       ?QueryInterface@XPrint@CDocObjectServer@@UAGJABU_GUID@@PAPAX@Z 5f426209 f
 0001:00025250       ?SetInitialPageNum@XPrint@CDocObjectServer@@UAGJJ@Z 5f426250 f
 0001:0002527a       ?GetPageInfo@XPrint@CDocObjectServer@@UAGJPAJ0@Z 5f42627a f
 0001:00025368       ?Print@XPrint@CDocObjectServer@@UAGJKPAPAUtagDVTARGETDEVICE@@PAPAUtagPAGESET@@PAUtagSTGMEDIUM@@PAUIContinueCallback@@JPAJ4@Z 5f426368 f
 0001:00025a6b       ?AddRef@XOleDocument@CDocObjectServer@@UAGKXZ 5f426a6b f
 0001:00025aaa       ?Release@XOleDocument@CDocObjectServer@@UAGKXZ 5f426aaa f
 0001:00025ae9       ?QueryInterface@XOleDocument@CDocObjectServer@@UAGJABU_GUID@@PAPAX@Z 5f426ae9 f
 0001:00025b30       ?CreateView@XOleDocument@CDocObjectServer@@UAGJPAUIOleInPlaceSite@@PAUIStream@@KPAPAUIOleDocumentView@@@Z 5f426b30 f
 0001:00025bc4       ?GetDocMiscStatus@XOleDocument@CDocObjectServer@@UAGJPAK@Z 5f426bc4 f
 0001:00025bec       ?EnumViews@XOleDocument@CDocObjectServer@@UAGJPAPAUIEnumOleDocumentViews@@PAPAUIOleDocumentView@@@Z 5f426bec f
 0001:00025c36       ?AddRef@XOleObject@CDocObjectServer@@UAGKXZ 5f426c36 f
 0001:00025c75       ?Release@XOleObject@CDocObjectServer@@UAGKXZ 5f426c75 f
 0001:00025cb4       ?QueryInterface@XOleObject@CDocObjectServer@@UAGJABU_GUID@@PAPAX@Z 5f426cb4 f
 0001:00025cf9       ?SetClientSite@XOleObject@CDocObjectServer@@UAGJPAUIOleClientSite@@@Z 5f426cf9 f
 0001:00025d6c       ?GetClientSite@XOleObject@CDocObjectServer@@UAGJPAPAUIOleClientSite@@@Z 5f426d6c f
 0001:00025db9       ?SetHostNames@XOleObject@CDocObjectServer@@UAGJPBG0@Z 5f426db9 f
 0001:00025e09       ?Close@XOleObject@CDocObjectServer@@UAGJK@Z 5f426e09 f
 0001:00025e56       ?SetMoniker@XOleObject@CDocObjectServer@@UAGJKPAUIMoniker@@@Z 5f426e56 f
 0001:00025ea6       ?GetMoniker@XOleObject@CDocObjectServer@@UAGJKKPAPAUIMoniker@@@Z 5f426ea6 f
 0001:00025ef9       ?InitFromData@XOleObject@CDocObjectServer@@UAGJPAUIDataObject@@HK@Z 5f426ef9 f
 0001:00025f4c       ?GetClipboardData@XOleObject@CDocObjectServer@@UAGJKPAPAUIDataObject@@@Z 5f426f4c f
 0001:00025f9c       ?DoVerb@XOleObject@CDocObjectServer@@UAGJJPAUtagMSG@@PAUIOleClientSite@@JPAUHWND__@@PBUtagRECT@@@Z 5f426f9c f
 0001:00025ff8       ?EnumVerbs@XOleObject@CDocObjectServer@@UAGJPAPAUIEnumOLEVERB@@@Z 5f426ff8 f
 0001:00026045       ?Update@XOleObject@CDocObjectServer@@UAGJXZ 5f427045 f
 0001:0002608f       ?IsUpToDate@XOleObject@CDocObjectServer@@UAGJXZ 5f42708f f
 0001:000260d9       ?GetUserClassID@XOleObject@CDocObjectServer@@UAGJPAU_GUID@@@Z 5f4270d9 f
 0001:00026126       ?GetUserType@XOleObject@CDocObjectServer@@UAGJKPAPAG@Z 5f427126 f
 0001:00026176       ?SetExtent@XOleObject@CDocObjectServer@@UAGJKPAUtagSIZE@@@Z 5f427176 f
 0001:000261d5       ?GetExtent@XOleObject@CDocObjectServer@@UAGJKPAUtagSIZE@@@Z 5f4271d5 f
 0001:00026225       ?Advise@XOleObject@CDocObjectServer@@UAGJPAUIAdviseSink@@PAK@Z 5f427225 f
 0001:00026275       ?Unadvise@XOleObject@CDocObjectServer@@UAGJK@Z 5f427275 f
 0001:000262c2       ?EnumAdvise@XOleObject@CDocObjectServer@@UAGJPAPAUIEnumSTATDATA@@@Z 5f4272c2 f
 0001:0002630f       ?GetMiscStatus@XOleObject@CDocObjectServer@@UAGJKPAK@Z 5f42730f f
 0001:0002635f       ?SetColorScheme@XOleObject@CDocObjectServer@@UAGJPAUtagLOGPALETTE@@@Z 5f42735f f
 0001:000263ac       ?_GetBaseClass@CDocObjectServerItem@@KGPAUCRuntimeClass@@XZ 5f4273ac f
 0001:000263b2       ?GetRuntimeClass@CDocObjectServerItem@@UBEPAUCRuntimeClass@@XZ 5f4273b2 f
 0001:000263b8       ??0CDocObjectServerItem@@IAE@PAVCOleServerDoc@@H@Z 5f4273b8 f
 0001:000263d4       ??_ECDocObjectServerItem@@UAEPAXI@Z 5f4273d4 f
 0001:000263d4       ??_GCDocObjectServerItem@@UAEPAXI@Z 5f4273d4 f
 0001:000263f0       ??1CDocObjectServerItem@@UAE@XZ 5f4273f0 f
 0001:000263f6       ??1COleServerItem@@UAE@XZ  5f4273f6 f
 0001:0002649e       ?OnDoVerb@CDocObjectServerItem@@MAEXJ@Z 5f42749e f
 0001:000264cb       ?OnHide@CDocObjectServerItem@@MAEXXZ 5f4274cb f
 0001:000264e6       ?OnOpen@CDocObjectServerItem@@MAEXXZ 5f4274e6 f
 0001:000264f8       ?ActivateDocObject@COleServerDoc@@QAEXXZ 5f4274f8 f
 0001:00026506       ?ActivateDocObject@CDocObjectServer@@QAEXXZ 5f427506 f
 0001:0002651e       ?OnShow@CDocObjectServerItem@@MAEXXZ 5f42751e f
 0001:00026532       ??0COleCmdUI@@QAE@PAU_tagOLECMD@@KPBU_GUID@@@Z 5f427532 f
 0001:00026563       ?Enable@COleCmdUI@@UAEXH@Z 5f427563 f
 0001:0002658a       ?SetCheck@COleCmdUI@@UAEXH@Z 5f42758a f
 0001:000265ce       ?SetText@COleCmdUI@@UAEXPBD@Z 5f4275ce f
 0001:000265dd       ?DoUpdate@COleCmdUI@@UAEHPAVCCmdTarget@@H@Z 5f4275dd f
 0001:00026698       ?AddRef@XOleCommandTarget@CDocObjectServer@@UAGKXZ 5f427698 f
 0001:000266d7       ?Release@XOleCommandTarget@CDocObjectServer@@UAGKXZ 5f4276d7 f
 0001:00026716       ?QueryInterface@XOleCommandTarget@CDocObjectServer@@UAGJABU_GUID@@PAPAX@Z 5f427716 f
 0001:0002675b       ?_AfxQueryStatusOleCommandHelper@@YGJPAVCCmdTarget@@PBU_GUID@@KQAU_tagOLECMD@@PAU_tagOLECMDTEXT@@@Z 5f42775b f
 0001:00026894       ?QueryStatus@XOleCommandTarget@CDocObjectServer@@UAGJPBU_GUID@@KQAU_tagOLECMD@@PAU_tagOLECMDTEXT@@@Z 5f427894 f
 0001:000268e7       ?_AfxExecOleCommandHelper@@YGJPAVCCmdTarget@@PBU_GUID@@KKPAUtagVARIANT@@2@Z 5f4278e7 f
 0001:0002698d       ?Exec@XOleCommandTarget@CDocObjectServer@@UAGJPBU_GUID@@KKPAUtagVARIANT@@1@Z 5f42798d f
 0001:000269ff       ?CreateObject@COleDocIPFrameWnd@@SGPAVCObject@@XZ 5f4279ff f
 0001:00026a34       ?_GetBaseClass@COleDocIPFrameWnd@@KGPAUCRuntimeClass@@XZ 5f427a34 f
 0001:00026a3a       ?GetRuntimeClass@COleDocIPFrameWnd@@UBEPAUCRuntimeClass@@XZ 5f427a3a f
 0001:00026a40       ?_GetBaseMessageMap@COleDocIPFrameWnd@@KGPBUAFX_MSGMAP@@XZ 5f427a40 f
 0001:00026a46       ?GetMessageMap@COleDocIPFrameWnd@@MBEPBUAFX_MSGMAP@@XZ 5f427a46 f
 0001:00026a4c       ??0COleDocIPFrameWnd@@QAE@XZ 5f427a4c f
 0001:00026a65       ??1COleDocIPFrameWnd@@UAE@XZ 5f427a65 f
 0001:00026a6b       ??1COleIPFrameWnd@@UAE@XZ  5f427a6b f
 0001:00026ae9       ?OnRequestPositionChange@COleDocIPFrameWnd@@MAEXPBUtagRECT@@@Z 5f427ae9 f
 0001:00026b08       ?RecalcLayout@COleDocIPFrameWnd@@MAEXH@Z 5f427b08 f
 0001:00026c65       ?BuildSharedMenu@COleDocIPFrameWnd@@MAEHXZ 5f427c65 f
 0001:00026d03       ?DestroySharedMenu@COleDocIPFrameWnd@@MAEXXZ 5f427d03 f
 0001:00026d77       ?_GetBaseClass@COleDocObjectItem@@KGPAUCRuntimeClass@@XZ 5f427d77 f
 0001:00026d7d       ?GetRuntimeClass@COleDocObjectItem@@UBEPAUCRuntimeClass@@XZ 5f427d7d f
 0001:00026d83       ?_GetBaseInterfaceMap@COleDocObjectItem@@KGPBUAFX_INTERFACEMAP@@XZ 5f427d83 f
 0001:00026d89       ?GetInterfaceMap@COleDocObjectItem@@MBEPBUAFX_INTERFACEMAP@@XZ 5f427d89 f
 0001:00026d8f       ??0COleDocObjectItem@@QAE@PAVCOleDocument@@@Z 5f427d8f f
 0001:00026dc5       ??_ECOleDocObjectItem@@UAEPAXI@Z 5f427dc5 f
 0001:00026dc5       ??_GCOleDocObjectItem@@UAEPAXI@Z 5f427dc5 f
 0001:00026de1       ??1COleDocObjectItem@@UAE@XZ 5f427de1 f
 0001:00026e39       ?AddRef@XOleDocumentSite@COleDocObjectItem@@UAGKXZ 5f427e39 f
 0001:00026e7d       ?Release@XOleDocumentSite@COleDocObjectItem@@UAGKXZ 5f427e7d f
 0001:00026ec1       ?QueryInterface@XOleDocumentSite@COleDocObjectItem@@UAGJABU_GUID@@PAPAX@Z 5f427ec1 f
 0001:00026f0b       ?ActivateMe@XOleDocumentSite@COleDocObjectItem@@UAGJPAUIOleDocumentView@@@Z 5f427f0b f
 0001:0002704f       ?ActivateAndShow@COleDocObjectItem@@IAEXXZ 5f42804f f
 0001:0002708e       ?OnGetItemPosition@COleDocObjectItem@@MAEXAAVCRect@@@Z 5f42808e f
 0001:000270a1       ?GetActiveView@COleDocObjectItem@@QBEPAUIOleDocumentView@@XZ 5f4280a1 f
 0001:000270a5       ?Release@COleDocObjectItem@@UAEXW4tagOLECLOSE@@@Z 5f4280a5 f
 0001:000270d5       ?ExecCommand@COleDocObjectItem@@QAEJKKPBU_GUID@@@Z 5f4280d5 f
 0001:00027118       ?SupportsIPrint@COleDocObjectItem@@IAEHXZ 5f428118 f
 0001:0002717b       ?GetPageCount@COleDocObjectItem@@QAEHPAJ0@Z 5f42817b f
 0001:000271c6       ?GetHelpMenu@COleDocObjectItem@@MAEPAVCMenu@@AAI@Z 5f4281c6 f
 0001:000271f3       ?OnInsertMenus@COleDocObjectItem@@UAEXPAVCMenu@@PAUtagOleMenuGroupWidths@@@Z 5f4281f3 f
 0001:0002737b       ?OnRemoveMenus@COleDocObjectItem@@UAEXPAVCMenu@@@Z 5f42837b f
 0001:000273e8       ?OnPreparePrinting@COleDocObjectItem@@SAHPAVCView@@PAUCPrintInfo@@H@Z 5f4283e8 f
 0001:000274e8       ?OnPrint@COleDocObjectItem@@SAXPAVCView@@PAUCPrintInfo@@H@Z 5f4284e8 f
 0001:00027698       ?AtlW2AHelper@@YGPADPADPBGH@Z 5f428698 f
 0001:000276bc       ??0?$CIP@UIUnknown@@$1?IID_IUnknown@@3U_GUID@@B@@QAE@PAUIUnknown@@H@Z 5f4286bc f
 0001:000276d7       ??B?$CIP@UIUnknown@@$1?IID_IUnknown@@3U_GUID@@B@@QAEPAUIUnknown@@XZ 5f4286d7 f
 0001:000276da       ??0CMonikerFile@@QAE@XZ    5f4286da f
 0001:00027713       ?GetMoniker@CMonikerFile@@QBEPAUIMoniker@@XZ 5f428713 f
 0001:00027717       ?SetBinding@CAsyncMonikerFile@@IAEXPAUIBinding@@@Z 5f428717 f
 0001:00027726       ?SetFormatEtc@CAsyncMonikerFile@@IAEXPAUtagFORMATETC@@@Z 5f428726 f
 0001:00027730       ?AddRef@XOleCache@COleControl@@UAGKXZ 5f428730 f
 0001:00027742       ?Release@XOleCache@COleControl@@UAGKXZ 5f428742 f
 0001:00027754       ?QueryInterface@XOleCache@COleControl@@UAGJABU_GUID@@PAPAX@Z 5f428754 f
 0001:0002776e       ?Cache@XOleCache@COleControl@@UAGJPAUtagFORMATETC@@KPAK@Z 5f42876e f
 0001:000277ac       ?Uncache@XOleCache@COleControl@@UAGJK@Z 5f4287ac f
 0001:000277e2       ?EnumCache@XOleCache@COleControl@@UAGJPAPAUIEnumSTATDATA@@@Z 5f4287e2 f
 0001:00027818       ?InitCache@XOleCache@COleControl@@UAGJPAUIDataObject@@@Z 5f428818 f
 0001:0002784e       ?SetData@XOleCache@COleControl@@UAGJPAUtagFORMATETC@@PAUtagSTGMEDIUM@@H@Z 5f42884e f
 0001:0002788c       ?_AfxGetParkingWindow@@YGPAUHWND__@@XZ 5f42888c f
 0001:00027923       ?_AfxReleaseParkingWindow@@YGXXZ 5f428923 f
 0001:000279a5       ?GetInterfaceMap@COleControl@@MBEPBUAFX_INTERFACEMAP@@XZ 5f4289a5 f
 0001:000279ab       ?GetMessageMap@COleControl@@MBEPBUAFX_MSGMAP@@XZ 5f4289ab f
 0001:000279b1       ??0COleControl@@QAE@XZ     5f4289b1 f
 0001:00027be8       ??_ECOleControl@@UAEPAXI@Z 5f428be8 f
 0001:00027be8       ??_GCOleControl@@UAEPAXI@Z 5f428be8 f
 0001:00027c04       ??1COleControl@@UAE@XZ     5f428c04 f
 0001:00027ce7       ?ReleaseCaches@COleControl@@IAEXXZ 5f428ce7 f
 0001:00027ded       ?OnFinalRelease@COleControl@@MAEXXZ 5f428ded f
 0001:00027e21       ?GetInterfaceHook@COleControl@@MAEPAUIUnknown@@PBX@Z 5f428e21 f
 0001:00027e9e       ?SetInitialSize@COleControl@@QAEXHH@Z 5f428e9e f
 0001:00027ed9       ?GetDispatchIID@COleControl@@MAEHPAU_GUID@@@Z 5f428ed9 f
 0001:00027ef7       ?InitializeIIDs@COleControl@@QAEXPBU_GUID@@0@Z 5f428ef7 f
 0001:00027f1f       ?_AfxFillPSOnStack@@YGXXZ  5f428f1f f
 0001:00027f46       ?DoSuperclassPaint@COleControl@@QAEXPAVCDC@@ABVCRect@@@Z 5f428f46 f
 0001:00028030       ?IsSubclassedControl@COleControl@@UAEHXZ 5f429030 f
 0001:00028059       ?CreateControlWindow@COleControl@@MAEHPAUHWND__@@ABVCRect@@PBUtagRECT@@@Z 5f429059 f
 0001:00028286       ?ReparentControlWindow@COleControl@@UAEXPAUHWND__@@0@Z 5f429286 f
 0001:00028297       ?GetControlSize@COleControl@@QAEXPAH0@Z 5f429297 f
 0001:000282d2       ?SetControlSize@COleControl@@QAEHHH@Z 5f4292d2 f
 0001:0002831a       ?SetRectInContainer@COleControl@@QAEHPBUtagRECT@@@Z 5f42931a f
 0001:00028362       ?OnResetState@COleControl@@UAEXXZ 5f429362 f
 0001:0002838f       ?_AfxDrawBorders@@YGXPAVCDC@@AAVCRect@@HH@Z 5f42938f f
 0001:000283ea       ?DrawContent@COleControl@@IAEXPAVCDC@@AAVCRect@@@Z 5f4293ea f
 0001:000284bc       ?DrawMetafile@COleControl@@IAEXPAVCDC@@AAVCRect@@@Z 5f4294bc f
 0001:0002853d       ?OnDraw@COleControl@@UAEXPAVCDC@@ABVCRect@@1@Z 5f42953d f
 0001:00028540       ?OnDrawMetafile@COleControl@@UAEXPAVCDC@@ABVCRect@@@Z 5f429540 f
 0001:00028557       ?GetMetafileData@COleControl@@IAEHPAUtagFORMATETC@@PAUtagSTGMEDIUM@@@Z 5f429557 f
 0001:000286d1       ?QueryDefHandler@COleControl@@IAEPAXABU_GUID@@@Z 5f4296d1 f
 0001:00028735       ?InvalidateControl@COleControl@@QAEXPBUtagRECT@@H@Z 5f429735 f
 0001:000287e2       ?GetOuterWindow@COleControl@@IBEPAVCWnd@@XZ 5f4297e2 f
 0001:000287ef       ?OnReflectorDestroyed@COleControl@@MAEXXZ 5f4297ef f
 0001:000287f7       ?SaveState@COleControl@@IAEJPAUIStream@@@Z 5f4297f7 f
 0001:00028885       ?LoadState@COleControl@@IAEJPAUIStream@@@Z 5f429885 f
 0001:00028964       ?SendAdvise@COleControl@@IAEXI@Z 5f429964 f
 0001:00028a76       ?OnHide@COleControl@@MAEJXZ 5f429a76 f
 0001:00028ad5       ?OnOpen@COleControl@@MAEJHPAUtagMSG@@@Z 5f429ad5 f
 0001:00028bc1       ?CreateFrameWindow@COleControl@@MAEPAVCControlFrameWnd@@XZ 5f429bc1 f
 0001:00028c2b       ?OnFrameClose@COleControl@@MAEXXZ 5f429c2b f
 0001:00028c91       ?ResizeOpenControl@COleControl@@IAEXHH@Z 5f429c91 f
 0001:00028cd0       ?ResizeFrameWindow@COleControl@@MAEXHH@Z 5f429cd0 f
 0001:00028d40       ?GetRectInContainer@COleControl@@QAEHPAUtagRECT@@@Z 5f429d40 f
 0001:00028d6a       ?GetPropPageIDs@COleControl@@MAEPAU_GUID@@AAK@Z 5f429d6a f
 0001:00028d76       ?OnEdit@COleControl@@UAEHPAUtagMSG@@PAUHWND__@@PBUtagRECT@@@Z 5f429d76 f
 0001:00028da4       ?_AfxGetTopLevelWindow@@YGPAUHWND__@@PAU1@@Z 5f429da4 f
 0001:00028dbc       ?OnProperties@COleControl@@UAEHPAUtagMSG@@PAUHWND__@@PBUtagRECT@@@Z 5f429dbc f
 0001:00028ed6       ?GetControlFlags@COleControl@@UAEKXZ 5f429ed6 f
 0001:00028eda       ?OnPaint@COleControl@@IAEXPAVCDC@@@Z 5f429eda f
 0001:00028fdf       ?OnEraseBkgnd@COleControl@@IAEHPAVCDC@@@Z 5f429fdf f
 0001:00028ffe       ?Serialize@COleControl@@MAEXAAVCArchive@@@Z 5f429ffe f
 0001:00029042       ?DoPropExchange@COleControl@@UAEXPAVCPropExchange@@@Z 5f42a042 f
 0001:0002905d       ?ControlInfoChanged@COleControl@@QAEXXZ 5f42a05d f
 0001:0002906e       ?LockInPlaceActive@COleControl@@QAEHH@Z 5f42a06e f
 0001:00029092       ?GetExtendedControl@COleControl@@QAEPAUIDispatch@@XZ 5f42a092 f
 0001:000290b3       ?TransformCoords@COleControl@@QAEXPAU_POINTL@@PAUtagPOINTF@@K@Z 5f42a0b3 f
 0001:00029103       ?AddRef@XOleControl@COleControl@@UAGKXZ 5f42a103 f
 0001:00029115       ?Release@XOleControl@COleControl@@UAGKXZ 5f42a115 f
 0001:00029127       ?QueryInterface@XOleControl@COleControl@@UAGJABU_GUID@@PAPAX@Z 5f42a127 f
 0001:00029141       ?GetControlInfo@XOleControl@COleControl@@UAGJPAUtagCONTROLINFO@@@Z 5f42a141 f
 0001:00029190       ?OnMnemonic@XOleControl@COleControl@@UAGJPAUtagMSG@@@Z 5f42a190 f
 0001:000291df       ?OnAmbientPropertyChange@XOleControl@COleControl@@UAGJJ@Z 5f42a1df f
 0001:00029260       ?FreezeEvents@XOleControl@COleControl@@UAGJH@Z 5f42a260 f
 0001:000292d0       ?OnGetControlInfo@COleControl@@UAEXPAUtagCONTROLINFO@@@Z 5f42a2d0 f
 0001:000292e3       ?OnSetClientSite@COleControl@@UAEXXZ 5f42a2e3 f
 0001:0002931e       ?GetClientSite@COleControl@@QAEPAUIOleClientSite@@XZ 5f42a31e f
 0001:00029325       ?TranslateColor@COleControl@@QAEKKPAUHPALETTE__@@@Z 5f42a325 f
 0001:00029344       ?Refresh@COleControl@@QAEXXZ 5f42a344 f
 0001:00029360       ?DoClick@COleControl@@QAEXXZ 5f42a360 f
 0001:0002936b       ?OnNcCreate@COleControl@@IAEHPAUtagCREATESTRUCTA@@@Z 5f42a36b f
 0001:00029389       ?RecreateControlWindow@COleControl@@QAEXXZ 5f42a389 f
 0001:00029445       ?CreateWindowForSubclassedControl@COleControl@@IAEXXZ 5f42a445 f
 0001:000294b5       ?OnMouseActivate@COleControl@@IAEHPAVCWnd@@II@Z 5f42a4b5 f
 0001:000294d8       ?PreModalDialog@COleControl@@QAEXPAUHWND__@@@Z 5f42a4d8 f
 0001:00029505       ?PostModalDialog@COleControl@@QAEXPAUHWND__@@@Z 5f42a505 f
 0001:00029532       ?SetModifiedFlag@COleControl@@QAEXH@Z 5f42a532 f
 0001:00029552       ?IsModified@COleControl@@QAEHXZ 5f42a552 f
 0001:0002955f       ?WillAmbientsBeValidDuringLoad@COleControl@@QAEHXZ 5f42a55f f
 0001:0002956c       ?EnableSimpleFrame@COleControl@@QAEXXZ 5f42a56c f
 0001:00029574       ?IgnoreWindowMessage@COleControl@@IAEHIIJPAJ@Z 5f42a574 f
 0001:000295cf       ?WindowProc@COleControl@@UAEJIIJ@Z 5f42a5cf f
 0001:0002971f       ?DefWindowProcA@COleControl@@MAEJIIJ@Z 5f42a71f f
 0001:0002973d       ?OnCreate@COleControl@@IAEHPAUtagCREATESTRUCTA@@@Z 5f42a73d f
 0001:0002975b       ?OnSize@COleControl@@IAEXIHH@Z 5f42a75b f
 0001:00029775       ?OnMove@COleControl@@IAEXHH@Z 5f42a775 f
 0001:0002978f       ?OnInitMenuPopup@COleControl@@IAEXPAVCMenu@@IH@Z 5f42a78f f
 0001:000298d0       ?OnMenuSelect@COleControl@@IAEXIIPAUHMENU__@@@Z 5f42a8d0 f
 0001:00029980       ?GetMessageString@COleControl@@UBEXIAAVCString@@@Z 5f42a980 f
 0001:000299c5       ?OnSetMessageString@COleControl@@IAEJIJ@Z 5f42a9c5 f
 0001:00029a82       ?OnEnterIdle@COleControl@@IAEXIPAVCWnd@@@Z 5f42aa82 f
 0001:00029aab       ?AddRef@XSpecifyPropertyPages@COleControl@@UAGKXZ 5f42aaab f
 0001:00029abd       ?Release@XSpecifyPropertyPages@COleControl@@UAGKXZ 5f42aabd f
 0001:00029acf       ?QueryInterface@XSpecifyPropertyPages@COleControl@@UAGJABU_GUID@@PAPAX@Z 5f42aacf f
 0001:00029ae9       ?GetPages@XSpecifyPropertyPages@COleControl@@UAGJPAUtagCAUUID@@@Z 5f42aae9 f
 0001:00029b92       ?OnDestroy@COleControl@@IAEXXZ 5f42ab92 f
 0001:00029bd2       ?OnKillFocus@COleControl@@IAEXPAVCWnd@@@Z 5f42abd2 f
 0001:00029bf0       ?OnSetFocus@COleControl@@IAEXPAVCWnd@@@Z 5f42abf0 f
 0001:00029c0e       ?OnOcmCtlColorBtn@COleControl@@IAEJIJ@Z 5f42ac0e f
 0001:00029c27       ?OnOcmCtlColorDlg@COleControl@@IAEJIJ@Z 5f42ac27 f
 0001:00029c40       ?OnOcmCtlColorEdit@COleControl@@IAEJIJ@Z 5f42ac40 f
 0001:00029c59       ?OnOcmCtlColorListBox@COleControl@@IAEJIJ@Z 5f42ac59 f
 0001:00029c72       ?OnOcmCtlColorMsgBox@COleControl@@IAEJIJ@Z 5f42ac72 f
 0001:00029c8b       ?OnOcmCtlColorScrollBar@COleControl@@IAEJIJ@Z 5f42ac8b f
 0001:00029ca4       ?OnOcmCtlColorStatic@COleControl@@IAEJIJ@Z 5f42aca4 f
 0001:00029cbd       ?ThrowError@COleControl@@QAEXJII@Z 5f42acbd f
 0001:00029cff       ?ThrowError@COleControl@@QAEXJPBDI@Z 5f42acff f
 0001:00029d47       ?IsInvokeAllowed@COleControl@@MAEHJ@Z 5f42ad47 f
 0001:00029d56       ?GetIID@XPropConnPt@COleControl@@UAEABU_GUID@@XZ 5f42ad56 f
 0001:00029d5c       ??_EXEventConnPt@COleControl@@UAEPAXI@Z 5f42ad5c f
 0001:00029d5c       ??_GXEventConnPt@COleControl@@UAEPAXI@Z 5f42ad5c f
 0001:00029d78       ??1CConnectionPoint@@UAE@XZ 5f42ad78 f
 0001:00029d78       ??1XPropConnPt@COleControl@@UAE@XZ 5f42ad78 f
 0001:00029ddd       ??_ECReflectorWnd@@UAEPAXI@Z 5f42addd f
 0001:00029ddd       ??_GCReflectorWnd@@UAEPAXI@Z 5f42addd f
 0001:00029df9       ??1CReflectorWnd@@UAE@XZ   5f42adf9 f
 0001:00029dfe       ??0CParkingWnd@@QAE@XZ     5f42adfe f
 0001:00029e70       ??_ECParkingWnd@@UAEPAXI@Z 5f42ae70 f
 0001:00029e70       ??_GCParkingWnd@@UAEPAXI@Z 5f42ae70 f
 0001:00029e8c       ??1CParkingWnd@@UAE@XZ     5f42ae8c f
 0001:00029ec1       ?_GetBaseConnectionMap@COleControl@@KGPBUAFX_CONNECTIONMAP@@XZ 5f42aec1 f
 0001:00029ec7       ?GetConnectionMap@COleControl@@MBEPBUAFX_CONNECTIONMAP@@XZ 5f42aec7 f
 0001:00029ecd       ?GetConnectionHook@COleControl@@MAEPAUIConnectionPoint@@ABU_GUID@@@Z 5f42aecd f
 0001:00029ef8       ?GetExtraConnectionPoints@COleControl@@MAEHPAVCPtrArray@@@Z 5f42aef8 f
 0001:00029f11       ?AddRef@XProvideClassInfo@COleControl@@UAGKXZ 5f42af11 f
 0001:00029f23       ?Release@XProvideClassInfo@COleControl@@UAGKXZ 5f42af23 f
 0001:00029f35       ?QueryInterface@XProvideClassInfo@COleControl@@UAGJABU_GUID@@PAPAX@Z 5f42af35 f
 0001:00029f4f       ?GetClassInfoA@XProvideClassInfo@COleControl@@UAGJPAPAUITypeInfo@@@Z 5f42af4f f
 0001:00029fb3       ?GetGUID@XProvideClassInfo@COleControl@@UAGJKPAU_GUID@@@Z 5f42afb3 f
 0001:00029fe9       ?OnAdvise@XEventConnPt@COleControl@@UAEXH@Z 5f42afe9 f
 0001:0002a030       ?GetIID@XEventConnPt@COleControl@@UAEABU_GUID@@XZ 5f42b030 f
 0001:0002a040       ?QuerySinkInterface@XEventConnPt@COleControl@@UAEPAUIUnknown@@PAU3@@Z 5f42b040 f
 0001:0002a075       ?AfxConnectionAdvise@@YGHPAUIUnknown@@ABU_GUID@@0HPAK@Z 5f42b075 f
 0001:0002a0e7       ?AfxConnectionUnadvise@@YGHPAUIUnknown@@ABU_GUID@@0HK@Z 5f42b0e7 f
 0001:0002a164       ?_AfxRegisterClipFormat@@YGGABU_GUID@@@Z 5f42b164 f
 0001:0002a1c1       ?_AfxGetClipboardFormatConvertVBX@@YGGXZ 5f42b1c1 f
 0001:0002a1dd       ?_AfxGetClipboardFormatPersistPropset@@YGGXZ 5f42b1dd f
 0001:0002a1f9       ?_AfxOleMatchPropsetClipFormat@@YGHGPAU_GUID@@@Z 5f42b1f9 f
 0001:0002a233       ?AddRef@XDataObject@COleControl@@UAGKXZ 5f42b233 f
 0001:0002a245       ?Release@XDataObject@COleControl@@UAGKXZ 5f42b245 f
 0001:0002a257       ?QueryInterface@XDataObject@COleControl@@UAGJABU_GUID@@PAPAX@Z 5f42b257 f
 0001:0002a271       ?GetData@XDataObject@COleControl@@UAGJPAUtagFORMATETC@@PAUtagSTGMEDIUM@@@Z 5f42b271 f
 0001:0002a2a0       ?GetDataHere@XDataObject@COleControl@@UAGJPAUtagFORMATETC@@PAUtagSTGMEDIUM@@@Z 5f42b2a0 f
 0001:0002a2cf       ?QueryGetData@XDataObject@COleControl@@UAGJPAUtagFORMATETC@@@Z 5f42b2cf f
 0001:0002a2fa       ?GetCanonicalFormatEtc@XDataObject@COleControl@@UAGJPAUtagFORMATETC@@0@Z 5f42b2fa f
 0001:0002a329       ?SetData@XDataObject@COleControl@@UAGJPAUtagFORMATETC@@PAUtagSTGMEDIUM@@H@Z 5f42b329 f
 0001:0002a35c       ?EnumFormatEtc@XDataObject@COleControl@@UAGJKPAPAUIEnumFORMATETC@@@Z 5f42b35c f
 0001:0002a38b       ?DAdvise@XDataObject@COleControl@@UAGJPAUtagFORMATETC@@KPAUIAdviseSink@@PAK@Z 5f42b38b f
 0001:0002a3cf       ?DUnadvise@XDataObject@COleControl@@UAGJK@Z 5f42b3cf f
 0001:0002a3ee       ?EnumDAdvise@XDataObject@COleControl@@UAGJPAPAUIEnumSTATDATA@@@Z 5f42b3ee f
 0001:0002a411       ??0CControlDataSource@COleControl@@QAE@PAV1@@Z 5f42b411 f
 0001:0002a433       ??_GCControlDataSource@COleControl@@UAEPAXI@Z 5f42b433 f
 0001:0002a433       ??_ECControlDataSource@COleControl@@UAEPAXI@Z 5f42b433 f
 0001:0002a44f       ??1CControlDataSource@COleControl@@UAE@XZ 5f42b44f f
 0001:0002a44f       ??1COleDataSource@@UAE@XZ  5f42b44f f
 0001:0002a4a1       ?OnRenderGlobalData@CControlDataSource@COleControl@@MAEHPAUtagFORMATETC@@PAPAX@Z 5f42b4a1 f
 0001:0002a4b7       ?OnRenderFileData@CControlDataSource@COleControl@@MAEHPAUtagFORMATETC@@PAVCFile@@@Z 5f42b4b7 f
 0001:0002a4cd       ?OnRenderData@CControlDataSource@COleControl@@MAEHPAUtagFORMATETC@@PAUtagSTGMEDIUM@@@Z 5f42b4cd f
 0001:0002a4ff       ?OnSetData@CControlDataSource@COleControl@@MAEHPAUtagFORMATETC@@PAUtagSTGMEDIUM@@H@Z 5f42b4ff f
 0001:0002a519       ?OnRenderData@COleControl@@UAEHPAUtagFORMATETC@@PAUtagSTGMEDIUM@@@Z 5f42b519 f
 0001:0002a567       ?OnSetData@COleControl@@UAEHPAUtagFORMATETC@@PAUtagSTGMEDIUM@@H@Z 5f42b567 f
 0001:0002a5b5       ?GetDataSource@COleControl@@IAEPAVCControlDataSource@1@XZ 5f42b5b5 f
 0001:0002a64d       ?SetInitialDataFormats@COleControl@@MAEXXZ 5f42b64d f
 0001:0002a6dc       ?InitStockEventMask@COleControl@@IAEXXZ 5f42b6dc f
 0001:0002a74f       ?GetEventMap@COleControl@@MBEPBUAFX_EVENTMAP@@XZ 5f42b74f f
 0001:0002a755       ?GetEventMapEntry@COleControl@@IBEPBUAFX_EVENTMAP_ENTRY@@PBDPAJ@Z 5f42b755 f
 0001:0002a7b9       ?FireEventV@COleControl@@IAEXJPAEPAD@Z 5f42b7b9 f
 0001:0002a85c       ?FireEvent@COleControl@@QAAXJPAEZZ 5f42b85c f
 0001:0002a873       ?_AfxShiftState@@YGFXZ     5f42b873 f
 0001:0002a8ac       ?OnSysKeyDown@COleControl@@IAEXIII@Z 5f42b8ac f
 0001:0002a8f9       ?OnSysKeyUp@COleControl@@IAEXIII@Z 5f42b8f9 f
 0001:0002a946       ?OnKeyDown@COleControl@@IAEXIII@Z 5f42b946 f
 0001:0002a993       ?OnKeyUp@COleControl@@IAEXIII@Z 5f42b993 f
 0001:0002a9e0       ?KeyUp@COleControl@@IAEXPAG@Z 5f42b9e0 f
 0001:0002aa32       ?KeyDown@COleControl@@IAEXPAG@Z 5f42ba32 f
 0001:0002aa84       ?_AfxPostTrailByte@@YGXPAVCWnd@@E@Z 5f42ba84 f
 0001:0002aaf2       ?OnGetDlgCode@COleControl@@IAEIXZ 5f42baf2 f
 0001:0002ab29       ?OnChar@COleControl@@IAEXIII@Z 5f42bb29 f
 0001:0002aca6       ?OnKeyUpEvent@COleControl@@UAEXGG@Z 5f42bca6 f
 0001:0002aca9       ?ButtonDown@COleControl@@IAEXGIVCPoint@@@Z 5f42bca9 f
 0001:0002ad32       ?ButtonUp@COleControl@@IAEXGIVCPoint@@@Z 5f42bd32 f
 0001:0002ae06       ?ButtonDblClk@COleControl@@IAEXGIVCPoint@@@Z 5f42be06 f
 0001:0002ae5a       ?OnMouseMove@COleControl@@IAEXIVCPoint@@@Z 5f42be5a f
 0001:0002aeb3       ?OnLButtonDown@COleControl@@IAEXIVCPoint@@@Z 5f42beb3 f
 0001:0002aec9       ?OnLButtonUp@COleControl@@IAEXIVCPoint@@@Z 5f42bec9 f
 0001:0002aedf       ?OnLButtonDblClk@COleControl@@IAEXIVCPoint@@@Z 5f42bedf f
 0001:0002aef5       ?OnMButtonDown@COleControl@@IAEXIVCPoint@@@Z 5f42bef5 f
 0001:0002af0b       ?OnMButtonUp@COleControl@@IAEXIVCPoint@@@Z 5f42bf0b f
 0001:0002af21       ?OnMButtonDblClk@COleControl@@IAEXIVCPoint@@@Z 5f42bf21 f
 0001:0002af37       ?OnRButtonDown@COleControl@@IAEXIVCPoint@@@Z 5f42bf37 f
 0001:0002af4d       ?OnRButtonUp@COleControl@@IAEXIVCPoint@@@Z 5f42bf4d f
 0001:0002af63       ?OnRButtonDblClk@COleControl@@IAEXIVCPoint@@@Z 5f42bf63 f
 0001:0002af79       ?OnButtonDown@COleControl@@IAEXGIVCPoint@@@Z 5f42bf79 f
 0001:0002afb4       ?OnButtonUp@COleControl@@IAEXGIVCPoint@@@Z 5f42bfb4 f
 0001:0002b028       ?OnButtonDblClk@COleControl@@IAEXGIVCPoint@@@Z 5f42c028 f
 0001:0002b055       ?OnCancelMode@COleControl@@IAEXXZ 5f42c055 f
 0001:0002b083       ?OnClick@COleControl@@UAEXG@Z 5f42c083 f
 0001:0002b0aa       ?FireError@COleControl@@QAEXJPBDI@Z 5f42c0aa f
 0001:0002b1dc       ?DisplayError@COleControl@@UAEXJPBD00I@Z 5f42c1dc f
 0001:0002b1ee       ?_GetBaseMessageMap@CControlFrameWnd@@KGPBUAFX_MSGMAP@@XZ 5f42c1ee f
 0001:0002b1f4       ?GetMessageMap@CControlFrameWnd@@MBEPBUAFX_MSGMAP@@XZ 5f42c1f4 f
 0001:0002b1fa       ??0CControlFrameWnd@@QAE@PAVCOleControl@@@Z 5f42c1fa f
 0001:0002b215       ?PreCreateWindow@CControlFrameWnd@@UAEHAAUtagCREATESTRUCTA@@@Z 5f42c215 f
 0001:0002b233       ?Create@CControlFrameWnd@@UAEHPBD@Z 5f42c233 f
 0001:0002b25a       ?OnClose@CControlFrameWnd@@IAEXXZ 5f42c25a f
 0001:0002b271       ?PostNcDestroy@CControlFrameWnd@@MAEXXZ 5f42c271 f
 0001:0002b27d       ?OnActivate@CControlFrameWnd@@IAEXIPAVCWnd@@H@Z 5f42c27d f
 0001:0002b291       ??0CFontHolder@@QAE@PAUIPropertyNotifySink@@@Z 5f42c291 f
 0001:0002b2a4       ?SetFontNotifySink@CFontHolder@@QAEXPAUIPropertyNotifySink@@@Z 5f42c2a4 f
 0001:0002b2ae       ??1CFontHolder@@QAE@XZ     5f42c2ae f
 0001:0002b2ae       ?ReleaseFont@CFontHolder@@QAEXXZ 5f42c2ae f
 0001:0002b2d7       ?InitializeFont@CFontHolder@@QAEXPBUtagFONTDESC@@PAUIDispatch@@@Z 5f42c2d7 f
 0001:0002b354       ?_AfxIsSameFont@@YGHAAVCFontHolder@@PBUtagFONTDESC@@PAUIFontDisp@@@Z 5f42c354 f
 0001:0002b4e7       ?GetFontHandle@CFontHolder@@QAEPAUHFONT__@@XZ 5f42c4e7 f
 0001:0002b4f8       ?GetFontHandle@CFontHolder@@QAEPAUHFONT__@@JJ@Z 5f42c4f8 f
 0001:0002b52d       ?Select@CFontHolder@@QAEPAVCFont@@PAVCDC@@JJ@Z 5f42c52d f
 0001:0002b578       ?QueryTextMetrics@CFontHolder@@QAEXPAUtagTEXTMETRICA@@@Z 5f42c578 f
 0001:0002b5af       ?SetFont@CFontHolder@@QAEXPAUIFont@@@Z 5f42c5af f
 0001:0002b5df       ?GetDisplayString@CFontHolder@@QAEHAAVCString@@@Z 5f42c5df f
 0001:0002b5f0       ??0_AFXCTL_UIACTIVE_INFO@@QAE@PAUHMENU__@@PAUIOleInPlaceFrame@@@Z 5f42c5f0 f
 0001:0002b65d       ??1_AFXCTL_UIACTIVE_INFO@@QAE@XZ 5f42c65d f
 0001:0002b67e       ?_GetClippingCoordinates@@YGXPBUtagRECT@@0PAU1@PAUtagPOINT@@@Z 5f42c67e f
 0001:0002b6e5       ?OnActivateInPlace@COleControl@@MAEJHPAUtagMSG@@@Z 5f42c6e5 f
 0001:0002bab0       ?ForwardActivationMsg@COleControl@@IAEXPAUtagMSG@@@Z 5f42cab0 f
 0001:0002bb7c       ?BuildSharedMenu@COleControl@@MAEHXZ 5f42cb7c f
 0001:0002bc1b       ?DestroySharedMenu@COleControl@@MAEXXZ 5f42cc1b f
 0001:0002bc83       ?AddFrameLevelUI@COleControl@@MAEXXZ 5f42cc83 f
 0001:0002bcb1       ?RemoveFrameLevelUI@COleControl@@MAEXXZ 5f42ccb1 f
 0001:0002bce5       ?OnShowToolBars@COleControl@@UAEXXZ 5f42cce5 f
 0001:0002bcf4       ?AddRef@XOleInPlaceObject@COleControl@@UAGKXZ 5f42ccf4 f
 0001:0002bd06       ?Release@XOleInPlaceObject@COleControl@@UAGKXZ 5f42cd06 f
 0001:0002bd18       ?QueryInterface@XOleInPlaceObject@COleControl@@UAGJABU_GUID@@PAPAX@Z 5f42cd18 f
 0001:0002bd32       ?GetWindow@XOleInPlaceObject@COleControl@@UAGJPAPAUHWND__@@@Z 5f42cd32 f
 0001:0002bd68       ?InPlaceDeactivate@XOleInPlaceObject@COleControl@@UAGJXZ 5f42cd68 f
 0001:0002be24       ?UIDeactivate@XOleInPlaceObject@COleControl@@UAGJXZ 5f42ce24 f
 0001:0002bec8       ?SetObjectRects@XOleInPlaceObject@COleControl@@UAGJPBUtagRECT@@0@Z 5f42cec8 f
 0001:0002bf26       ?OnSetObjectRects@COleControl@@UAEHPBUtagRECT@@0@Z 5f42cf26 f
 0001:0002c01e       ?ReactivateAndUndo@XOleInPlaceObject@COleControl@@UAGJXZ 5f42d01e f
 0001:0002c026       ?AddRef@XOleInPlaceActiveObject@COleControl@@UAGKXZ 5f42d026 f
 0001:0002c038       ?Release@XOleInPlaceActiveObject@COleControl@@UAGKXZ 5f42d038 f
 0001:0002c04a       ?QueryInterface@XOleInPlaceActiveObject@COleControl@@UAGJABU_GUID@@PAPAX@Z 5f42d04a f
 0001:0002c064       ?GetWindow@XOleInPlaceActiveObject@COleControl@@UAGJPAPAUHWND__@@@Z 5f42d064 f
 0001:0002c078       ?ContextSensitiveHelp@XOleInPlaceActiveObject@COleControl@@UAGJH@Z 5f42d078 f
 0001:0002c080       ?TranslateAcceleratorA@XOleInPlaceActiveObject@COleControl@@UAGJPAUtagMSG@@@Z 5f42d080 f
 0001:0002c0fd       ?OnDocWindowActivate@XOleInPlaceActiveObject@COleControl@@UAGJH@Z 5f42d0fd f
 0001:0002c164       ?ResizeBorder@XOleInPlaceActiveObject@COleControl@@UAGJPBUtagRECT@@PAUIOleInPlaceUIWindow@@H@Z 5f42d164 f
 0001:0002c169       ?AfxVerifyLicFile@@YGHPAUHINSTANCE__@@PBDPBGI@Z 5f42d169 f
 0001:0002c266       ??0CConnectionPoint@@QAE@XZ 5f42d266 f
 0001:0002c287       ??_ECConnectionPoint@@UAEPAXI@Z 5f42d287 f
 0001:0002c287       ??_GCConnectionPoint@@UAEPAXI@Z 5f42d287 f
 0001:0002c2a3       ?GetStartPosition@CConnectionPoint@@QBEPAU__POSITION@@XZ 5f42d2a3 f
 0001:0002c2c1       ?GetNextConnection@CConnectionPoint@@QBEPAUIUnknown@@AAPAU__POSITION@@@Z 5f42d2c1 f
 0001:0002c2f5       ?GetConnections@CConnectionPoint@@QAEPBVCPtrArray@@XZ 5f42d2f5 f
 0001:0002c308       ?GetMaxConnections@CConnectionPoint@@UAEHXZ 5f42d308 f
 0001:0002c30c       ?GetContainer@CConnectionPoint@@UAEPAUIConnectionPointContainer@@XZ 5f42d30c f
 0001:0002c32a       ?CreateConnectionArray@CConnectionPoint@@QAEXXZ 5f42d32a f
 0001:0002c380       ?GetConnectionCount@CConnectionPoint@@QAEHXZ 5f42d380 f
 0001:0002c398       ?QuerySinkInterface@CConnectionPoint@@UAEPAUIUnknown@@PAU2@@Z 5f42d398 f
 0001:0002c3bd       ?Release@XConnPt@CConnectionPoint@@UAGKXZ 5f42d3bd f
 0001:0002c3cc       ?AddRef@XConnPt@CConnectionPoint@@UAGKXZ 5f42d3cc f
 0001:0002c3dd       ?QueryInterface@XConnPt@CConnectionPoint@@UAGJABU_GUID@@PAPAX@Z 5f42d3dd f
 0001:0002c427       ?GetConnectionInterface@XConnPt@CConnectionPoint@@UAGJPAU_GUID@@@Z 5f42d427 f
 0001:0002c447       ?GetConnectionPointContainer@XConnPt@CConnectionPoint@@UAGJPAPAUIConnectionPointContainer@@@Z 5f42d447 f
 0001:0002c46b       ?Advise@XConnPt@CConnectionPoint@@UAGJPAUIUnknown@@PAK@Z 5f42d46b f
 0001:0002c4fd       ?Unadvise@XConnPt@CConnectionPoint@@UAGJK@Z 5f42d4fd f
 0001:0002c56a       ?GetInterfaceMap@CEnumConnections@@MBEPBUAFX_INTERFACEMAP@@XZ 5f42d56a f
 0001:0002c570       ??0CEnumConnections@@QAE@PBXI@Z 5f42d570 f
 0001:0002c594       ??_GCEnumConnections@@UAEPAXI@Z 5f42d594 f
 0001:0002c594       ??_ECEnumConnections@@UAEPAXI@Z 5f42d594 f
 0001:0002c5b0       ??1CEnumConnections@@UAE@XZ 5f42d5b0 f
 0001:0002c606       ?OnClone@CEnumConnections@@MAEPAVCEnumArray@@XZ 5f42d606 f
 0001:0002c64f       ?AddConnection@CEnumConnections@@QAEXPAUtagCONNECTDATA@@@Z 5f42d64f f
 0001:0002c6b8       ?EnumConnections@XConnPt@CConnectionPoint@@UAGJPAPAUIEnumConnections@@@Z 5f42d6b8 f
 0001:0002c7a7       ?GetInterfaceMap@CEnumConnPoints@@MBEPBUAFX_INTERFACEMAP@@XZ 5f42d7a7 f
 0001:0002c7ad       ??0CEnumConnPoints@@QAE@PBXI@Z 5f42d7ad f
 0001:0002c7d1       ??_ECEnumConnPoints@@UAEPAXI@Z 5f42d7d1 f
 0001:0002c7d1       ??_GCEnumConnPoints@@UAEPAXI@Z 5f42d7d1 f
 0001:0002c7ed       ??1CEnumConnPoints@@UAE@XZ 5f42d7ed f
 0001:0002c843       ?AddConnPoint@CEnumConnPoints@@QAEXPAUIConnectionPoint@@@Z 5f42d843 f
 0001:0002c8a1       ?AddRef@COleConnPtContainer@@UAGKXZ 5f42d8a1 f
 0001:0002c8b0       ?Release@COleConnPtContainer@@UAGKXZ 5f42d8b0 f
 0001:0002c8bf       ?QueryInterface@COleConnPtContainer@@UAGJABU_GUID@@PAPAX@Z 5f42d8bf f
 0001:0002c8d6       ?EnumConnectionPoints@COleConnPtContainer@@UAGJPAPAUIEnumConnectionPoints@@@Z 5f42d8d6 f
 0001:0002c9d7       ?FindConnectionPoint@COleConnPtContainer@@UAGJABU_GUID@@PAPAUIConnectionPoint@@@Z 5f42d9d7 f
 0001:0002ca49       ?EnableConnections@CCmdTarget@@QAEXXZ 5f42da49 f
 0001:0002ca51       ?AddRef@XOleObject@COleControl@@UAGKXZ 5f42da51 f
 0001:0002ca63       ?Release@XOleObject@COleControl@@UAGKXZ 5f42da63 f
 0001:0002ca75       ?QueryInterface@XOleObject@COleControl@@UAGJABU_GUID@@PAPAX@Z 5f42da75 f
 0001:0002ca8f       ?SetClientSite@XOleObject@COleControl@@UAGJPAUIOleClientSite@@@Z 5f42da8f f
 0001:0002cc03       ?GetClientSite@XOleObject@COleControl@@UAGJPAPAUIOleClientSite@@@Z 5f42dc03 f
 0001:0002cc2f       ?Close@XOleObject@COleControl@@UAGJK@Z 5f42dc2f f
 0001:0002cc7e       ?OnClose@COleControl@@UAEXK@Z 5f42dc7e f
 0001:0002ccc7       ?SetMoniker@XOleObject@COleControl@@UAGJKPAUIMoniker@@@Z 5f42dcc7 f
 0001:0002cccf       ?DoVerb@XOleObject@COleControl@@UAGJJPAUtagMSG@@PAUIOleClientSite@@JPAUHWND__@@PBUtagRECT@@@Z 5f42dccf f
 0001:0002ce59       ?OnDoVerb@COleControl@@UAEHJPAUtagMSG@@PAUHWND__@@PBUtagRECT@@@Z 5f42de59 f
 0001:0002ce71       ?EnumVerbs@XOleObject@COleControl@@UAGJPAPAUIEnumOLEVERB@@@Z 5f42de71 f
 0001:0002cecc       ?OnEnumVerbs@COleControl@@UAEHPAPAUIEnumOLEVERB@@@Z 5f42decc f
 0001:0002ced8       ?GetUserClassID@XOleObject@COleControl@@UAGJPAU_GUID@@@Z 5f42ded8 f
 0001:0002cef5       ?GetUserType@XOleObject@COleControl@@UAGJKPAPAG@Z 5f42def5 f
 0001:0002cf5a       ?GetUserType@COleControl@@IAEXPAD@Z 5f42df5a f
 0001:0002cfa8       ?SetExtent@XOleObject@COleControl@@UAGJKPAUtagSIZE@@@Z 5f42dfa8 f
 0001:0002cfdd       ?OnSetExtent@COleControl@@UAEHPAUtagSIZE@@@Z 5f42dfdd f
 0001:0002d0c6       ?GetExtent@XOleObject@COleControl@@UAGJKPAUtagSIZE@@@Z 5f42e0c6 f
 0001:0002d0f2       ?Advise@XOleObject@COleControl@@UAGJPAUIAdviseSink@@PAK@Z 5f42e0f2 f
 0001:0002d11f       ?Unadvise@XOleObject@COleControl@@UAGJK@Z 5f42e11f f
 0001:0002d13e       ?EnumAdvise@XOleObject@COleControl@@UAGJPAPAUIEnumSTATDATA@@@Z 5f42e13e f
 0001:0002d15d       ?GetMiscStatus@XOleObject@COleControl@@UAGJKPAK@Z 5f42e15d f
 0001:0002d18a       ??0CPictureHolder@@QAE@XZ  5f42e18a f
 0001:0002d190       ??1CPictureHolder@@QAE@XZ  5f42e190 f
 0001:0002d197       ?CreateEmpty@CPictureHolder@@QAEHXZ 5f42e197 f
 0001:0002d1cf       ?CreateFromBitmap@CPictureHolder@@QAEHI@Z 5f42e1cf f
 0001:0002d236       ?CreateFromBitmap@CPictureHolder@@QAEHPAVCBitmap@@PAVCPalette@@H@Z 5f42e236 f
 0001:0002d28a       ?CreateFromBitmap@CPictureHolder@@QAEHPAUHBITMAP__@@PAUHPALETTE__@@H@Z 5f42e28a f
 0001:0002d2d4       ?CreateFromMetafile@CPictureHolder@@QAEHPAUHMETAFILE__@@HHH@Z 5f42e2d4 f
 0001:0002d324       ?CreateFromIcon@CPictureHolder@@QAEHI@Z 5f42e324 f
 0001:0002d34f       ?CreateFromIcon@CPictureHolder@@QAEHPAUHICON__@@H@Z 5f42e34f f
 0001:0002d393       ?GetPictureDispatch@CPictureHolder@@QAEPAUIPictureDisp@@XZ 5f42e393 f
 0001:0002d3b4       ?SetPictureDispatch@CPictureHolder@@QAEXPAUIPictureDisp@@@Z 5f42e3b4 f
 0001:0002d3f3       ?Render@CPictureHolder@@QAEXPAVCDC@@ABVCRect@@1@Z 5f42e3f3 f
 0001:0002d457       ?GetType@CPictureHolder@@QAEFXZ 5f42e457 f
 0001:0002d475       ?GetDisplayString@CPictureHolder@@QAEHAAVCString@@@Z 5f42e475 f
 0001:0002d521       ?_AfxGetArchiveStream@@YGPAUIStream@@AAVCArchive@@AAVCArchiveStream@@@Z 5f42e521 f
 0001:0002d552       ?_AfxInitBlob@@YGHPAPAXPAX@Z 5f42e552 f
 0001:0002d5a6       ?_AfxCopyBlob@@YGHPAPAXPAX@Z 5f42e5a6 f
 0001:0002d5d3       ?_AfxCopyPropValue@@YGHGPAXPBX@Z 5f42e5d3 f
 0001:0002d65a       ?ExchangeExtent@COleControl@@QAEHPAVCPropExchange@@@Z 5f42e65a f
 0001:0002d6e3       ?SerializeVersion@COleControl@@QAEKAAVCArchive@@KH@Z 5f42e6e3 f
 0001:0002d717       ?ResetVersion@COleControl@@QAEXK@Z 5f42e717 f
 0001:0002d721       ?SerializeExtent@COleControl@@QAEXAAVCArchive@@@Z 5f42e721 f
 0001:0002d797       ?ExchangeVersion@CPropExchange@@UAEHAAKKH@Z 5f42e797 f
 0001:0002d7e8       ??0CArchivePropExchange@@QAE@AAVCArchive@@@Z 5f42e7e8 f
 0001:0002d80b       ?ExchangeProp@CArchivePropExchange@@UAEHPBDGPAXPBX@Z 5f42e80b f
 0001:0002d970       ?ExchangeBlobProp@CArchivePropExchange@@UAEHPBDPAPAXPAX@Z 5f42e970 f
 0001:0002da16       ?_AfxPeekAtClassIDInStream@@YGHPAUIStream@@PAU_GUID@@@Z 5f42ea16 f
 0001:0002da4f       ?_AfxIsSameUnknownObject@@YGHABU_GUID@@PAUIUnknown@@1@Z 5f42ea4f f
 0001:0002dabb       ?ExchangePersistentProp@CArchivePropExchange@@UAEHPBDPAPAUIUnknown@@ABU_GUID@@PAU2@@Z 5f42eabb f
 0001:0002dd1c       ?ExchangeFontProp@CArchivePropExchange@@UAEHPBDAAVCFontHolder@@PBUtagFONTDESC@@PAUIFontDisp@@@Z 5f42ed1c f
 0001:0002de01       ??0CResetPropExchange@@QAE@XZ 5f42ee01 f
 0001:0002de19       ?ExchangeProp@CResetPropExchange@@UAEHPBDGPAXPBX@Z 5f42ee19 f
 0001:0002de2d       ?ExchangeBlobProp@CResetPropExchange@@UAEHPBDPAPAXPAX@Z 5f42ee2d f
 0001:0002de5a       ?ExchangePersistentProp@CResetPropExchange@@UAEHPBDPAPAUIUnknown@@ABU_GUID@@PAU2@@Z 5f42ee5a f
 0001:0002de87       ?ExchangeFontProp@CResetPropExchange@@UAEHPBDAAVCFontHolder@@PBUtagFONTDESC@@PAUIFontDisp@@@Z 5f42ee87 f
 0001:0002de9e       ??0CAsyncPropExchange@@QAE@K@Z 5f42ee9e f
 0001:0002deb9       ?ExchangeVersion@CAsyncPropExchange@@UAEHAAKKH@Z 5f42eeb9 f
 0001:0002deed       ?PX_Short@@YAHPAVCPropExchange@@PBDAAF@Z 5f42eeed f
 0001:0002df0d       ?PX_UShort@@YAHPAVCPropExchange@@PBDAAGG@Z 5f42ef0d f
 0001:0002df30       ?PX_ULong@@YAHPAVCPropExchange@@PBDAAKK@Z 5f42ef30 f
 0001:0002df53       ?PX_Color@@YAHPAVCPropExchange@@PBDAAK@Z 5f42ef53 f
 0001:0002df73       ?PX_Bool@@YAHPAVCPropExchange@@PBDAAH@Z 5f42ef73 f
 0001:0002df93       ?PX_Bool@@YAHPAVCPropExchange@@PBDAAHH@Z 5f42ef93 f
 0001:0002dfb6       ?PX_String@@YAHPAVCPropExchange@@PBDAAVCString@@@Z 5f42efb6 f
 0001:0002dfd6       ?PX_String@@YAHPAVCPropExchange@@PBDAAVCString@@ABV2@@Z 5f42efd6 f
 0001:0002dff8       ?PX_String@@YAHPAVCPropExchange@@PBDAAVCString@@1@Z 5f42eff8 f
 0001:0002e01a       ?PX_Currency@@YAHPAVCPropExchange@@PBDAATtagCY@@@Z 5f42f01a f
 0001:0002e03a       ?PX_Currency@@YAHPAVCPropExchange@@PBDAATtagCY@@T2@@Z 5f42f03a f
 0001:0002e05d       ?PX_Float@@YAHPAVCPropExchange@@PBDAAM@Z 5f42f05d f
 0001:0002e07d       ?PX_Float@@YAHPAVCPropExchange@@PBDAAMM@Z 5f42f07d f
 0001:0002e0a0       ?PX_Double@@YAHPAVCPropExchange@@PBDAAN@Z 5f42f0a0 f
 0001:0002e0c0       ?PX_Double@@YAHPAVCPropExchange@@PBDAANN@Z 5f42f0c0 f
 0001:0002e0e3       ?PX_Blob@@YAHPAVCPropExchange@@PBDAAPAXPAX@Z 5f42f0e3 f
 0001:0002e103       ?PX_Font@@YAHPAVCPropExchange@@PBDAAVCFontHolder@@PBUtagFONTDESC@@PAUIFontDisp@@@Z 5f42f103 f
 0001:0002e127       ?PX_IUnknown@@YAHPAVCPropExchange@@PBDAAPAUIUnknown@@ABU_GUID@@PAU2@@Z 5f42f127 f
 0001:0002e14b       ?PX_Picture@@YAHPAVCPropExchange@@PBDAAVCPictureHolder@@@Z 5f42f14b f
 0001:0002e172       ?PX_Picture@@YAHPAVCPropExchange@@PBDAAVCPictureHolder@@2@Z 5f42f172 f
 0001:0002e19d       ?PX_VBXFontConvert@@YAHPAVCPropExchange@@AAVCFontHolder@@@Z 5f42f19d f
 0001:0002e305       ?_Afx_PX_DataPath@@YGHPAVCPropExchange@@PBDAAVCDataPathProperty@@GPBX@Z 5f42f305 f
 0001:0002e429       ?PX_DataPath@@YAHPAVCPropExchange@@PBDAAVCDataPathProperty@@1@Z 5f42f429 f
 0001:0002e441       ?PX_DataPath@@YAHPAVCPropExchange@@PBDAAVCDataPathProperty@@ABVCString@@@Z 5f42f441 f
 0001:0002e459       ?GetPath@CDataPathProperty@@QBE?AVCString@@XZ 5f42f459 f
 0001:0002e474       ?GetInterfaceMap@COlePropertyPage@@MBEPBUAFX_INTERFACEMAP@@XZ 5f42f474 f
 0001:0002e47a       ?_GetBaseMessageMap@COlePropertyPage@@KGPBUAFX_MSGMAP@@XZ 5f42f47a f
 0001:0002e480       ??0AFX_DDPDATA@@QAE@PAXHH0IPBD@Z 5f42f480 f
 0001:0002e4b3       ?_AfxCleanupDDPs@@YGXAAVCPtrArray@@@Z 5f42f4b3 f
 0001:0002e4ea       ??0COlePropertyPage@@QAE@II@Z 5f42f4ea f
 0001:0002e5d5       ??_GCOlePropertyPage@@UAEPAXI@Z 5f42f5d5 f
 0001:0002e5d5       ??_ECOlePropertyPage@@UAEPAXI@Z 5f42f5d5 f
 0001:0002e5f1       ?OnSetPageSite@COlePropertyPage@@UAEXXZ 5f42f5f1 f
 0001:0002e769       ?OnInitDialog@COlePropertyPage@@UAEHXZ 5f42f769 f
 0001:0002e771       ?PreTranslateMessage@COlePropertyPage@@MAEHPAUtagMSG@@@Z 5f42f771 f
 0001:0002e861       ?CleanupObjectArray@COlePropertyPage@@IAEXXZ 5f42f861 f
 0001:0002e8f9       ?OnFinalRelease@COlePropertyPage@@MAEXXZ 5f42f8f9 f
 0001:0002e916       ?WindowProc@COlePropertyPage@@MAEJIIJ@Z 5f42f916 f
 0001:0002e999       ?OnCtlColor@COlePropertyPage@@IAEPAUHBRUSH__@@PAVCDC@@PAVCWnd@@I@Z 5f42f999 f
 0001:0002e9e6       ?GetObjectArray@COlePropertyPage@@QAEPAPAUIDispatch@@PAK@Z 5f42f9e6 f
 0001:0002e9ff       ?SetModifiedFlag@COlePropertyPage@@QAEXH@Z 5f42f9ff f
 0001:0002ea40       ?IsModified@COlePropertyPage@@QAEHXZ 5f42fa40 f
 0001:0002ea44       ?SetPageName@COlePropertyPage@@QAEXPBD@Z 5f42fa44 f
 0001:0002ea56       ?SetDialogResource@COlePropertyPage@@QAEXPAX@Z 5f42fa56 f
 0001:0002eac5       ?SetHelpInfo@COlePropertyPage@@QAEXPBD0K@Z 5f42fac5 f
 0001:0002eaf4       ?GetPageSite@COlePropertyPage@@QAEPAUIPropertyPageSite@@XZ 5f42faf4 f
 0001:0002eafb       ?MessageBoxA@COlePropertyPage@@QAEHPBD0I@Z 5f42fafb f
 0001:0002eb26       ?AddRef@XPropertyPage@COlePropertyPage@@UAGKXZ 5f42fb26 f
 0001:0002eb38       ?Release@XPropertyPage@COlePropertyPage@@UAGKXZ 5f42fb38 f
 0001:0002eb4a       ?QueryInterface@XPropertyPage@COlePropertyPage@@UAGJABU_GUID@@PAPAX@Z 5f42fb4a f
 0001:0002eb64       ?SetPageSite@XPropertyPage@COlePropertyPage@@UAGJPAUIPropertyPageSite@@@Z 5f42fb64 f
 0001:0002ebcd       ?Activate@XPropertyPage@COlePropertyPage@@UAGJPAUHWND__@@PBUtagRECT@@H@Z 5f42fbcd f
 0001:0002ed16       ?EnumChildProc@COlePropertyPage@@KGHPAUHWND__@@J@Z 5f42fd16 f
 0001:0002ed26       ?EnumControls@COlePropertyPage@@KGHPAUHWND__@@J@Z 5f42fd26 f
 0001:0002ed5c       ?Deactivate@XPropertyPage@COlePropertyPage@@UAGJXZ 5f42fd5c f
 0001:0002eda5       ?GetPageInfo@XPropertyPage@COlePropertyPage@@UAGJPAUtagPROPPAGEINFO@@@Z 5f42fda5 f
 0001:0002ede9       ?SetObjects@XPropertyPage@COlePropertyPage@@UAGJKPAPAUIUnknown@@@Z 5f42fde9 f
 0001:0002ef19       ?Show@XPropertyPage@COlePropertyPage@@UAGJI@Z 5f42ff19 f
 0001:0002ef43       ?Move@XPropertyPage@COlePropertyPage@@UAGJPBUtagRECT@@@Z 5f42ff43 f
 0001:0002ef72       ?IsPageDirty@XPropertyPage@COlePropertyPage@@UAGJXZ 5f42ff72 f
 0001:0002ef81       ?Apply@XPropertyPage@COlePropertyPage@@UAGJXZ 5f42ff81 f
 0001:0002f03a       ?Help@XPropertyPage@COlePropertyPage@@UAGJPBG@Z 5f43003a f
 0001:0002f0d5       ?_AfxAtEndOfTabList@@YGHPAVCDialog@@I@Z 5f4300d5 f
 0001:0002f175       ?TranslateAcceleratorA@XPropertyPage@COlePropertyPage@@UAGJPAUtagMSG@@@Z 5f430175 f
 0001:0002f333       ?EditProperty@XPropertyPage@COlePropertyPage@@UAGJJ@Z 5f430333 f
 0001:0002f38e       ?QueryInterface@XPropNotifySink@COlePropertyPage@@UAGJABU_GUID@@PAPAX@Z 5f43038e f
 0001:0002f3d8       ?OnRequestEdit@XPropNotifySink@COlePropertyPage@@UAGJJ@Z 5f4303d8 f
 0001:0002f3dd       ?OnChanged@XPropNotifySink@COlePropertyPage@@UAGJJ@Z 5f4303dd f
 0001:0002f448       ?_AfxIsRadioButton@@YGHPAUHWND__@@@Z 5f430448 f
 0001:0002f46b       ?OnCommand@COlePropertyPage@@MAEHIJ@Z 5f43046b f
 0001:0002f5dd       ?IgnoreApply@COlePropertyPage@@QAEXI@Z 5f4305dd f
 0001:0002f5f2       ?GetControlStatus@COlePropertyPage@@QAEHI@Z 5f4305f2 f
 0001:0002f626       ?SetControlStatus@COlePropertyPage@@QAEHIH@Z 5f430626 f
 0001:0002f660       ?SetPropText@COlePropertyPage@@QAEHPBDAAE@Z 5f430660 f
 0001:0002f763       ?GetPropText@COlePropertyPage@@QAEHPBDPAE@Z 5f430763 f
 0001:0002f880       ?SetPropText@COlePropertyPage@@QAEHPBDAAF@Z 5f430880 f
 0001:0002f983       ?GetPropText@COlePropertyPage@@QAEHPBDPAF@Z 5f430983 f
 0001:0002faa5       ?SetPropText@COlePropertyPage@@QAEHPBDAAH@Z 5f430aa5 f
 0001:0002fba6       ?GetPropText@COlePropertyPage@@QAEHPBDPAH@Z 5f430ba6 f
 0001:0002fcc3       ?SetPropText@COlePropertyPage@@QAEHPBDAAI@Z 5f430cc3 f
 0001:0002fdc4       ?GetPropText@COlePropertyPage@@QAEHPBDPAI@Z 5f430dc4 f
 0001:0002fee1       ?SetPropText@COlePropertyPage@@QAEHPBDAAJ@Z 5f430ee1 f
 0001:0002ffe2       ?GetPropText@COlePropertyPage@@QAEHPBDPAJ@Z 5f430fe2 f
 0001:000300ff       ?SetPropText@COlePropertyPage@@QAEHPBDAAK@Z 5f4310ff f
 0001:00030200       ?GetPropText@COlePropertyPage@@QAEHPBDPAK@Z 5f431200 f
 0001:0003031d       ?SetPropText@COlePropertyPage@@QAEHPBDAAM@Z 5f43131d f
 0001:00030423       ?GetPropText@COlePropertyPage@@QAEHPBDPAM@Z 5f431423 f
 0001:00030551       ?SetPropText@COlePropertyPage@@QAEHPBDAAN@Z 5f431551 f
 0001:00030657       ?GetPropText@COlePropertyPage@@QAEHPBDPAN@Z 5f431657 f
 0001:00030786       ?SetPropText@COlePropertyPage@@QAEHPBDAAVCString@@@Z 5f431786 f
 0001:00030887       ?GetPropText@COlePropertyPage@@QAEHPBDPAVCString@@@Z 5f431887 f
 0001:00030a09       ?SetPropCheck@COlePropertyPage@@QAEHPBDH@Z 5f431a09 f
 0001:00030b11       ?GetPropCheck@COlePropertyPage@@QAEHPBDPAH@Z 5f431b11 f
 0001:00030c36       ?SetPropRadio@COlePropertyPage@@QAEHPBDH@Z 5f431c36 f
 0001:00030d37       ?GetPropRadio@COlePropertyPage@@QAEHPBDPAH@Z 5f431d37 f
 0001:00030e60       ?SetPropIndex@COlePropertyPage@@QAEHPBDH@Z 5f431e60 f
 0001:00030e70       ?GetPropIndex@COlePropertyPage@@QAEHPBDPAH@Z 5f431e70 f
 0001:00030e80       ?DDP_EndText@@YGXPAVCDataExchange@@HPAEPBD@Z 5f431e80 f
 0001:00030e9c       ?DDP_Text@@YGXPAVCDataExchange@@HAAEPBD@Z 5f431e9c f
 0001:00030f0e       ?DDP_EndText@@YGXPAVCDataExchange@@HPAFPBD@Z 5f431f0e f
 0001:00030f2a       ?DDP_Text@@YGXPAVCDataExchange@@HAAFPBD@Z 5f431f2a f
 0001:00030f9c       ?DDP_EndText@@YGXPAVCDataExchange@@HPAHPBD@Z 5f431f9c f
 0001:00030fb8       ?DDP_Text@@YGXPAVCDataExchange@@HAAHPBD@Z 5f431fb8 f
 0001:0003102a       ?DDP_EndText@@YGXPAVCDataExchange@@HPAIPBD@Z 5f43202a f
 0001:00031046       ?DDP_Text@@YGXPAVCDataExchange@@HAAIPBD@Z 5f432046 f
 0001:000310b8       ?DDP_EndText@@YGXPAVCDataExchange@@HPAJPBD@Z 5f4320b8 f
 0001:000310d4       ?DDP_Text@@YGXPAVCDataExchange@@HAAJPBD@Z 5f4320d4 f
 0001:00031146       ?DDP_EndText@@YGXPAVCDataExchange@@HPAKPBD@Z 5f432146 f
 0001:00031162       ?DDP_Text@@YGXPAVCDataExchange@@HAAKPBD@Z 5f432162 f
 0001:000311d4       ?DDP_EndText@@YGXPAVCDataExchange@@HPAMPBD@Z 5f4321d4 f
 0001:000311f0       ?DDP_Text@@YGXPAVCDataExchange@@HAAMPBD@Z 5f4321f0 f
 0001:00031262       ?DDP_EndText@@YGXPAVCDataExchange@@HPANPBD@Z 5f432262 f
 0001:0003127e       ?DDP_Text@@YGXPAVCDataExchange@@HAANPBD@Z 5f43227e f
 0001:000312f0       ?DDP_EndText@@YGXPAVCDataExchange@@HPAVCString@@PBD@Z 5f4322f0 f
 0001:0003130c       ?DDP_Text@@YGXPAVCDataExchange@@HAAVCString@@PBD@Z 5f43230c f
 0001:0003137e       ?DDP_EndCheck@@YGXPAVCDataExchange@@HPAHPBD@Z 5f43237e f
 0001:0003139c       ?DDP_Check@@YGXPAVCDataExchange@@HAAHPBD@Z 5f43239c f
 0001:0003140e       ?DDP_EndRadio@@YGXPAVCDataExchange@@HPAHPBD@Z 5f43240e f
 0001:0003142c       ?DDP_Radio@@YGXPAVCDataExchange@@HAAHPBD@Z 5f43242c f
 0001:0003149e       ?DDP_PostProcessing@@YGXPAVCDataExchange@@@Z 5f43249e f
 0001:0003158e       ?InitStockPropMask@COleControl@@IAEXXZ 5f43258e f
 0001:000315f9       ?_AfxToggleBorderStyle@@YGXPAVCWnd@@@Z 5f4325f9 f
 0001:00031633       ?_AfxToggleAppearance@@YGXPAVCWnd@@@Z 5f432633 f
 0001:0003166d       ?ExchangeStockProps@COleControl@@QAEXPAVCPropExchange@@@Z 5f43266d f
 0001:0003195b       ?SerializeStockProps@COleControl@@QAEXAAVCArchive@@@Z 5f43295b f
 0001:00031d2f       ?ResetStockProps@COleControl@@QAEXXZ 5f432d2f f
 0001:00031e18       ?GetAppearance@COleControl@@QAEFXZ 5f432e18 f
 0001:00031e20       ?SetAppearance@COleControl@@QAEXF@Z 5f432e20 f
 0001:00031e93       ?GetBackColor@COleControl@@QAEKXZ 5f432e93 f
 0001:00031e9a       ?SetBackColor@COleControl@@QAEXK@Z 5f432e9a f
 0001:00031f0a       ?GetBorderStyle@COleControl@@QAEFXZ 5f432f0a f
 0001:00031f12       ?SetBorderStyle@COleControl@@QAEXF@Z 5f432f12 f
 0001:00031f85       ?InternalGetText@COleControl@@QAEABVCString@@XZ 5f432f85 f
 0001:00031ffc       ?GetText@COleControl@@QAEPAGXZ 5f432ffc f
 0001:00032003       ?AllocSysString@CString@@QBEPAGXZ 5f433003 f
 0001:0003204c       ?SetText@COleControl@@QAEXPBD@Z 5f43304c f
 0001:0003207e       ?OnSetText@COleControl@@IAEJIJ@Z 5f43307e f
 0001:0003218a       ?GetEnabled@COleControl@@QAEHXZ 5f43318a f
 0001:00032191       ?SetEnabled@COleControl@@QAEXH@Z 5f433191 f
 0001:0003220e       ?InternalGetFont@COleControl@@QAEAAVCFontHolder@@XZ 5f43320e f
 0001:00032215       ?GetFont@COleControl@@QAEPAUIFontDisp@@XZ 5f433215 f
 0001:0003221b       ?GetFontDispatch@CFontHolder@@QAEPAUIFontDisp@@XZ 5f43321b f
 0001:0003223c       ?SetFont@COleControl@@QAEXPAUIFontDisp@@@Z 5f43323c f
 0001:00032271       ?OnFontChanged@COleControl@@UAEXXZ 5f433271 f
 0001:00032316       ?GetForeColor@COleControl@@QAEKXZ 5f433316 f
 0001:0003231d       ?SetForeColor@COleControl@@QAEXK@Z 5f43331d f
 0001:0003238d       ?OnForeColorChanged@COleControl@@UAEXXZ 5f43338d f
 0001:00032397       ?GetHwnd@COleControl@@QAEIXZ 5f433397 f
 0001:000323a7       ?GetReadyState@COleControl@@QAEJXZ 5f4333a7 f
 0001:000323ae       ?QueryInterface@XFontNotification@COleControl@@UAGJABU_GUID@@PAPAX@Z 5f4333ae f
 0001:000323f2       ?OnChanged@XFontNotification@COleControl@@UAGJJ@Z 5f4333f2 f
 0001:00032451       ?SelectStockFont@COleControl@@QAEPAVCFont@@PAVCDC@@@Z 5f433451 f
 0001:00032464       ?SelectFontObject@COleControl@@QAEPAVCFont@@PAVCDC@@AAVCFontHolder@@@Z 5f433464 f
 0001:00032481       ?GetStockTextMetrics@COleControl@@QAEXPAUtagTEXTMETRICA@@@Z 5f433481 f
 0001:00032493       ?GetFontTextMetrics@COleControl@@QAEXPAUtagTEXTMETRICA@@AAVCFontHolder@@@Z 5f433493 f
 0001:000324a3       ?_GetI4Property@@YGHPAUIDispatch@@JPAK@Z 5f4334a3 f
 0001:0003255e       ?GetAmbientDispatchDriver@COleControl@@IAEPAVCOleDispatchDriver@@XZ 5f43355e f
 0001:0003259d       ?GetAmbientProperty@COleControl@@QAEHJGPAX@Z 5f43359d f
 0001:000326dd       ?AmbientAppearance@COleControl@@QAEFXZ 5f4336dd f
 0001:000326fe       ?AmbientBackColor@COleControl@@QAEKXZ 5f4336fe f
 0001:00032726       ?AmbientDisplayName@COleControl@@QAE?AVCString@@XZ 5f433726 f
 0001:00032788       ?AmbientFont@COleControl@@QAEPAUIFontDisp@@XZ 5f433788 f
 0001:000327a8       ?AmbientForeColor@COleControl@@QAEKXZ 5f4337a8 f
 0001:000327d0       ?AmbientLocaleID@COleControl@@QAEKXZ 5f4337d0 f
 0001:000327f0       ?AmbientScaleUnits@COleControl@@QAE?AVCString@@XZ 5f4337f0 f
 0001:00032852       ?AmbientTextAlign@COleControl@@QAEFXZ 5f433852 f
 0001:00032873       ?AmbientUserMode@COleControl@@QAEHXZ 5f433873 f
 0001:00032897       ?AmbientUIDead@COleControl@@QAEHXZ 5f433897 f
 0001:000328b7       ?AmbientShowGrabHandles@COleControl@@QAEHXZ 5f4338b7 f
 0001:000328db       ?AmbientShowHatching@COleControl@@QAEHXZ 5f4338db f
 0001:000328ff       ?BoundPropertyChanged@COleControl@@QAEXJ@Z 5f4338ff f
 0001:00032937       ?BoundPropertyRequestEdit@COleControl@@QAEHJ@Z 5f433937 f
 0001:00032979       ?SetNotPermitted@COleControl@@QAEXXZ 5f433979 f
 0001:0003298b       ?SetNotSupported@COleControl@@QAEXXZ 5f43398b f
 0001:0003299d       ?GetNotSupported@COleControl@@QAEXXZ 5f43399d f
 0001:000329af       ?AddRef@XPerPropertyBrowsing@COleControl@@UAGKXZ 5f4339af f
 0001:000329c1       ?Release@XPerPropertyBrowsing@COleControl@@UAGKXZ 5f4339c1 f
 0001:000329d3       ?QueryInterface@XPerPropertyBrowsing@COleControl@@UAGJABU_GUID@@PAPAX@Z 5f4339d3 f
 0001:000329ed       ?GetDisplayString@XPerPropertyBrowsing@COleControl@@UAGJJPAPAG@Z 5f4339ed f
 0001:00032a7e       ?OnGetDisplayString@COleControl@@UAEHJAAVCString@@@Z 5f433a7e f
 0001:00032af3       ?MapPropertyToPage@XPerPropertyBrowsing@COleControl@@UAGJJPAU_GUID@@@Z 5f433af3 f
 0001:00032b87       ?OnMapPropertyToPage@COleControl@@UAEHJPAU_GUID@@PAH@Z 5f433b87 f
 0001:00032bcc       ?GetPredefinedStrings@XPerPropertyBrowsing@COleControl@@UAGJJPAUtagCALPOLESTR@@PAUtagCADWORD@@@Z 5f433bcc f
 0001:00032d5b       ?_AfxCopyString@@YGPAGPBD@Z 5f433d5b f
 0001:00032d9b       ?OnGetPredefinedStrings@COleControl@@UAEHJPAVCStringArray@@PAVCDWordArray@@@Z 5f433d9b f
 0001:00032e67       ?GetPredefinedValue@XPerPropertyBrowsing@COleControl@@UAGJJKPAUtagVARIANT@@@Z 5f433e67 f
 0001:00032ec8       ?OnGetPredefinedValue@COleControl@@UAEHJKPAUtagVARIANT@@@Z 5f433ec8 f
 0001:00032f00       ?Load@COleControl@@QAEXPBDAAVCDataPathProperty@@@Z 5f433f00 f
 0001:00032f17       ?Open@CDataPathProperty@@UAEHPAVCFileException@@@Z 5f433f17 f
 0001:00032f3e       ?Open@CDataPathProperty@@UAEHPBDPAVCFileException@@@Z 5f433f3e f
 0001:00032f5f       ?Open@CDataPathProperty@@UAEHPAVCOleControl@@PAVCFileException@@@Z 5f433f5f f
 0001:00032f75       ?Open@CDataPathProperty@@UAEHPBDPAVCOleControl@@PAVCFileException@@@Z 5f433f75 f
 0001:00032f9d       ?_AfxTransferFileContent@@YAKPAVCFile@@0@Z 5f433f9d f
 0001:00032fe6       ?OnDataAvailable@CCachedDataPathProperty@@UAEXKK@Z 5f433fe6 f
 0001:0003305d       ?Close@CCachedDataPathProperty@@UAEXXZ 5f43405d f
 0001:00033074       ?ResetData@CCachedDataPathProperty@@UAEXXZ 5f434074 f
 0001:00033080       ?_AfxCreateMemoryStream@@YGPAUIStream@@XZ 5f434080 f
 0001:000330be       ?GetPropsetData@COleControl@@IAEHPAUtagFORMATETC@@PAUtagSTGMEDIUM@@ABU_GUID@@@Z 5f4340be f
 0001:000332ea       ?SetPropsetData@COleControl@@IAEHPAUtagFORMATETC@@PAUtagSTGMEDIUM@@ABU_GUID@@@Z 5f4342ea f
 0001:0003345d       ??0CPropsetPropExchange@@QAE@AAVCPropertySection@@PAUIStorage@@H@Z 5f43445d f
 0001:0003348c       ?_AfxGetSizeOfVarType@@YGIG@Z 5f43448c f
 0001:000334c3       ?_AfxCoerceNumber@@YGHPAXG0G@Z 5f4344c3 f
 0001:0003353e       ?_AfxIsSamePropValue@@YGHGPBX0@Z 5f43453e f
 0001:000335b0       ?ExchangeProp@CPropsetPropExchange@@UAEHPBDGPAXPBX@Z 5f4345b0 f
 0001:000337ec       ?ExchangeBlobProp@CPropsetPropExchange@@UAEHPBDPAPAXPAX@Z 5f4347ec f
 0001:000338cc       ?_AfxSaveStreamDataAsBlobProp@@YGHPAUIStream@@AAVCPropertySection@@KK@Z 5f4348cc f
 0001:00033995       ?_AfxInitStreamDataFromBlobProp@@YGHPAUIStream@@PAVCProperty@@@Z 5f434995 f
 0001:000339ef       ?_AfxCreateFontFromStream@@YGPAUIFont@@PAUIStream@@@Z 5f4349ef f
 0001:00033ac0       ?_AfxLoadObjectFromStreamedPropset@@YGHPAUIUnknown@@PAUIStream@@@Z 5f434ac0 f
 0001:00033b35       ?_AfxGetClassIDFromStreamedPropset@@YGHPAU_GUID@@PAUIStream@@@Z 5f434b35 f
 0001:00033ba5       ?_AfxCreateObjectFromStreamedPropset@@YGPAUIUnknown@@PAUIStream@@ABU_GUID@@@Z 5f434ba5 f
 0001:00033c95       ?_AfxLoadStreamFromPropset@@YGPAUIStream@@AAVCPropertySection@@PBDAAK@Z 5f434c95 f
 0001:00033d00       ?_AfxSaveObjectInPropset@@YGHPAUIUnknown@@AAVCPropertySection@@K@Z 5f434d00 f
 0001:00033e25       ?ExchangePersistentProp@CPropsetPropExchange@@UAEHPBDPAPAUIUnknown@@ABU_GUID@@PAU2@@Z 5f434e25 f
 0001:00033f69       ?ExchangeFontProp@CPropsetPropExchange@@UAEHPBDAAVCFontHolder@@PBUtagFONTDESC@@PAUIFontDisp@@@Z 5f434f69 f
 0001:00034023       ?AddRef@XPersistStorage@COleControl@@UAGKXZ 5f435023 f
 0001:00034035       ?Release@XPersistStorage@COleControl@@UAGKXZ 5f435035 f
 0001:00034047       ?QueryInterface@XPersistStorage@COleControl@@UAGJABU_GUID@@PAPAX@Z 5f435047 f
 0001:00034061       ?GetClassID@XPersistStorage@COleControl@@UAGJPAU_GUID@@@Z 5f435061 f
 0001:0003407e       ?IsDirty@XPersistStorage@COleControl@@UAGJXZ 5f43507e f
 0001:000340c8       ?InitNew@XPersistStorage@COleControl@@UAGJPAUIStorage@@@Z 5f4350c8 f
 0001:00034160       ?Load@XPersistStorage@COleControl@@UAGJPAUIStorage@@@Z 5f435160 f
 0001:00034279       ?Save@XPersistStorage@COleControl@@UAGJPAUIStorage@@H@Z 5f435279 f
 0001:00034348       ?SaveCompleted@XPersistStorage@COleControl@@UAGJPAUIStorage@@@Z 5f435348 f
 0001:0003438d       ?HandsOffStorage@XPersistStorage@COleControl@@UAGJXZ 5f43538d f
 0001:000343bf       ?AddRef@XPersistStreamInit@COleControl@@UAGKXZ 5f4353bf f
 0001:000343d1       ?Release@XPersistStreamInit@COleControl@@UAGKXZ 5f4353d1 f
 0001:000343e3       ?QueryInterface@XPersistStreamInit@COleControl@@UAGJABU_GUID@@PAPAX@Z 5f4353e3 f
 0001:000343fd       ?GetClassID@XPersistStreamInit@COleControl@@UAGJPAU_GUID@@@Z 5f4353fd f
 0001:0003441a       ?IsDirty@XPersistStreamInit@COleControl@@UAGJXZ 5f43541a f
 0001:0003442f       ?Load@XPersistStreamInit@COleControl@@UAGJPAUIStream@@@Z 5f43542f f
 0001:00034479       ?Save@XPersistStreamInit@COleControl@@UAGJPAUIStream@@H@Z 5f435479 f
 0001:000344d0       ?InitNew@XPersistStreamInit@COleControl@@UAGJXZ 5f4354d0 f
 0001:0003453e       ?AddRef@XPersistMemory@COleControl@@UAGKXZ 5f43553e f
 0001:00034550       ?Release@XPersistMemory@COleControl@@UAGKXZ 5f435550 f
 0001:00034562       ?QueryInterface@XPersistMemory@COleControl@@UAGJABU_GUID@@PAPAX@Z 5f435562 f
 0001:0003457c       ?GetClassID@XPersistMemory@COleControl@@UAGJPAU_GUID@@@Z 5f43557c f
 0001:00034599       ?IsDirty@XPersistMemory@COleControl@@UAGJXZ 5f435599 f
 0001:000345ae       ?Load@XPersistMemory@COleControl@@UAGJPAXK@Z 5f4355ae f
 0001:000346bc       ?Save@XPersistMemory@COleControl@@UAGJPAXHK@Z 5f4356bc f
 0001:000346c4       ?InitNew@XPersistMemory@COleControl@@UAGJXZ 5f4356c4 f
 0001:00034732       ?Create@CReflectorWnd@@QAEHABVCRect@@PAUHWND__@@@Z 5f435732 f
 0001:00034776       ?PostNcDestroy@CReflectorWnd@@MAEXXZ 5f435776 f
 0001:00034797       ?WindowProc@CReflectorWnd@@MAEJIIJ@Z 5f435797 f
 0001:0003482a       ?SetControl@CReflectorWnd@@QAEXPAVCOleControl@@@Z 5f43582a f
 0001:00034834       ?WindowProc@CParkingWnd@@UAEJIIJ@Z 5f435834 f
 0001:00034941       ?_AfxRecursiveRegDeleteKey@@YGJPAUHKEY__@@PAD@Z 5f435941 f
 0001:00034986       ?_AfxUnregisterInterfaces@@YAXPAUITypeLib@@@Z 5f435986 f
 0001:00034a66       ?AfxOleRegisterTypeLib@@YGHPAUHINSTANCE__@@ABU_GUID@@PBD2@Z 5f435a66 f
 0001:00034c3e       ?AfxOleUnregisterTypeLib@@YGHABU_GUID@@GGK@Z 5f435c3e f
 0001:00034f0e       ?AfxOleRegisterControlClass@@YGHPAUHINSTANCE__@@ABU_GUID@@PBDIIHK1GG@Z 5f435f0e f
 0001:00035222       ?AfxOleUnregisterClass@@YGHABU_GUID@@PBD@Z 5f436222 f
 0001:000353b7       ?AfxOleRegisterPropertyPageClass@@YGHPAUHINSTANCE__@@ABU_GUID@@I@Z 5f4363b7 f
 0001:000353cd       ?AfxOleRegisterPropertyPageClass@@YGHPAUHINSTANCE__@@ABU_GUID@@IH@Z 5f4363cd f
 0001:00035563       ?_AfxOffsetTrackerRect@@YGXAAVCRect@@PAVCWnd@@@Z 5f436563 f
 0001:000355d2       ?CreateTracker@COleControl@@IAEXHH@Z 5f4365d2 f
 0001:000355e4       ?CreateTracker@COleControl@@IAEXHHPBUtagRECT@@@Z 5f4365e4 f
 0001:000356b5       ?DestroyTracker@COleControl@@IAEXXZ 5f4366b5 f
 0001:000356f3       ?OnNcPaint@COleControl@@IAEXXZ 5f4366f3 f
 0001:0003585b       ?OnNcCalcSize@COleControl@@IAEXHPAUtagNCCALCSIZE_PARAMS@@@Z 5f43685b f
 0001:000358a7       ?OnNcHitTest@COleControl@@IAEIVCPoint@@@Z 5f4368a7 f
 0001:00035986       ?OnNcLButtonDown@COleControl@@IAEXIVCPoint@@@Z 5f436986 f
 0001:00035b48       ?OnSetCursor@COleControl@@IAEHPAVCWnd@@II@Z 5f436b48 f
 0001:00035bae       ??_GCControlRectTracker@@UAEPAXI@Z 5f436bae f
 0001:00035bae       ??_ECControlRectTracker@@UAEPAXI@Z 5f436bae f
 0001:00035bca       ??1CRectTracker@@UAE@XZ    5f436bca f
 0001:00035bca       ??1CControlRectTracker@@UAE@XZ 5f436bca f
 0001:00035bd1       ?OnGetColorSet@COleControl@@UAEHPAUtagDVTARGETDEVICE@@PAUHDC__@@PAPAUtagLOGPALETTE@@@Z 5f436bd1 f
 0001:00035bd6       ?OnGetViewExtent@COleControl@@UAEHKJPAUtagDVTARGETDEVICE@@PAUtagSIZE@@@Z 5f436bd6 f
 0001:00035c08       ?OnGetViewRect@COleControl@@UAEHKPAU_RECTL@@@Z 5f436c08 f
 0001:00035c3f       ?OnQueryHitPoint@COleControl@@UAEHKPBUtagRECT@@UtagPOINT@@JPAK@Z 5f436c3f f
 0001:00035c59       ?OnQueryHitRect@COleControl@@UAEHKPBUtagRECT@@0JPAK@Z 5f436c59 f
 0001:00035c73       ?OnGetNaturalExtent@COleControl@@UAEHKJPAUtagDVTARGETDEVICE@@PAUHDC__@@PAUtagExtentInfo@@PAUtagSIZE@@@Z 5f436c73 f
 0001:00035c78       ?AddRef@XViewObject@COleControl@@UAGKXZ 5f436c78 f
 0001:00035c8a       ?Release@XViewObject@COleControl@@UAGKXZ 5f436c8a f
 0001:00035c9c       ?QueryInterface@XViewObject@COleControl@@UAGJABU_GUID@@PAPAX@Z 5f436c9c f
 0001:00035cb6       ?Draw@XViewObject@COleControl@@UAGJKJPAXPAUtagDVTARGETDEVICE@@PAUHDC__@@2PBU_RECTL@@3P6GHK@ZK@Z 5f436cb6 f
 0001:00035e7f       ?GetColorSet@XViewObject@COleControl@@UAGJKJPAXPAUtagDVTARGETDEVICE@@PAUHDC__@@PAPAUtagLOGPALETTE@@@Z 5f436e7f f
 0001:00035eed       ?Freeze@XViewObject@COleControl@@UAGJKJPAXPAK@Z 5f436eed f
 0001:00035ef5       ?SetAdvise@XViewObject@COleControl@@UAGJKKPAUIAdviseSink@@@Z 5f436ef5 f
 0001:00035f93       ?GetAdvise@XViewObject@COleControl@@UAGJPAK0PAPAUIAdviseSink@@@Z 5f436f93 f
 0001:00035ff9       ?GetExtent@XViewObject@COleControl@@UAGJKJPAUtagDVTARGETDEVICE@@PAUtagSIZE@@@Z 5f436ff9 f
 0001:0003602b       ?GetRect@XViewObject@COleControl@@UAGJKPAU_RECTL@@@Z 5f43702b f
 0001:0003605a       ?GetViewStatus@XViewObject@COleControl@@UAGJPAK@Z 5f43705a f
 0001:0003607b       ?QueryHitPoint@XViewObject@COleControl@@UAGJKPBUtagRECT@@UtagPOINT@@JPAK@Z 5f43707b f
 0001:000360b3       ?QueryHitRect@XViewObject@COleControl@@UAGJKPBUtagRECT@@0JPAK@Z 5f4370b3 f
 0001:000360e8       ?GetNaturalExtent@XViewObject@COleControl@@UAGJKJPAUtagDVTARGETDEVICE@@PAUHDC__@@PAUtagExtentInfo@@PAUtagSIZE@@@Z 5f4370e8 f
 0001:00036120       ?_AfxCountPrefixedStringA@@YGPAXPBD@Z 5f437120 f
 0001:00036157       ?_AfxCountPrefixedStringW@@YGPAXPBG@Z 5f437157 f
 0001:00036192       ??0CProperty@@QAE@XZ       5f437192 f
 0001:0003619f       ??0CProperty@@QAE@KQAXK@Z  5f43719f f
 0001:000361c6       ??1CProperty@@QAE@XZ       5f4371c6 f
 0001:000361c6       ?FreeValue@CProperty@@AAEXXZ 5f4371c6 f
 0001:000361de       ?Set@CProperty@@QAEHKQAXK@Z 5f4371de f
 0001:000361f7       ?Set@CProperty@@QAEHQAXK@Z 5f4371f7 f
 0001:0003620a       ?Set@CProperty@@QAEHQAX@Z  5f43720a f
 0001:000363b3       ?Get@CProperty@@QAEPAXXZ   5f4373b3 f
 0001:000363bb       ?Get@CProperty@@QAEPAXPAK@Z 5f4373bb f
 0001:00036467       ?GetType@CProperty@@QAEKXZ 5f437467 f
 0001:0003646b       ?SetType@CProperty@@QAEXK@Z 5f43746b f
 0001:00036475       ?GetID@CProperty@@QAEKXZ   5f437475 f
 0001:00036478       ?GetRawValue@CProperty@@QAEPAXXZ 5f437478 f
 0001:0003647c       ?WriteToStream@CProperty@@QAEHPAUIStream@@@Z 5f43747c f
 0001:000365d4       ?ReadFromStream@CProperty@@QAEHPAUIStream@@@Z 5f4375d4 f
 0001:000367a3       ?AllocValue@CProperty@@AAEPAXK@Z 5f4377a3 f
 0001:000367b8       ??0CPropertySection@@QAE@XZ 5f4377b8 f
 0001:00036813       ??0CPropertySection@@QAE@U_GUID@@@Z 5f437813 f
 0001:0003686e       ??1CPropertySection@@QAE@XZ 5f43786e f
 0001:000368bc       ?GetFormatID@CPropertySection@@QAE?AU_GUID@@XZ 5f4378bc f
 0001:000368cf       ?SetFormatID@CPropertySection@@QAEXU_GUID@@@Z 5f4378cf f
 0001:000368e0       ?Set@CPropertySection@@QAEHKPAXK@Z 5f4378e0 f
 0001:00036960       ?Set@CPropertySection@@QAEHKPAX@Z 5f437960 f
 0001:0003698e       ?Get@CPropertySection@@QAEPAXK@Z 5f43798e f
 0001:0003699c       ?Get@CPropertySection@@QAEPAXKPAK@Z 5f43799c f
 0001:000369bb       ?Remove@CPropertySection@@QAEXK@Z 5f4379bb f
 0001:000369fa       ?RemoveAll@CPropertySection@@QAEXXZ 5f4379fa f
 0001:00036a33       ?GetProperty@CPropertySection@@QAEPAVCProperty@@K@Z 5f437a33 f
 0001:00036a50       ?AddProperty@CPropertySection@@QAEXPAVCProperty@@@Z 5f437a50 f
 0001:00036a66       ?GetSize@CPropertySection@@QAEKXZ 5f437a66 f
 0001:00036a6a       ?GetCount@CPropertySection@@QAEKXZ 5f437a6a f
 0001:00036a6e       ?GetList@CPropertySection@@QAEPAVCPtrList@@XZ 5f437a6e f
 0001:00036a72       ?WriteToStream@CPropertySection@@QAEHPAUIStream@@@Z 5f437a72 f
 0001:00036bc7       ?ReadFromStream@CPropertySection@@QAEHPAUIStream@@T_LARGE_INTEGER@@@Z 5f437bc7 f
 0001:00036cf4       ?GetID@CPropertySection@@QAEHPBDPAK@Z 5f437cf4 f
 0001:00036d58       ?SetName@CPropertySection@@QAEHKPBD@Z 5f437d58 f
 0001:00036de3       ?ReadNameDictFromStream@CPropertySection@@QAEHPAUIStream@@@Z 5f437de3 f
 0001:00036ea9       ?_AfxWriteNameDictEntry@@YGHPAUIStream@@KAAVCString@@@Z 5f437ea9 f
 0001:00036f29       ?WriteNameDictToStream@CPropertySection@@QAEHPAUIStream@@@Z 5f437f29 f
 0001:00036fda       ?SetSectionName@CPropertySection@@QAEHPBD@Z 5f437fda f
 0001:00036fec       ?GetSectionName@CPropertySection@@QAEPBDXZ 5f437fec f
 0001:00036ff0       ??0CPropertySet@@QAE@XZ    5f437ff0 f
 0001:00037030       ??0CPropertySet@@QAE@U_GUID@@@Z 5f438030 f
 0001:00037071       ?Set@CPropertySet@@QAEHU_GUID@@KPAXK@Z 5f438071 f
 0001:000370f7       ?Set@CPropertySet@@QAEHU_GUID@@KPAX@Z 5f4380f7 f
 0001:00037127       ?Get@CPropertySet@@QAEPAXU_GUID@@KPAK@Z 5f438127 f
 0001:00037157       ?Get@CPropertySet@@QAEPAXU_GUID@@K@Z 5f438157 f
 0001:00037176       ?Remove@CPropertySet@@QAEXU_GUID@@K@Z 5f438176 f
 0001:0003719e       ?Remove@CPropertySet@@QAEXU_GUID@@@Z 5f43819e f
 0001:000371f5       ?RemoveAll@CPropertySet@@QAEXXZ 5f4381f5 f
 0001:0003722e       ?GetSection@CPropertySet@@QAEPAVCPropertySection@@U_GUID@@@Z 5f43822e f
 0001:0003725d       ?AddSection@CPropertySet@@QAEPAVCPropertySection@@U_GUID@@@Z 5f43825d f
 0001:000372ce       ?AddSection@CPropertySet@@QAEXPAVCPropertySection@@@Z 5f4382ce f
 0001:000372e4       ?GetProperty@CPropertySet@@QAEPAVCProperty@@U_GUID@@K@Z 5f4382e4 f
 0001:00037310       ?AddProperty@CPropertySet@@QAEXU_GUID@@PAVCProperty@@@Z 5f438310 f
 0001:00037338       ?GetByteOrder@CPropertySet@@QAEGXZ 5f438338 f
 0001:0003733c       ?GetFormatVersion@CPropertySet@@QAEGXZ 5f43833c f
 0001:00037341       ?SetFormatVersion@CPropertySet@@QAEXG@Z 5f438341 f
 0001:0003734d       ?GetClassID@CPropertySet@@QAE?AU_GUID@@XZ 5f43834d f
 0001:00037361       ?SetClassID@CPropertySet@@QAEXU_GUID@@@Z 5f438361 f
 0001:00037373       ?GetCount@CPropertySet@@QAEKXZ 5f438373 f
 0001:00037377       ?GetList@CPropertySet@@QAEPAVCPtrList@@XZ 5f438377 f
 0001:0003737b       ?WriteToStream@CPropertySet@@QAEHPAUIStream@@@Z 5f43837b f
 0001:00037450       ?ReadFromStream@CPropertySet@@QAEHPAUIStream@@@Z 5f438450 f
 0001:0003757f       ??0CBlobProperty@@QAE@PAX@Z 5f43857f f
 0001:00037598       ?AddRef@CBlobProperty@@UAGKXZ 5f438598 f
 0001:000375a9       ?Release@CBlobProperty@@UAGKXZ 5f4385a9 f
 0001:000375cf       ?QueryInterface@CBlobProperty@@UAGJABU_GUID@@PAPAX@Z 5f4385cf f
 0001:00037637       ?GetClassID@CBlobProperty@@UAGJPAU_GUID@@@Z 5f438637 f
 0001:0003764d       ?IsDirty@CBlobProperty@@UAGJXZ 5f43864d f
 0001:00037652       ?Load@CBlobProperty@@UAGJPAUIStream@@@Z 5f438652 f
 0001:000376f1       ?Save@CBlobProperty@@UAGJPAUIStream@@H@Z 5f4386f1 f
 0001:0003774a       ?GetSizeMax@CBlobProperty@@UAGJPAT_ULARGE_INTEGER@@@Z 5f43874a f
 0001:00037781       ??0CPropbagPropExchange@@QAE@PAUIPropertyBag@@PAUIErrorLog@@HH@Z 5f438781 f
 0001:000377ca       ?ExchangeProp@CPropbagPropExchange@@UAEHPBDGPAXPBX@Z 5f4387ca f
 0001:00037a6f       ?ExchangeBlobProp@CPropbagPropExchange@@UAEHPBDPAPAXPAX@Z 5f438a6f f
 0001:00037bd6       ?ExchangeFontProp@CPropbagPropExchange@@UAEHPBDAAVCFontHolder@@PBUtagFONTDESC@@PAUIFontDisp@@@Z 5f438bd6 f
 0001:00037d14       ?ExchangePersistentProp@CPropbagPropExchange@@UAEHPBDPAPAUIUnknown@@ABU_GUID@@PAU2@@Z 5f438d14 f
 0001:00037e5d       ?AddRef@XPersistPropertyBag@COleControl@@UAGKXZ 5f438e5d f
 0001:00037e6f       ?Release@XPersistPropertyBag@COleControl@@UAGKXZ 5f438e6f f
 0001:00037e81       ?QueryInterface@XPersistPropertyBag@COleControl@@UAGJABU_GUID@@PAPAX@Z 5f438e81 f
 0001:00037e9b       ?GetClassID@XPersistPropertyBag@COleControl@@UAGJPAU_GUID@@@Z 5f438e9b f
 0001:00037eb8       ?InitNew@XPersistPropertyBag@COleControl@@UAGJXZ 5f438eb8 f
 0001:00037f26       ?Load@XPersistPropertyBag@COleControl@@UAGJPAUIPropertyBag@@PAUIErrorLog@@@Z 5f438f26 f
 0001:00038008       ?Save@XPersistPropertyBag@COleControl@@UAGJPAUIPropertyBag@@HH@Z 5f439008 f
 0001:000380b1       ??0_AFXCTL_AMBIENT_CACHE@@QAE@XZ 5f4390b1 f
 0001:000380ba       ?Cache@_AFXCTL_AMBIENT_CACHE@@QAEXPAUtagQACONTAINER@@@Z 5f4390ba f
 0001:00038111       ?AddRef@XQuickActivate@COleControl@@UAGKXZ 5f439111 f
 0001:00038123       ?Release@XQuickActivate@COleControl@@UAGKXZ 5f439123 f
 0001:00038135       ?QueryInterface@XQuickActivate@COleControl@@UAGJABU_GUID@@PAPAX@Z 5f439135 f
 0001:0003814f       ?QuickActivate@XQuickActivate@COleControl@@UAGJPAUtagQACONTAINER@@PAUtagQACONTROL@@@Z 5f43914f f
 0001:0003825a       ?SetContentExtent@XQuickActivate@COleControl@@UAGJPAUtagSIZE@@@Z 5f43925a f
 0001:00038270       ?GetContentExtent@XQuickActivate@COleControl@@UAGJPAUtagSIZE@@@Z 5f439270 f
 0001:00038286       ?_GetBaseClass@CWindowlessDC@@KGPAUCRuntimeClass@@XZ 5f439286 f
 0001:0003828c       ?GetRuntimeClass@CWindowlessDC@@UBEPAUCRuntimeClass@@XZ 5f43928c f
 0001:00038292       ??0CWindowlessDC@@QAE@PAUHDC__@@AAVCPoint@@@Z 5f439292 f
 0001:00038312       ??_GCWindowlessDC@@UAEPAXI@Z 5f439312 f
 0001:00038312       ??_ECWindowlessDC@@UAEPAXI@Z 5f439312 f
 0001:0003832e       ??1CWindowlessDC@@UAE@XZ   5f43932e f
 0001:00038333       ?Detach@CWindowlessDC@@QAEPAUHDC__@@XZ 5f439333 f
 0001:0003835b       ?GetClientOffset@COleControl@@UBEXPAJ0@Z 5f43935b f
 0001:000383b3       ?ParentToClient@COleControl@@UBEIPBUtagRECT@@PAUtagPOINT@@H@Z 5f4393b3 f
 0001:0003844a       ?ClientToParent@COleControl@@UBEXPBUtagRECT@@PAUtagPOINT@@@Z 5f43944a f
 0001:00038479       ?OnInactiveSetCursor@COleControl@@UAEHPBUtagRECT@@JJKH@Z 5f439479 f
 0001:000384e9       ?OnInactiveMouseMove@COleControl@@UAEXPBUtagRECT@@JJK@Z 5f4394e9 f
 0001:00038537       ?AddRef@XPointerInactive@COleControl@@UAGKXZ 5f439537 f
 0001:00038549       ?Release@XPointerInactive@COleControl@@UAGKXZ 5f439549 f
 0001:0003855b       ?QueryInterface@XPointerInactive@COleControl@@UAGJABU_GUID@@PAPAX@Z 5f43955b f
 0001:00038575       ?GetActivationPolicy@XPointerInactive@COleControl@@UAGJPAK@Z 5f439575 f
 0001:00038596       ?OnInactiveSetCursor@XPointerInactive@COleControl@@UAGJPBUtagRECT@@JJKH@Z 5f439596 f
 0001:000385c2       ?OnInactiveMouseMove@XPointerInactive@COleControl@@UAGJPBUtagRECT@@JJK@Z 5f4395c2 f
 0001:000385e8       ?OnWindowlessMessage@COleControl@@UAEHIIJPAJ@Z 5f4395e8 f
 0001:00038656       ?GetWindowlessDropTarget@COleControl@@UAEPAUIDropTarget@@XZ 5f439656 f
 0001:00038659       ?OnWindowMessage@XOleInPlaceObject@COleControl@@UAGJIIJPAJ@Z 5f439659 f
 0001:00038682       ?GetDropTarget@XOleInPlaceObject@COleControl@@UAGJPAPAUIDropTarget@@@Z 5f439682 f
 0001:000386af       ?SetCapture@COleControl@@QAEPAVCWnd@@XZ 5f4396af f
 0001:000386f0       ?ReleaseCapture@COleControl@@QAEHXZ 5f4396f0 f
 0001:0003871c       ?GetCapture@COleControl@@QAEPAVCWnd@@XZ 5f43971c f
 0001:00038755       ?SetFocus@COleControl@@QAEPAVCWnd@@XZ 5f439755 f
 0001:0003878e       ?GetFocus@COleControl@@QAEPAVCWnd@@XZ 5f43978e f
 0001:000387c7       ?GetDC@COleControl@@QAEPAVCDC@@PBUtagRECT@@K@Z 5f4397c7 f
 0001:000388bf       ?ReleaseDC@COleControl@@QAEHPAVCDC@@@Z 5f4398bf f
 0001:00038923       ?InvalidateRgn@COleControl@@QAEXPAVCRgn@@H@Z 5f439923 f
 0001:000389f6       ?ScrollWindow@COleControl@@QAEXHHPBUtagRECT@@0@Z 5f4399f6 f
 0001:00038ac0       ?ClipCaretRect@COleControl@@QAEHPAUtagRECT@@@Z 5f439ac0 f
 0001:00038b48       ?GetClientRect@COleControl@@UBEXPAUtagRECT@@@Z 5f439b48 f
 0001:00038bc7       ??0CColorButton@@QAE@XZ    5f439bc7 f
 0001:00038bdd       ??_ECColorButton@@UAEPAXI@Z 5f439bdd f
 0001:00038bdd       ??_GCColorButton@@UAEPAXI@Z 5f439bdd f
 0001:00038bf9       ??1CColorButton@@UAE@XZ    5f439bf9 f
 0001:00038bfe       ?SetFaceColor@CColorButton@@QAEXK@Z 5f439bfe f
 0001:00038c08       ?colGetFaceColor@CColorButton@@QAEKXZ 5f439c08 f
 0001:00038c0c       ?DrawItem@CColorButton@@MAEXPAUtagDRAWITEMSTRUCT@@@Z 5f439c0c f
 0001:00038dc2       ?GetMessageMap@CColorPropPage@@MBEPBUAFX_MSGMAP@@XZ 5f439dc2 f
 0001:00038dc8       ??0CColorPropPage@@QAE@XZ  5f439dc8 f
 0001:00038e58       ??_ECColorPropPage@@UAEPAXI@Z 5f439e58 f
 0001:00038e58       ??_GCColorPropPage@@UAEPAXI@Z 5f439e58 f
 0001:00038e74       ??1CColorPropPage@@UAE@XZ  5f439e74 f
 0001:00038ee9       ?OnInitDialog@CColorPropPage@@MAEHXZ 5f439ee9 f
 0001:00038f50       ?FillSysColors@CColorPropPage@@IAEXXZ 5f439f50 f
 0001:00038fe6       ?DoDataExchange@CColorPropPage@@MAEXPAVCDataExchange@@@Z 5f439fe6 f
 0001:00039178       ?SetColorProp@CColorPropPage@@IAEHPAVCDataExchange@@KPBD@Z 5f43a178 f
 0001:000392a6       ?GetColorProp@CColorPropPage@@IAEHPAVCDataExchange@@PAKPBD@Z 5f43a2a6 f
 0001:000393d4       ?OnSelect@CColorPropPage@@AAEXXZ 5f43a3d4 f
 0001:000393ec       ?SetButton@CColorPropPage@@AAEXPAVCColorButton@@@Z 5f43a3ec f
 0001:00039450       ?OnSelchangeColorprop@CColorPropPage@@AAEXXZ 5f43a450 f
 0001:0003945d       ?_AfxDraw3DFrame@@YAXPAVCDC@@VCRect@@KK@Z 5f43a45d f
 0001:0003957f       ?_AfxDraw3DButtonFrame@@YAXPAVCDC@@VCRect@@H@Z 5f43a57f f
 0001:0003974d       ?_AfxInitPalette@@YAPAUHPALETTE__@@XZ 5f43a74d f
 0001:00039854       ?OnSelchangeSystemcolors@CColorPropPage@@AAEXXZ 5f43a854 f
 0001:00039884       ?OnEditProperty@CColorPropPage@@MAEHJ@Z 5f43a884 f
 0001:00039897       ?OnObjectsChanged@CColorPropPage@@MAEXXZ 5f43a897 f
 0001:00039914       ?GetClassID@CColorPropPage@@UAEJPAU_GUID@@@Z 5f43a914 f
 0001:0003992a       ?UpdateRegistry@CColorPropPageFactory@CColorPropPage@@UAEHH@Z 5f43a92a f
 0001:0003995c       ??_ECColorPropPageFactory@CColorPropPage@@UAEPAXI@Z 5f43a95c f
 0001:0003995c       ??_GCColorPropPageFactory@CColorPropPage@@UAEPAXI@Z 5f43a95c f
 0001:00039978       ??1CColorPropPageFactory@CColorPropPage@@UAE@XZ 5f43a978 f
 0001:0003997d       ?GetMessageMap@CFontPropPage@@MBEPBUAFX_MSGMAP@@XZ 5f43a97d f
 0001:00039983       ??0CFontPropPage@@QAE@XZ   5f43a983 f
 0001:00039a46       ??_GCFontPropPage@@UAEPAXI@Z 5f43aa46 f
 0001:00039a46       ??_ECFontPropPage@@UAEPAXI@Z 5f43aa46 f
 0001:00039a62       ??1CSizeComboBox@@UAE@XZ   5f43aa62 f
 0001:00039a67       ??1CFontPropPage@@UAE@XZ   5f43aa67 f
 0001:00039b22       ??_GCSizeComboBox@@UAEPAXI@Z 5f43ab22 f
 0001:00039b22       ??_ECSizeComboBox@@UAEPAXI@Z 5f43ab22 f
 0001:00039b3e       ?_AfxStringFromCy@@YAHAAVCString@@AATtagCY@@@Z 5f43ab3e f
 0001:00039ba9       ?_AfxCyFromString@@YAHAATtagCY@@PBD@Z 5f43aba9 f
 0001:00039c4e       ?_AfxDrawMaskedBitmap@@YAXPAVCDC@@PAVCBitmap@@1HHHH@Z 5f43ac4e f
 0001:00039da3       ?_AfxInitMaskFromBitmap@@YAXPAVCBitmap@@0@Z 5f43ada3 f
 0001:00039ee7       ?DoDataExchange@CFontPropPage@@MAEXPAVCDataExchange@@@Z 5f43aee7 f
 0001:0003a100       ??0tagFONTOBJECT@@QAE@ABU0@@Z 5f43b100 f
 0001:0003a141       ?SetFontProps@CFontPropPage@@IAEHPAVCDataExchange@@UtagFONTOBJECT@@PBD@Z 5f43b141 f
 0001:0003a372       ?GetFontProps@CFontPropPage@@IAEHPAVCDataExchange@@PAUtagFONTOBJECT@@PBDPAUtagMERGEOBJECT@@@Z 5f43b372 f
 0001:0003a612       ?OnInitDialog@CFontPropPage@@MAEHXZ 5f43b612 f
 0001:0003a635       ?FillFacenameList@CFontPropPage@@IAEXXZ 5f43b635 f
 0001:0003a706       ?EnumFontFamiliesCallBack@CFontPropPage@@KGHPAUtagENUMLOGFONTA@@PAUtagNEWTEXTMETRICA@@HJ@Z 5f43b706 f
 0001:0003a7df       ?EnumFontFamiliesCallBack2@CFontPropPage@@KGHPAUtagENUMLOGFONTA@@PAUtagNEWTEXTMETRICA@@HJ@Z 5f43b7df f
 0001:0003a88e       ??0CFontComboBox@@QAE@XZ   5f43b88e f
 0001:0003a8f0       ??_GCFontComboBox@@UAEPAXI@Z 5f43b8f0 f
 0001:0003a8f0       ??_ECFontComboBox@@UAEPAXI@Z 5f43b8f0 f
 0001:0003a90c       ?AddFont@CFontComboBox@@QAEHPAUtagLOGFONTA@@K@Z 5f43b90c f
 0001:0003a9b5       ?GetFontItem@CFontComboBox@@QAEPAUFONTITEM_PPG@@H@Z 5f43b9b5 f
 0001:0003aa3f       ?GetLogFont@CFontComboBox@@QAEPAUtagLOGFONTA@@H@Z 5f43ba3f f
 0001:0003aa4e       ?GetFontType@CFontComboBox@@QAEKH@Z 5f43ba4e f
 0001:0003aa5c       ?GetCurrentName@CFontComboBox@@QAE?AVCString@@XZ 5f43ba5c f
 0001:0003aab7       ?DrawItem@CFontComboBox@@UAEXPAUtagDRAWITEMSTRUCT@@@Z 5f43bab7 f
 0001:0003abe3       ?DeleteItem@CFontComboBox@@UAEXPAUtagDELETEITEMSTRUCT@@@Z 5f43bbe3 f
 0001:0003abff       ?AddSize@CSizeComboBox@@QAEHHJ@Z 5f43bbff f
 0001:0003ad02       ?GetPointSize@CSizeComboBox@@QAEXAATtagCY@@@Z 5f43bd02 f
 0001:0003ad2d       ?GetHeight@CSizeComboBox@@QAEJH@Z 5f43bd2d f
 0001:0003adce       ?UpdateLogFont@CSizeComboBox@@QAEXPAUtagLOGFONTA@@H@Z 5f43bdce f
 0001:0003ade4       ?OnEditupdateFontnames@CFontPropPage@@IAEXXZ 5f43bde4 f
 0001:0003ae6d       ?OnEditupdateFontsizes@CFontPropPage@@IAEXXZ 5f43be6d f
 0001:0003aeca       ?OnSelchangeFontnames@CFontPropPage@@IAEXXZ 5f43beca f
 0001:0003aeca       ?FillSizeList@CFontPropPage@@IAEXXZ 5f43beca f
 0001:0003b122       ?UpdateSampleFont@CFontPropPage@@IAEXXZ 5f43c122 f
 0001:0003b1e1       ?OnPaint@CFontPropPage@@MAEXXZ 5f43c1e1 f
 0001:0003b388       ?OnSelchangeFontsizes@CFontPropPage@@IAEXXZ 5f43c388 f
 0001:0003b3c1       ?OnSelchangeFontstyles@CFontPropPage@@IAEXXZ 5f43c3c1 f
 0001:0003b402       ?OnEditchangeFontstyles@CFontPropPage@@IAEXXZ 5f43c402 f
 0001:0003b4ad       ?SelectFontFromList@CFontPropPage@@IAEXVCString@@PAUtagMERGEOBJECT@@@Z 5f43c4ad f
 0001:0003b620       ?OnStrikeout@CFontPropPage@@IAEXXZ 5f43c620 f
 0001:0003b65e       ?OnUnderline@CFontPropPage@@IAEXXZ 5f43c65e f
 0001:0003b69c       ?OnSelchangeFontprop@CFontPropPage@@IAEXXZ 5f43c69c f
 0001:0003b6a9       ?OnObjectsChanged@CFontPropPage@@MAEXXZ 5f43c6a9 f
 0001:0003b755       ?GetClassID@CFontPropPage@@UAEJPAU_GUID@@@Z 5f43c755 f
 0001:0003b76b       ?UpdateRegistry@CFontPropPageFactory@CFontPropPage@@UAEHH@Z 5f43c76b f
 0001:0003b79d       ??_9@$BOM@AE               5f43c79d f
 0001:0003b7a5       ?GetMessageMap@CPicturePropPage@@MBEPBUAFX_MSGMAP@@XZ 5f43c7a5 f
 0001:0003b7ab       ??0CPicturePropPage@@QAE@XZ 5f43c7ab f
 0001:0003b817       ??_GCPicturePropPage@@UAEPAXI@Z 5f43c817 f
 0001:0003b817       ??_ECPicturePropPage@@UAEPAXI@Z 5f43c817 f
 0001:0003b833       ??1CPicturePropPage@@UAE@XZ 5f43c833 f
 0001:0003b8b4       ?OnInitDialog@CPicturePropPage@@MAEHXZ 5f43c8b4 f
 0001:0003b8fa       ?DoDataExchange@CPicturePropPage@@MAEXPAVCDataExchange@@@Z 5f43c8fa f
 0001:0003b98c       ?SetPictureProp@CPicturePropPage@@IAEHPAVCDataExchange@@PAUIPictureDisp@@PBD@Z 5f43c98c f
 0001:0003bace       ?GetPictureProp@CPicturePropPage@@IAEHPAVCDataExchange@@PAPAUIPictureDisp@@PBD@Z 5f43cace f
 0001:0003bc42       ?OnPaint@CPicturePropPage@@IAEXXZ 5f43cc42 f
 0001:0003bdba       ?_AfxCreateStreamOnFile@@YAJPBDPAPAUIStream@@PAJ@Z 5f43cdba f
 0001:0003becc       ?OnBrowse@CPicturePropPage@@IAEXXZ 5f43cecc f
 0001:0003c108       ?OnClear@CPicturePropPage@@IAEXXZ 5f43d108 f
 0001:0003c136       ?ChangePicture@CPicturePropPage@@IAEXPAUIPicture@@@Z 5f43d136 f
 0001:0003c1a9       ?OnSelchangePictProp@CPicturePropPage@@IAEXXZ 5f43d1a9 f
 0001:0003c24d       ?OnEditProperty@CPicturePropPage@@MAEHJ@Z 5f43d24d f
 0001:0003c260       ?OnObjectsChanged@CPicturePropPage@@MAEXXZ 5f43d260 f
 0001:0003c29e       ?GetClassID@CPicturePropPage@@UAEJPAU_GUID@@@Z 5f43d29e f
 0001:0003c2b4       ?UpdateRegistry@CPicturePropPageFactory@CPicturePropPage@@UAEHH@Z 5f43d2b4 f
 0001:0003c2e6       ?_GetBaseMessageMap@CStockPropPage@@KGPBUAFX_MSGMAP@@XZ 5f43d2e6 f
 0001:0003c2ec       ?GetMessageMap@CStockPropPage@@MBEPBUAFX_MSGMAP@@XZ 5f43d2ec f
 0001:0003c2f2       ?_AfxSizeComboToContent@@YAXPAVCComboBox@@@Z 5f43d2f2 f
 0001:0003c372       ??0CStockPropPage@@QAE@II@Z 5f43d372 f
 0001:0003c3bb       ??_GCStockPropPage@@UAEPAXI@Z 5f43d3bb f
 0001:0003c3bb       ??_ECStockPropPage@@UAEPAXI@Z 5f43d3bb f
 0001:0003c3d7       ?FillPropnameList@CStockPropPage@@IAEXABU_GUID@@HAAVCComboBox@@@Z 5f43d3d7 f
 0001:0003c634       ?OnSelchangePropname@CStockPropPage@@IAEXAAVCComboBox@@@Z 5f43d634 f
 0001:0003c6a6       ?OnEditProperty@CStockPropPage@@IAEHJAAVCComboBox@@@Z 5f43d6a6 f
 0001:0003c70a       ?AfxOleTypeMatchGuid@@YGHPAUITypeInfo@@PAUtagTYPEDESC@@ABU_GUID@@K@Z 5f43d70a f
 0001:0003c7bf       ?AfxThrowDBException@@YGXFPAVCDatabase@@PAX@Z 5f43d7bf f
 0001:0003c822       ??0CDBException@@QAE@F@Z   5f43d822 f
 0001:0003c89a       ??_GCDBException@@UAEPAXI@Z 5f43d89a f
 0001:0003c89a       ??_ECDBException@@UAEPAXI@Z 5f43d89a f
 0001:0003c8b6       ?BuildErrorString@CDBException@@UAEXPAVCDatabase@@PAXH@Z 5f43d8b6 f
 0001:0003cad2       ?GetErrorMessage@CDBException@@UAEHPADIPAI@Z 5f43dad2 f
 0001:0003cb02       ?Empty@CDBException@@QAEXXZ 5f43db02 f
 0001:0003cb17       ?AfxGetHENV@@YGPAXXZ       5f43db17 f
 0001:0003cb2a       ??0CDatabase@@QAE@XZ       5f43db2a f
 0001:0003cb91       ??1CDatabase@@UAE@XZ       5f43db91 f
 0001:0003cbdf       ?Open@CDatabase@@UAEHPBDHH0H@Z 5f43dbdf f
 0001:0003ccd4       ?OpenEx@CDatabase@@UAEHPBDK@Z 5f43dcd4 f
 0001:0003cd55       ?ExecuteSQL@CDatabase@@QAEXPBD@Z 5f43dd55 f
 0001:0003ce6d       ?Cancel@CDatabase@@QAEXXZ  5f43de6d f
 0001:0003ce76       ?Close@CDatabase@@UAEXXZ   5f43de76 f
 0001:0003cf11       ?Free@CDatabase@@IAEXXZ    5f43df11 f
 0001:0003cf83       ?OnSetOptions@CDatabase@@UAEXPAX@Z 5f43df83 f
 0001:0003cfae       ?GetDatabaseName@CDatabase@@QBE?AVCString@@XZ 5f43dfae f
 0001:0003cff2       ?BeginTrans@CDatabase@@QAEHXZ 5f43dff2 f
 0001:0003d015       ?CommitTrans@CDatabase@@QAEHXZ 5f43e015 f
 0001:0003d05a       ?Rollback@CDatabase@@QAEHXZ 5f43e05a f
 0001:0003d09f       ?Check@CDatabase@@UBEHF@Z  5f43e09f f
 0001:0003d0ae       ?CheckHstmt@CDatabase@@QBGHFPAX@Z 5f43e0ae f
 0001:0003d0cb       ?ReplaceBrackets@CDatabase@@QAEXPAD@Z 5f43e0cb f
 0001:0003d165       ?AllocConnect@CDatabase@@IAEXK@Z 5f43e165 f
 0001:0003d221       ?Connect@CDatabase@@IAEHK@Z 5f43e221 f
 0001:0003d2d9       ?VerifyConnect@CDatabase@@IAEXXZ 5f43e2d9 f
 0001:0003d360       ?GetConnectInfo@CDatabase@@IAEXXZ 5f43e360 f
 0001:0003d522       ??0CRecordset@@QAE@PAVCDatabase@@@Z 5f43e522 f
 0001:0003d737       ??_GCRecordset@@UAEPAXI@Z  5f43e737 f
 0001:0003d737       ??_ECRecordset@@UAEPAXI@Z  5f43e737 f
 0001:0003d753       ??1CRecordset@@UAE@XZ      5f43e753 f
 0001:0003d865       ?Open@CRecordset@@UAEHIPBDK@Z 5f43e865 f
 0001:0003d939       ?Close@CRecordset@@UAEXXZ  5f43e939 f
 0001:0003db03       ??_ECODBCFieldInfo@@QAEPAXI@Z 5f43eb03 f
 0001:0003db4e       ?IsOpen@CRecordset@@QBEHXZ 5f43eb4e f
 0001:0003dc09       ?IsFieldDirty@CRecordset@@QAEHPAX@Z 5f43ec09 f
 0001:0003dc76       ?IsFieldNull@CRecordset@@QAEHPAX@Z 5f43ec76 f
 0001:0003dcc7       ?IsFieldNullable@CRecordset@@QAEHPAX@Z 5f43ecc7 f
 0001:0003dd01       ?CanBookmark@CRecordset@@QBEHXZ 5f43ed01 f
 0001:0003dd24       ?Move@CRecordset@@UAEXJG@Z 5f43ed24 f
 0001:0003ddff       ?CheckRowsetError@CRecordset@@UAEXF@Z 5f43edff f
 0001:0003deb8       ?GetBookmark@CRecordset@@QAEXAAVCDBVariant@@@Z 5f43eeb8 f
 0001:0003df44       ?SetBookmark@CRecordset@@QAEXABVCDBVariant@@@Z 5f43ef44 f
 0001:0003df85       ?SetRowsetSize@CRecordset@@UAEXK@Z 5f43ef85 f
 0001:0003e037       ?AddNew@CRecordset@@UAEXXZ 5f43f037 f
 0001:0003e096       ?Edit@CRecordset@@UAEXXZ   5f43f096 f
 0001:0003e14f       ?Update@CRecordset@@UAEHXZ 5f43f14f f
 0001:0003e183       ?Delete@CRecordset@@UAEXXZ 5f43f183 f
 0001:0003e1aa       ?CancelUpdate@CRecordset@@QAEXXZ 5f43f1aa f
 0001:0003e1c2       ?LoadFields@CRecordset@@QAEXXZ 5f43f1c2 f
 0001:0003e1ec       ?FlushResultSet@CRecordset@@QBEHXZ 5f43f1ec f
 0001:0003e22b       ?GetODBCFieldInfo@CRecordset@@QAEXPBDAAUCODBCFieldInfo@@@Z 5f43f22b f
 0001:0003e24e       ?GetODBCFieldInfo@CRecordset@@QAEXFAAUCODBCFieldInfo@@@Z 5f43f24e f
 0001:0003e291       ?GetFieldValue@CRecordset@@QAEXPBDAAVCDBVariant@@F@Z 5f43f291 f
 0001:0003e2c5       ?GetFieldValue@CRecordset@@QAEXFAAVCDBVariant@@F@Z 5f43f2c5 f
 0001:0003e3cf       ?GetFieldValue@CRecordset@@QAEXPBDAAVCString@@@Z 5f43f3cf f
 0001:0003e3f2       ?GetFieldValue@CRecordset@@QAEXFAAVCString@@@Z 5f43f3f2 f
 0001:0003e49a       ?SetFieldDirty@CRecordset@@QAEXPAXH@Z 5f43f49a f
 0001:0003e4e0       ?SetFieldNull@CRecordset@@QAEXPAXH@Z 5f43f4e0 f
 0001:0003e53f       ?SetParamNull@CRecordset@@QAEXHH@Z 5f43f53f f
 0001:0003e56f       ?SetLockingMode@CRecordset@@QAEXI@Z 5f43f56f f
 0001:0003e5c2       ?Requery@CRecordset@@UAEHXZ 5f43f5c2 f
 0001:0003e702       ?Cancel@CRecordset@@QAEXXZ 5f43f702 f
 0001:0003e71f       ?GetDefaultConnect@CRecordset@@UAE?AVCString@@XZ 5f43f71f f
 0001:0003e73b       ?OnSetOptions@CRecordset@@UAEXPAX@Z 5f43f73b f
 0001:0003e794       ?Check@CRecordset@@UBEHF@Z 5f43f794 f
 0001:0003e7b6       ?SetState@CRecordset@@IAEXHPBDK@Z 5f43f7b6 f
 0001:0003e866       ?AllocHstmt@CRecordset@@IAEHXZ 5f43f866 f
 0001:0003ea42       ?BuildSQL@CRecordset@@IAEXPBD@Z 5f43fa42 f
 0001:0003eb29       ?PrepareAndExecute@CRecordset@@IAEXXZ 5f43fb29 f
 0001:0003ed06       ?VerifyDriverBehavior@CRecordset@@IAEXXZ 5f43fd06 f
 0001:0003ed9c       ?VerifyCursorSupport@CRecordset@@IAEKXZ 5f43fd9c f
 0001:0003ee2e       ?AllocAndCacheFieldInfo@CRecordset@@IAEXXZ 5f43fe2e f
 0001:0003ef63       ?AllocRowset@CRecordset@@IAEXXZ 5f43ff63 f
 0001:0003ef93       ?FreeRowset@CRecordset@@IAEXXZ 5f43ff93 f
 0001:0003efeb       ?EnableBookmarks@CRecordset@@IAEXXZ 5f43ffeb f
 0001:0003f025       ?SetUpdateMethod@CRecordset@@IAEXXZ 5f440025 f
 0001:0003f047       ?SetConcurrencyAndCursorType@CRecordset@@IAEXPAXK@Z 5f440047 f
 0001:0003f13b       ?IsSQLUpdatable@CRecordset@@QAEHPBD@Z 5f44013b f
 0001:0003f194       ?IsSelectQueryUpdatable@CRecordset@@QAEHPBD@Z 5f440194 f
 0001:0003f2bf       ?IsJoin@CRecordset@@SGHPBD@Z 5f4402bf f
 0001:0003f2ed       ?FindSQLToken@CRecordset@@SGPBDPBD0@Z 5f4402ed f
 0001:0003f444       ?InitRecord@CRecordset@@QAEXXZ 5f440444 f
 0001:0003f476       ?ResetCursor@CRecordset@@QAEXXZ 5f440476 f
 0001:0003f49e       ?CheckRowsetCurrencyStatus@CRecordset@@QAEXGJ@Z 5f44049e f
 0001:0003f52f       ?FetchData@CRecordset@@QAEFGJPAK@Z 5f44052f f
 0001:0003f5ac       ?SkipDeletedRecords@CRecordset@@QAEXGJPAKPAF@Z 5f4405ac f
 0001:0003f689       ?SetRowsetCurrencyStatus@CRecordset@@UAEXFGJK@Z 5f440689 f
 0001:0003f89c       ?RefreshRowset@CRecordset@@QAEXGG@Z 5f44089c f
 0001:0003f8df       ?SetRowsetCursorPosition@CRecordset@@QAEXGG@Z 5f4408df f
 0001:0003f8fe       ?BuildSelectSQL@CRecordset@@IAEXXZ 5f4408fe f
 0001:0003fa1f       ?AppendFilterAndSortSQL@CRecordset@@IAEXXZ 5f440a1f f
 0001:0003fa74       ?IsRecordsetUpdatable@CRecordset@@IAEHXZ 5f440a74 f
 0001:0003faae       ?ExecuteSetPosUpdate@CRecordset@@IAEXXZ 5f440aae f
 0001:0003fb43       ?PrepareUpdateHstmt@CRecordset@@IAEXXZ 5f440b43 f
 0001:0003fbbc       ?BuildUpdateSQL@CRecordset@@IAEXXZ 5f440bbc f
 0001:0003fd98       ?ExecuteUpdateSQL@CRecordset@@IAEXXZ 5f440d98 f
 0001:0003fe65       ?SendLongBinaryData@CRecordset@@IAEXPAX@Z 5f440e65 f
 0001:0003ffc2       ?AllocStatusArrays@CRecordset@@QAEXXZ 5f440fc2 f
 0001:000400a8       ?GetBoundFieldIndex@CRecordset@@QAEHPAX@Z 5f4410a8 f
 0001:000400ca       ?GetBoundParamIndex@CRecordset@@QAEHPAX@Z 5f4410ca f
 0001:000400ec       ?GetFieldIndexByName@CRecordset@@QAEFPBD@Z 5f4410ec f
 0001:00040138       ?GetFieldLengthBuffer@CRecordset@@QAEPAJKH@Z 5f441138 f
 0001:0004015f       ?GetFieldStatus@CRecordset@@QAEEK@Z 5f44115f f
 0001:0004016f       ?SetFieldStatus@CRecordset@@QAEXKE@Z 5f44116f f
 0001:00040184       ?ClearFieldStatus@CRecordset@@QAEXXZ 5f441184 f
 0001:00040198       ?IsFieldStatusDirty@CRecordset@@QBEHK@Z 5f441198 f
 0001:000401ab       ?SetDirtyFieldStatus@CRecordset@@QAEXK@Z 5f4411ab f
 0001:000401bd       ?ClearDirtyFieldStatus@CRecordset@@QAEXK@Z 5f4411bd f
 0001:000401cf       ?IsFieldStatusNull@CRecordset@@QBEHK@Z 5f4411cf f
 0001:000401e2       ?SetNullFieldStatus@CRecordset@@QAEXK@Z 5f4411e2 f
 0001:000401f4       ?ClearNullFieldStatus@CRecordset@@QAEXK@Z 5f4411f4 f
 0001:00040206       ?IsParamStatusNull@CRecordset@@QBEHK@Z 5f441206 f
 0001:00040219       ?SetNullParamStatus@CRecordset@@QAEXK@Z 5f441219 f
 0001:0004022b       ?ClearNullParamStatus@CRecordset@@QAEXK@Z 5f44122b f
 0001:0004023d       ?IsFieldNullable@CRecordset@@QBEHK@Z 5f44123d f
 0001:00040256       ?BindParams@CRecordset@@QAEIPAX@Z 5f441256 f
 0001:00040285       ?RebindParams@CRecordset@@QAEXPAX@Z 5f441285 f
 0001:000402b7       ?BindFieldsToColumns@CRecordset@@QAEIXZ 5f4412b7 f
 0001:000402ef       ?BindFieldsForUpdate@CRecordset@@QAEXXZ 5f4412ef f
 0001:00040329       ?UnbindFieldsForUpdate@CRecordset@@QAEXXZ 5f441329 f
 0001:00040363       ?Fixups@CRecordset@@QAEXXZ 5f441363 f
 0001:0004038d       ?AppendNames@CRecordset@@QAEIPAVCString@@PBD@Z 5f44138d f
 0001:000403cd       ?AppendNamesValues@CRecordset@@QAEIPAXPAVCString@@PBD@Z 5f4413cd f
 0001:00040408       ?AppendValues@CRecordset@@QAEIPAXPAVCString@@PBD@Z 5f441408 f
 0001:00040443       ?StoreFields@CRecordset@@QAEXXZ 5f441443 f
 0001:00040467       ?MarkForUpdate@CRecordset@@QAEXXZ 5f441467 f
 0001:0004048b       ?MarkForAddNew@CRecordset@@QAEXXZ 5f44148b f
 0001:000404af       ?AllocDataCache@CRecordset@@QAEXXZ 5f4414af f
 0001:000404d3       ?FreeDataCache@CRecordset@@QAEXXZ 5f4414d3 f
 0001:00040565       ?UpdateInsertDelete@CRecordset@@IAEHXZ 5f441565 f
 0001:0004075a       ?GetLBReallocSize@CRecordset@@MAEJJ@Z 5f44175a f
 0001:00040763       ?GetDefaultFieldType@CRecordset@@SGFF@Z 5f441763 f
 0001:000407ef       ?GetDataBuffer@CRecordset@@SGPAXAAVCDBVariant@@FPAHFK@Z 5f4417ef f
 0001:000409a1       ?GetTextLen@CRecordset@@SGHFK@Z 5f4419a1 f
 0001:000409cd       ?GetData@CRecordset@@SGJPAVCDatabase@@PAXFF1HF@Z 5f4419cd f
 0001:00040a1d       ?GetLongCharDataAndCleanup@CRecordset@@SGXPAVCDatabase@@PAXFJPAPAXHAAVCString@@F@Z 5f441a1d f
 0001:00040aab       ?GetLongBinaryDataAndCleanup@CRecordset@@SGXPAVCDatabase@@PAXFJPAPAXHAAVCDBVariant@@F@Z 5f441aab f
 0001:00040b65       ?AfxSetCurrentRecord@@YGXPAJJF@Z 5f441b65 f
 0001:00040b83       ?AfxSetRecordCount@@YGXPAJJJHF@Z 5f441b83 f
 0001:00040b9b       ?AfxSetRecordCount@@YGXPAJJHF@Z 5f441b9b f
 0001:00040bc5       ?ThrowDBException@CDatabase@@MAEXF@Z 5f441bc5 f
 0001:00040bd5       ?ThrowDBException@CRecordset@@UAEXFPAX@Z 5f441bd5 f
 0001:00040bf0       ??0CFieldExchange@@QAE@IPAVCRecordset@@PAX@Z 5f441bf0 f
 0001:00040c2c       ?IsFieldType@CFieldExchange@@QAEHPAI@Z 5f441c2c f
 0001:00040c69       ?Default@CFieldExchange@@QAEXPBDPAXPAJHII@Z 5f441c69 f
 0001:00040f57       ?RFX_Text@@YGXPAVCFieldExchange@@PBDPADHHF@Z 5f441f57 f
 0001:0004126e       ?RFX_Text@@YGXPAVCFieldExchange@@PBDAAVCString@@HHF@Z 5f44226e f
 0001:00041647       ?RFX_Int@@YGXPAVCFieldExchange@@PBDAAH@Z 5f442647 f
 0001:0004176e       ?RFX_Long@@YGXPAVCFieldExchange@@PBDAAJ@Z 5f44276e f
 0001:00041896       ?RFX_Byte@@YGXPAVCFieldExchange@@PBDAAE@Z 5f442896 f
 0001:000419b3       ?RFX_Bool@@YGXPAVCFieldExchange@@PBDAAH@Z 5f4429b3 f
 0001:00041adb       ?RFX_Binary@@YGXPAVCFieldExchange@@PBDAAVCByteArray@@H@Z 5f442adb f
 0001:00041d28       ?RFX_Date@@YGXPAVCFieldExchange@@PBDAAVCTime@@@Z 5f442d28 f
 0001:000423cd       ?RFX_Date@@YGXPAVCFieldExchange@@PBDAAUtagTIMESTAMP_STRUCT@@@Z 5f4433cd f
 0001:00042587       ?RFX_Date@@YGXPAVCFieldExchange@@PBDAAVCOleDateTime@@@Z 5f443587 f
 0001:00042bb0       ?RFX_LongBinary@@YGXPAVCFieldExchange@@PBDAAVCLongBinary@@@Z 5f443bb0 f
 0001:00042e85       ??9CTime@@QBEHV0@@Z        5f443e85 f
 0001:00042e93       ?GetLongBinarySize@CFieldExchange@@QAEJH@Z 5f443e93 f
 0001:00042ed9       ?GetLongBinaryData@CFieldExchange@@QAEXHAAVCLongBinary@@PAJ@Z 5f443ed9 f
 0001:00043047       ?ReallocLongBinary@CFieldExchange@@QAEPAEAAVCLongBinary@@JJ@Z 5f444047 f
 0001:000430c9       ?AfxStoreField@@YGXAAVCRecordset@@IPAX@Z 5f4440c9 f
 0001:00043135       ?AfxLoadField@@YGXAAVCRecordset@@IPAXPAJ@Z 5f444135 f
 0001:000431ac       ?AfxCompareValueByRef@@YGHPAX0H@Z 5f4441ac f
 0001:00043301       ??8CTime@@QBEHV0@@Z        5f444301 f
 0001:0004330f       ?AfxCopyValueByRef@@YGXPAX0PAJH@Z 5f44430f f
 0001:0004343c       ?RFX_Text_Bulk@@YGXPAVCFieldExchange@@PBDPAPADPAPAJH@Z 5f44443c f
 0001:000434c5       ?RFX_Long_Bulk@@YGXPAVCFieldExchange@@PBDPAPAJ2@Z 5f4444c5 f
 0001:00043547       ?RFX_Date_Bulk@@YGXPAVCFieldExchange@@PBDPAPAUtagTIMESTAMP_STRUCT@@PAPAJ@Z 5f444547 f
 0001:000435ce       ?RFX_Byte_Bulk@@YGXPAVCFieldExchange@@PBDPAPAEPAPAJ@Z 5f4445ce f
 0001:00043650       ?RFX_Binary_Bulk@@YGXPAVCFieldExchange@@PBDPAPAEPAPAJH@Z 5f444650 f
 0001:000436d9       ?AfxRFXBulkDefault@@YGXPAVCFieldExchange@@PBDPAXPAJHI@Z 5f4446d9 f
 0001:00043740       ?_GetBaseMessageMap@CRecordView@@KGPBUAFX_MSGMAP@@XZ 5f444740 f
 0001:00043746       ?GetMessageMap@CRecordView@@MBEPBUAFX_MSGMAP@@XZ 5f444746 f
 0001:0004374c       ??0CRecordView@@IAE@PBD@Z  5f44474c f
 0001:00043764       ??_ECRecordView@@UAEPAXI@Z 5f444764 f
 0001:00043764       ??_GCRecordView@@UAEPAXI@Z 5f444764 f
 0001:00043780       ??0CRecordView@@IAE@I@Z    5f444780 f
 0001:00043798       ??1CRecordView@@UAE@XZ     5f444798 f
 0001:000437a3       ?OnInitialUpdate@CRecordView@@UAEXXZ 5f4447a3 f
 0001:00043809       ?IsOnFirstRecord@CRecordView@@QAEHXZ 5f444809 f
 0001:00043821       ?IsOnLastRecord@CRecordView@@QAEHXZ 5f444821 f
 0001:0004384a       ?OnMove@CRecordView@@UAEHI@Z 5f44484a f
 0001:000438f9       ?OnUpdateRecordFirst@CRecordView@@IAEXPAVCCmdUI@@@Z 5f4448f9 f
 0001:0004394d       ?OnUpdateRecordPrev@CRecordView@@IAEXPAVCCmdUI@@@Z 5f44494d f
 0001:00043959       ?OnUpdateRecordNext@CRecordView@@IAEXPAVCCmdUI@@@Z 5f444959 f
 0001:000439a4       ?OnUpdateRecordLast@CRecordView@@IAEXPAVCCmdUI@@@Z 5f4449a4 f
 0001:000439f8       ?AfxFieldText@@YGHPAVCDataExchange@@HPAXPAVCRecordset@@@Z 5f4449f8 f
 0001:00043ac6       ?DDX_FieldText@@YGXPAVCDataExchange@@HAAHPAVCRecordset@@@Z 5f444ac6 f
 0001:00043af0       ?DDX_FieldText@@YGXPAVCDataExchange@@HAAEPAVCRecordset@@@Z 5f444af0 f
 0001:00043b1a       ?DDX_FieldText@@YGXPAVCDataExchange@@HAAIPAVCRecordset@@@Z 5f444b1a f
 0001:00043b44       ?DDX_FieldText@@YGXPAVCDataExchange@@HAAJPAVCRecordset@@@Z 5f444b44 f
 0001:00043b6e       ?DDX_FieldText@@YGXPAVCDataExchange@@HAAKPAVCRecordset@@@Z 5f444b6e f
 0001:00043b98       ?DDX_FieldText@@YGXPAVCDataExchange@@HAAVCString@@PAVCRecordset@@@Z 5f444b98 f
 0001:00043ccb       ?DDX_FieldText@@YGXPAVCDataExchange@@HPADHPAVCRecordset@@@Z 5f444ccb f
 0001:00043d68       ?DDX_FieldLBString@@YGXPAVCDataExchange@@HAAVCString@@PAVCRecordset@@@Z 5f444d68 f
 0001:00043e72       ?DDX_FieldLBStringExact@@YGXPAVCDataExchange@@HAAVCString@@PAVCRecordset@@@Z 5f444e72 f
 0001:00043ef1       ?DDX_FieldLBIndex@@YGXPAVCDataExchange@@HAAHPAVCRecordset@@@Z 5f444ef1 f
 0001:00043f33       ?DDX_FieldCBString@@YGXPAVCDataExchange@@HAAVCString@@PAVCRecordset@@@Z 5f444f33 f
 0001:00044079       ?DDX_FieldCBStringExact@@YGXPAVCDataExchange@@HAAVCString@@PAVCRecordset@@@Z 5f445079 f
 0001:000440f8       ?DDX_FieldCBIndex@@YGXPAVCDataExchange@@HAAHPAVCRecordset@@@Z 5f4450f8 f
 0001:0004413a       ?DDX_FieldScroll@@YGXPAVCDataExchange@@HAAHPAVCRecordset@@@Z 5f44513a f
 0001:0004417c       ?DDX_FieldCheck@@YGXPAVCDataExchange@@HAAHPAVCRecordset@@@Z 5f44517c f
 0001:0004422f       ?DDX_FieldRadio@@YGXPAVCDataExchange@@HAAHPAVCRecordset@@@Z 5f44522f f
 0001:0004429d       ??_9@$BBBE@AE              5f44529d f
 0001:000442a5       ?RFX_Single@@YGXPAVCFieldExchange@@PBDAAM@Z 5f4452a5 f
 0001:000443e0       ?RFX_Double@@YGXPAVCFieldExchange@@PBDAAN@Z 5f4453e0 f
 0001:0004452d       ?RFX_Single_Bulk@@YGXPAVCFieldExchange@@PBDPAPAMPAPAJ@Z 5f44552d f
 0001:000445af       ?RFX_Double_Bulk@@YGXPAVCFieldExchange@@PBDPAPANPAPAJ@Z 5f4455af f
 0001:00044636       ?DDX_FieldText@@YGXPAVCDataExchange@@HAAMPAVCRecordset@@@Z 5f445636 f
 0001:0004466a       ?DDX_FieldText@@YGXPAVCDataExchange@@HAANPAVCRecordset@@@Z 5f44566a f
 0001:0004469e       ??0CLongBinary@@QAE@XZ     5f44569e f
 0001:000446ab       ??1CLongBinary@@UAE@XZ     5f4456ab f
 0001:000446ce       ??0CDBVariant@@QAE@XZ      5f4456ce f
 0001:000446db       ??_ECDBVariant@@UAEPAXI@Z  5f4456db f
 0001:000446db       ??_GCDBVariant@@UAEPAXI@Z  5f4456db f
 0001:0004471b       ??1CDBVariant@@UAE@XZ      5f44571b f
 0001:00044721       ?Clear@CDBVariant@@QAEXXZ  5f445721 f
 0001:00044744       ??0_AFX_DAO_STATE@@QAE@XZ  5f445744 f
 0001:00044780       ??_G_AFX_DAO_STATE@@UAEPAXI@Z 5f445780 f
 0001:00044780       ??_E_AFX_DAO_STATE@@UAEPAXI@Z 5f445780 f
 0001:0004479b       ??1_AFX_DAO_STATE@@UAE@XZ  5f44579b f
 0001:000447c7       ?AfxDaoCheck@@YGXJPBD0HHH@Z 5f4457c7 f
 0001:000447f5       ??0CDaoIndexInfo@@QAE@XZ   5f4457f5 f
 0001:00044816       ??_ECDaoIndexInfo@@UAEPAXI@Z 5f445816 f
 0001:00044816       ??_GCDaoIndexInfo@@UAEPAXI@Z 5f445816 f
 0001:00044832       ??_ECDaoIndexFieldInfo@@QAEPAXI@Z 5f445832 f
 0001:0004487d       ??1CDaoIndexFieldInfo@@QAE@XZ 5f44587d f
 0001:00044882       ??0CDaoRelationInfo@@QAE@XZ 5f445882 f
 0001:000448d5       ??_ECDaoRelationInfo@@UAEPAXI@Z 5f4458d5 f
 0001:000448d5       ??_GCDaoRelationInfo@@UAEPAXI@Z 5f4458d5 f
 0001:000448f1       ??_ECDaoRelationFieldInfo@@QAEPAXI@Z 5f4458f1 f
 0001:0004493c       ?_GetBaseClass@CDaoException@@KGPAUCRuntimeClass@@XZ 5f44593c f
 0001:00044942       ?GetRuntimeClass@CDaoException@@UBEPAUCRuntimeClass@@XZ 5f445942 f
 0001:00044948       ??0CDaoException@@QAE@XZ   5f445948 f
 0001:00044965       ??1CDaoException@@UAE@XZ   5f445965 f
 0001:000449d0       ??1CDaoErrorInfo@@QAE@XZ   5f4459d0 f
 0001:00044a15       ?GetErrorCount@CDaoException@@QAEFXZ 5f445a15 f
 0001:00044a5a       ?GetErrorInfo@CDaoException@@QAEXH@Z 5f445a5a f
 0001:00044aea       ?GetErrorMessage@CDaoException@@UAEHPADIPAI@Z 5f445aea f
 0001:00044b81       ?InitErrorsCollection@CDaoException@@IAEXXZ 5f445b81 f
 0001:00044bb3       ?FillErrorInfo@CDaoException@@IAEXXZ 5f445bb3 f
 0001:00044cec       ??0CDaoErrorInfo@@QAE@XZ   5f445cec f
 0001:00044d2c       ?AfxThrowDaoException@@YGXHJ@Z 5f445d2c f
 0001:00044db9       ?GetRuntimeClass@CDaoWorkspace@@UBEPAUCRuntimeClass@@XZ 5f445db9 f
 0001:00044dc4       ??0CDaoWorkspace@@QAE@XZ   5f445dc4 f
 0001:00044e13       ??1CDaoWorkspace@@UAE@XZ   5f445e13 f
 0001:00044e76       ?Create@CDaoWorkspace@@UAEXPBD00@Z 5f445e76 f
 0001:00044f29       ?Append@CDaoWorkspace@@UAEXXZ 5f445f29 f
 0001:00044fbb       ?Open@CDaoWorkspace@@UAEXPBD@Z 5f445fbb f
 0001:00045088       ?Close@CDaoWorkspace@@UAEXXZ 5f446088 f
 0001:0004512a       ?GetVersion@CDaoWorkspace@@SG?AVCString@@XZ 5f44612a f
 0001:000451a1       ?GetIniPath@CDaoWorkspace@@SG?AVCString@@XZ 5f4461a1 f
 0001:00045218       ?SetIniPath@CDaoWorkspace@@SGXPBD@Z 5f446218 f
 0001:0004527b       ?SetDefaultUser@CDaoWorkspace@@SGXPBD@Z 5f44627b f
 0001:000452de       ?SetDefaultPassword@CDaoWorkspace@@SGXPBD@Z 5f4462de f
 0001:00045341       ?GetLoginTimeout@CDaoWorkspace@@SGFXZ 5f446341 f
 0001:0004537a       ?SetLoginTimeout@CDaoWorkspace@@SGXF@Z 5f44637a f
 0001:000453ac       ?GetName@CDaoWorkspace@@QAE?AVCString@@XZ 5f4463ac f
 0001:00045414       ?GetUserNameA@CDaoWorkspace@@QAE?AVCString@@XZ 5f446414 f
 0001:0004547c       ?SetIsolateODBCTrans@CDaoWorkspace@@QAEXH@Z 5f44647c f
 0001:0004549e       ?GetIsolateODBCTrans@CDaoWorkspace@@QAEHXZ 5f44649e f
 0001:000454c8       ?CompactDatabase@CDaoWorkspace@@SGXPBD00H0@Z 5f4464c8 f
 0001:000455f3       ?CompactDatabase@CDaoWorkspace@@SGXPBD00H@Z 5f4465f3 f
 0001:0004560d       ?RepairDatabase@CDaoWorkspace@@SGXPBD@Z 5f44660d f
 0001:00045670       ?Idle@CDaoWorkspace@@SGXH@Z 5f446670 f
 0001:000456dd       ?GetWorkspaceCount@CDaoWorkspace@@QAEFXZ 5f4466dd f
 0001:00045711       ?GetWorkspaceInfo@CDaoWorkspace@@QAEXHAAUCDaoWorkspaceInfo@@K@Z 5f446711 f
 0001:0004579a       ?GetWorkspaceInfo@CDaoWorkspace@@QAEXPBDAAUCDaoWorkspaceInfo@@K@Z 5f44679a f
 0001:00045823       ?GetDatabaseCount@CDaoWorkspace@@QAEFXZ 5f446823 f
 0001:00045857       ?GetDatabaseInfo@CDaoWorkspace@@QAEXHAAUCDaoDatabaseInfo@@K@Z 5f446857 f
 0001:000458e0       ?GetDatabaseInfo@CDaoWorkspace@@QAEXPBDAAUCDaoDatabaseInfo@@K@Z 5f4468e0 f
 0001:00045969       ?BeginTrans@CDaoWorkspace@@QAEXXZ 5f446969 f
 0001:00045980       ?CommitTrans@CDaoWorkspace@@QAEXXZ 5f446980 f
 0001:000459e1       ?Rollback@CDaoWorkspace@@QAEXXZ 5f4469e1 f
 0001:000459f8       ?AfxDaoInit@@YGXXZ         5f4469f8 f
 0001:000459f8       ?InitializeEngine@CDaoWorkspace@@KAXXZ 5f4469f8 f
 0001:00045b0f       ?InitWorkspacesCollection@CDaoWorkspace@@IAEXXZ 5f446b0f f
 0001:00045b43       ?FillWorkspaceInfo@CDaoWorkspace@@IAEXPAUDAOWorkspace@@AAUCDaoWorkspaceInfo@@K@Z 5f446b43 f
 0001:00045c13       ?InitDatabasesCollection@CDaoWorkspace@@IAEXXZ 5f446c13 f
 0001:00045c2e       ?FillDatabaseInfo@CDaoWorkspace@@IAEXPAUDAODatabase@@AAUCDaoDatabaseInfo@@K@Z 5f446c2e f
 0001:00045d7c       ?GetRuntimeClass@CDaoDatabase@@UBEPAUCRuntimeClass@@XZ 5f446d7c f
 0001:00045d82       ??0CDaoDatabase@@QAE@PAVCDaoWorkspace@@@Z 5f446d82 f
 0001:00045df8       ??1CDaoDatabase@@UAE@XZ    5f446df8 f
 0001:00045e7d       ?Create@CDaoDatabase@@UAEXPBD0H@Z 5f446e7d f
 0001:00045f36       ?Open@CDaoDatabase@@UAEXPBDHH0@Z 5f446f36 f
 0001:00046039       ?Close@CDaoDatabase@@UAEXXZ 5f447039 f
 0001:00046164       ?CanUpdate@CDaoDatabase@@QAEHXZ 5f447164 f
 0001:0004618e       ?CanTransact@CDaoDatabase@@QAEHXZ 5f44718e f
 0001:000461b8       ?GetName@CDaoDatabase@@QAE?AVCString@@XZ 5f4471b8 f
 0001:00046220       ?GetConnect@CDaoDatabase@@QAE?AVCString@@XZ 5f447220 f
 0001:00046288       ?GetVersion@CDaoDatabase@@QAE?AVCString@@XZ 5f447288 f
 0001:000462f0       ?GetQueryTimeout@CDaoDatabase@@QAEFXZ 5f4472f0 f
 0001:00046314       ?SetQueryTimeout@CDaoDatabase@@QAEXF@Z 5f447314 f
 0001:00046331       ?GetRecordsAffected@CDaoDatabase@@QAEJXZ 5f447331 f
 0001:00046354       ?DeleteTableDef@CDaoDatabase@@QAEXPBD@Z 5f447354 f
 0001:000463b2       ?DeleteQueryDef@CDaoDatabase@@QAEXPBD@Z 5f4473b2 f
 0001:00046410       ?CreateRelation@CDaoDatabase@@QAEXPBD00J00@Z 5f447410 f
 0001:000464ce       ?CreateRelation@CDaoDatabase@@QAEXAAUCDaoRelationInfo@@@Z 5f4474ce f
 0001:00046750       ?DeleteRelation@CDaoDatabase@@QAEXPBD@Z 5f447750 f
 0001:000467ae       ?Execute@CDaoDatabase@@QAEXPBDH@Z 5f4477ae f
 0001:00046828       ?GetTableDefCount@CDaoDatabase@@QAEFXZ 5f447828 f
 0001:0004685c       ?GetTableDefInfo@CDaoDatabase@@QAEXHAAUCDaoTableDefInfo@@K@Z 5f44785c f
 0001:000468e5       ?GetTableDefInfo@CDaoDatabase@@QAEXPBDAAUCDaoTableDefInfo@@K@Z 5f4478e5 f
 0001:0004696e       ?GetRelationCount@CDaoDatabase@@QAEFXZ 5f44796e f
 0001:000469a2       ?GetRelationInfo@CDaoDatabase@@QAEXHAAUCDaoRelationInfo@@K@Z 5f4479a2 f
 0001:00046a2b       ?GetRelationInfo@CDaoDatabase@@QAEXPBDAAUCDaoRelationInfo@@K@Z 5f447a2b f
 0001:00046ab4       ?GetQueryDefCount@CDaoDatabase@@QAEFXZ 5f447ab4 f
 0001:00046ae8       ?GetQueryDefInfo@CDaoDatabase@@QAEXHAAUCDaoQueryDefInfo@@K@Z 5f447ae8 f
 0001:00046b71       ?GetQueryDefInfo@CDaoDatabase@@QAEXPBDAAUCDaoQueryDefInfo@@K@Z 5f447b71 f
 0001:00046bfa       ?InitWorkspace@CDaoDatabase@@IAEXXZ 5f447bfa f
 0001:00046c5d       ?InitTableDefsCollection@CDaoDatabase@@IAEXXZ 5f447c5d f
 0001:00046c78       ?FillTableDefInfo@CDaoDatabase@@IAEXPAU_DAOTableDef@@AAUCDaoTableDefInfo@@K@Z 5f447c78 f
 0001:00046e4a       ?InitRelationsCollection@CDaoDatabase@@IAEXXZ 5f447e4a f
 0001:00046e65       ?FillRelationInfo@CDaoDatabase@@IAEXPAU_DAORelation@@AAUCDaoRelationInfo@@K@Z 5f447e65 f
 0001:00047129       ??0CDaoRelationFieldInfo@@QAE@XZ 5f448129 f
 0001:0004715a       ?InitQueryDefsCollection@CDaoDatabase@@IAEXXZ 5f44815a f
 0001:00047175       ?FillQueryDefInfo@CDaoDatabase@@IAEXPAU_DAOQueryDef@@AAUCDaoQueryDefInfo@@K@Z 5f448175 f
 0001:000472f9       ?ThrowDaoException@CDaoDatabase@@MAEXH@Z 5f4482f9 f
 0001:00047307       ?GetRuntimeClass@CDaoTableDef@@UBEPAUCRuntimeClass@@XZ 5f448307 f
 0001:0004730d       ??0CDaoTableDef@@QAE@PAVCDaoDatabase@@@Z 5f44830d f
 0001:00047330       ??_ECDaoTableDef@@UAEPAXI@Z 5f448330 f
 0001:00047330       ??_GCDaoTableDef@@UAEPAXI@Z 5f448330 f
 0001:0004734c       ??1CDaoTableDef@@UAE@XZ    5f44834c f
 0001:00047398       ?Create@CDaoTableDef@@UAEXPBDJ00@Z 5f448398 f
 0001:0004749d       ?Append@CDaoTableDef@@UAEXXZ 5f44849d f
 0001:00047521       ?Open@CDaoTableDef@@UAEXPBD@Z 5f448521 f
 0001:000475ed       ?Close@CDaoTableDef@@UAEXXZ 5f4485ed f
 0001:00047638       ?CanUpdate@CDaoTableDef@@QAEHXZ 5f448638 f
 0001:00047662       ?SetName@CDaoTableDef@@QAEXPBD@Z 5f448662 f
 0001:000476b4       ?GetName@CDaoTableDef@@QAE?AVCString@@XZ 5f4486b4 f
 0001:0004771c       ?SetSourceTableName@CDaoTableDef@@QAEXPBD@Z 5f44871c f
 0001:0004776e       ?GetSourceTableName@CDaoTableDef@@QAE?AVCString@@XZ 5f44876e f
 0001:000477d6       ?SetConnect@CDaoTableDef@@QAEXPBD@Z 5f4487d6 f
 0001:00047828       ?GetConnect@CDaoTableDef@@QAE?AVCString@@XZ 5f448828 f
 0001:00047890       ?SetAttributes@CDaoTableDef@@QAEXJ@Z 5f448890 f
 0001:000478ad       ?GetAttributes@CDaoTableDef@@QAEJXZ 5f4488ad f
 0001:000478d0       ?GetDateCreated@CDaoTableDef@@QAE?AVCOleDateTime@@XZ 5f4488d0 f
 0001:0004792e       ?GetDateLastUpdated@CDaoTableDef@@QAE?AVCOleDateTime@@XZ 5f44892e f
 0001:0004798c       ?SetValidationRule@CDaoTableDef@@QAEXPBD@Z 5f44898c f
 0001:000479de       ?GetValidationRule@CDaoTableDef@@QAE?AVCString@@XZ 5f4489de f
 0001:00047a46       ?SetValidationText@CDaoTableDef@@QAEXPBD@Z 5f448a46 f
 0001:00047a98       ?GetValidationText@CDaoTableDef@@QAE?AVCString@@XZ 5f448a98 f
 0001:00047b00       ?GetRecordCount@CDaoTableDef@@QAEJXZ 5f448b00 f
 0001:00047b23       ?CreateField@CDaoTableDef@@QAEXPBDFJJ@Z 5f448b23 f
 0001:00047b94       ??0CDaoFieldInfo@@QAE@XZ   5f448b94 f
 0001:00047c01       ?CreateField@CDaoTableDef@@QAEXAAUCDaoFieldInfo@@@Z 5f448c01 f
 0001:00047d23       ?DeleteField@CDaoTableDef@@QAEXPBD@Z 5f448d23 f
 0001:00047d81       ?DeleteField@CDaoTableDef@@QAEXH@Z 5f448d81 f
 0001:00047dd2       ?CreateIndex@CDaoTableDef@@QAEXAAUCDaoIndexInfo@@@Z 5f448dd2 f
 0001:00047e97       ?DeleteIndex@CDaoTableDef@@QAEXPBD@Z 5f448e97 f
 0001:00047ef5       ?DeleteIndex@CDaoTableDef@@QAEXH@Z 5f448ef5 f
 0001:00047f46       ?GetFieldCount@CDaoTableDef@@QAEFXZ 5f448f46 f
 0001:00047f7a       ?GetFieldInfo@CDaoTableDef@@QAEXHAAUCDaoFieldInfo@@K@Z 5f448f7a f
 0001:00048004       ?GetFieldInfo@CDaoTableDef@@QAEXPBDAAUCDaoFieldInfo@@K@Z 5f449004 f
 0001:0004808e       ?GetIndexCount@CDaoTableDef@@QAEFXZ 5f44908e f
 0001:000480c2       ?GetIndexInfo@CDaoTableDef@@QAEXHAAUCDaoIndexInfo@@K@Z 5f4490c2 f
 0001:0004814c       ?GetIndexInfo@CDaoTableDef@@QAEXPBDAAUCDaoIndexInfo@@K@Z 5f44914c f
 0001:000481d6       ?RefreshLink@CDaoTableDef@@QAEXXZ 5f4491d6 f
 0001:000481ed       ?InitFieldsCollection@CDaoTableDef@@IAEXXZ 5f4491ed f
 0001:00048208       ?InitIndexesCollection@CDaoTableDef@@IAEXXZ 5f449208 f
 0001:00048223       ?_GetBaseClass@CDaoQueryDef@@KGPAUCRuntimeClass@@XZ 5f449223 f
 0001:00048229       ?GetRuntimeClass@CDaoQueryDef@@UBEPAUCRuntimeClass@@XZ 5f449229 f
 0001:0004822f       ??0CDaoQueryDef@@QAE@PAVCDaoDatabase@@@Z 5f44922f f
 0001:00048252       ??_ECDaoQueryDef@@UAEPAXI@Z 5f449252 f
 0001:00048252       ??_GCDaoQueryDef@@UAEPAXI@Z 5f449252 f
 0001:0004826e       ??1CDaoQueryDef@@UAE@XZ    5f44926e f
 0001:000482ba       ?Create@CDaoQueryDef@@UAEXPBD0@Z 5f4492ba f
 0001:000483d8       ?Append@CDaoQueryDef@@UAEXXZ 5f4493d8 f
 0001:0004845c       ?Open@CDaoQueryDef@@UAEXPBD@Z 5f44945c f
 0001:00048535       ?Close@CDaoQueryDef@@UAEXXZ 5f449535 f
 0001:00048589       ?CanUpdate@CDaoQueryDef@@QAEHXZ 5f449589 f
 0001:000485b3       ?GetName@CDaoQueryDef@@QAE?AVCString@@XZ 5f4495b3 f
 0001:0004861b       ?SetName@CDaoQueryDef@@QAEXPBD@Z 5f44961b f
 0001:0004866d       ?GetSQL@CDaoQueryDef@@QAE?AVCString@@XZ 5f44966d f
 0001:000486d5       ?SetSQL@CDaoQueryDef@@QAEXPBD@Z 5f4496d5 f
 0001:00048727       ?GetType@CDaoQueryDef@@QAEFXZ 5f449727 f
 0001:0004874b       ?GetDateCreated@CDaoQueryDef@@QAE?AVCOleDateTime@@XZ 5f44974b f
 0001:000487a9       ?GetDateLastUpdated@CDaoQueryDef@@QAE?AVCOleDateTime@@XZ 5f4497a9 f
 0001:00048807       ?GetConnect@CDaoQueryDef@@QAE?AVCString@@XZ 5f449807 f
 0001:0004886f       ?SetConnect@CDaoQueryDef@@QAEXPBD@Z 5f44986f f
 0001:000488c1       ?GetODBCTimeout@CDaoQueryDef@@QAEFXZ 5f4498c1 f
 0001:000488e5       ?SetODBCTimeout@CDaoQueryDef@@QAEXF@Z 5f4498e5 f
 0001:00048902       ?GetReturnsRecords@CDaoQueryDef@@QAEHXZ 5f449902 f
 0001:0004892c       ?GetRecordsAffected@CDaoQueryDef@@QAEJXZ 5f44992c f
 0001:0004894f       ?Execute@CDaoQueryDef@@UAEXH@Z 5f44994f f
 0001:000489ab       ?GetParamValue@CDaoQueryDef@@UAE?AVCOleVariant@@PBD@Z 5f4499ab f
 0001:00048a86       ?GetParamValue@CDaoQueryDef@@UAE?AVCOleVariant@@H@Z 5f449a86 f
 0001:00048b61       ?SetParamValue@CDaoQueryDef@@UAEXPBDABVCOleVariant@@@Z 5f449b61 f
 0001:00048c1d       ?SetParamValue@CDaoQueryDef@@UAEXHABVCOleVariant@@@Z 5f449c1d f
 0001:00048cd9       ?SetParamValueNull@CDaoQueryDef@@QAEXPBD@Z 5f449cd9 f
 0001:00048d21       ?SetParamValueNull@CDaoQueryDef@@QAEXH@Z 5f449d21 f
 0001:00048d69       ?GetFieldCount@CDaoQueryDef@@QAEFXZ 5f449d69 f
 0001:00048d9d       ?GetFieldInfo@CDaoQueryDef@@QAEXHAAUCDaoFieldInfo@@K@Z 5f449d9d f
 0001:00048e27       ?GetFieldInfo@CDaoQueryDef@@QAEXPBDAAUCDaoFieldInfo@@K@Z 5f449e27 f
 0001:00048eb1       ?GetParameterCount@CDaoQueryDef@@QAEFXZ 5f449eb1 f
 0001:00048ee5       ?GetParameterInfo@CDaoQueryDef@@QAEXHAAUCDaoParameterInfo@@K@Z 5f449ee5 f
 0001:00048f6e       ?GetParameterInfo@CDaoQueryDef@@QAEXPBDAAUCDaoParameterInfo@@K@Z 5f449f6e f
 0001:00048ff7       ?InitFieldsCollection@CDaoQueryDef@@IAEXXZ 5f449ff7 f
 0001:00049012       ?InitParametersCollection@CDaoQueryDef@@IAEXXZ 5f44a012 f
 0001:0004902d       ?FillParameterInfo@CDaoQueryDef@@IAEXPAUDAOParameter@@AAUCDaoParameterInfo@@K@Z 5f44a02d f
 0001:0004910c       ?GetRuntimeClass@CDaoRecordset@@UBEPAUCRuntimeClass@@XZ 5f44a10c f
 0001:00049112       ??0CDaoRecordset@@QAE@PAVCDaoDatabase@@@Z 5f44a112 f
 0001:000491db       ??1CDaoRecordset@@UAE@XZ   5f44a1db f
 0001:0004928d       ?Open@CDaoRecordset@@UAEXHPBDH@Z 5f44a28d f
 0001:0004965a       ?Open@CDaoRecordset@@UAEXPAVCDaoQueryDef@@HH@Z 5f44a65a f
 0001:00049796       ?Open@CDaoRecordset@@UAEXPAVCDaoTableDef@@HH@Z 5f44a796 f
 0001:000498be       ?Close@CDaoRecordset@@UAEXXZ 5f44a8be f
 0001:000499e0       ?Requery@CDaoRecordset@@UAEXXZ 5f44a9e0 f
 0001:00049afc       ?GetDefaultDBName@CDaoRecordset@@UAE?AVCString@@XZ 5f44aafc f
 0001:00049b18       ?IsBOF@CDaoRecordset@@QBEHXZ 5f44ab18 f
 0001:00049b42       ?CanScroll@CDaoRecordset@@QBEHXZ 5f44ab42 f
 0001:00049b46       ?CanUpdate@CDaoRecordset@@QBEHXZ 5f44ab46 f
 0001:00049b70       ?CanRestart@CDaoRecordset@@QAEHXZ 5f44ab70 f
 0001:00049b9a       ?CanTransact@CDaoRecordset@@QAEHXZ 5f44ab9a f
 0001:00049bc4       ?CanBookmark@CDaoRecordset@@QAEHXZ 5f44abc4 f
 0001:00049bee       ?GetName@CDaoRecordset@@QAE?AVCString@@XZ 5f44abee f
 0001:00049c56       ?GetType@CDaoRecordset@@QAEFXZ 5f44ac56 f
 0001:00049c7a       ?GetEditMode@CDaoRecordset@@QAEFXZ 5f44ac7a f
 0001:00049ca1       ?GetSQL@CDaoRecordset@@QBE?AVCString@@XZ 5f44aca1 f
 0001:00049cbc       ?GetDateCreated@CDaoRecordset@@QAE?AVCOleDateTime@@XZ 5f44acbc f
 0001:00049d1a       ?GetDateLastUpdated@CDaoRecordset@@QAE?AVCOleDateTime@@XZ 5f44ad1a f
 0001:00049d78       ?GetLastModifiedBookmark@CDaoRecordset@@QAE?AVCOleVariant@@XZ 5f44ad78 f
 0001:00049de1       ?GetValidationRule@CDaoRecordset@@QAE?AVCString@@XZ 5f44ade1 f
 0001:00049e4c       ?GetValidationText@CDaoRecordset@@QAE?AVCString@@XZ 5f44ae4c f
 0001:00049eb4       ?GetCurrentIndex@CDaoRecordset@@QAE?AVCString@@XZ 5f44aeb4 f
 0001:00049f1c       ?SetCurrentIndex@CDaoRecordset@@QAEXPBD@Z 5f44af1c f
 0001:00049f75       ?GetRecordCount@CDaoRecordset@@QAEJXZ 5f44af75 f
 0001:00049f98       ?SetFieldDirty@CDaoRecordset@@QAEXPAXH@Z 5f44af98 f
 0001:00049fe3       ?IsFieldDirty@CDaoRecordset@@QAEHPAX@Z 5f44afe3 f
 0001:0004a050       ?SetFieldNull@CDaoRecordset@@QAEXPAXH@Z 5f44b050 f
 0001:0004a0b3       ?IsFieldNull@CDaoRecordset@@QAEHPAX@Z 5f44b0b3 f
 0001:0004a0fc       ?IsFieldNullable@CDaoRecordset@@QAEHPAX@Z 5f44b0fc f
 0001:0004a1b0       ?GetFieldCount@CDaoRecordset@@QAEFXZ 5f44b1b0 f
 0001:0004a1e4       ?GetFieldInfo@CDaoRecordset@@QAEXHAAUCDaoFieldInfo@@K@Z 5f44b1e4 f
 0001:0004a26e       ?GetFieldInfo@CDaoRecordset@@QAEXPBDAAUCDaoFieldInfo@@K@Z 5f44b26e f
 0001:0004a2f8       ?GetIndexCount@CDaoRecordset@@QAEFXZ 5f44b2f8 f
 0001:0004a32c       ?GetIndexInfo@CDaoRecordset@@QAEXHAAUCDaoIndexInfo@@K@Z 5f44b32c f
 0001:0004a3b6       ?GetIndexInfo@CDaoRecordset@@QAEXPBDAAUCDaoIndexInfo@@K@Z 5f44b3b6 f
 0001:0004a440       ?GetBookmark@CDaoRecordset@@QAE?AVCOleVariant@@XZ 5f44b440 f
 0001:0004a4a9       ?SetBookmark@CDaoRecordset@@QAEXVCOleVariant@@@Z 5f44b4a9 f
 0001:0004a4f3       ?GetAbsolutePosition@CDaoRecordset@@QAEJXZ 5f44b4f3 f
 0001:0004a519       ?SetAbsolutePosition@CDaoRecordset@@QAEXJ@Z 5f44b519 f
 0001:0004a544       ?GetPercentPosition@CDaoRecordset@@QAEMXZ 5f44b544 f
 0001:0004a56a       ?SetPercentPosition@CDaoRecordset@@QAEXM@Z 5f44b56a f
 0001:0004a599       ?MoveNext@CDaoRecordset@@QAEXXZ 5f44b599 f
 0001:0004a5a1       ?MovePrev@CDaoRecordset@@QAEXXZ 5f44b5a1 f
 0001:0004a5a9       ?MoveFirst@CDaoRecordset@@QAEXXZ 5f44b5a9 f
 0001:0004a5b4       ?MoveLast@CDaoRecordset@@QAEXXZ 5f44b5b4 f
 0001:0004a5bf       ?Move@CDaoRecordset@@UAEXJ@Z 5f44b5bf f
 0001:0004a6a8       ?FindNext@CDaoRecordset@@QAEHPBD@Z 5f44b6a8 f
 0001:0004a6b6       ?FindPrev@CDaoRecordset@@QAEHPBD@Z 5f44b6b6 f
 0001:0004a6c4       ?FindFirst@CDaoRecordset@@QAEHPBD@Z 5f44b6c4 f
 0001:0004a6d5       ?FindLast@CDaoRecordset@@QAEHPBD@Z 5f44b6d5 f
 0001:0004a6e6       ?Find@CDaoRecordset@@UAEHJPBD@Z 5f44b6e6 f
 0001:0004a7b6       ?Seek@CDaoRecordset@@QAEHPBDPAVCOleVariant@@11@Z 5f44b7b6 f
 0001:0004a922       ?Seek@CDaoRecordset@@QAEHPBDPAVCOleVariant@@G@Z 5f44b922 f
 0001:0004aa6b       ?CancelUpdate@CDaoRecordset@@UAEXXZ 5f44ba6b f
 0001:0004aa9c       ?SetLockingMode@CDaoRecordset@@QAEXH@Z 5f44ba9c f
 0001:0004aabe       ?SetCacheStart@CDaoRecordset@@QAEXVCOleVariant@@@Z 5f44babe f
 0001:0004ab00       ?GetCacheStart@CDaoRecordset@@QAE?AVCOleVariant@@XZ 5f44bb00 f
 0001:0004ab6c       ?SetCacheSize@CDaoRecordset@@QAEXJ@Z 5f44bb6c f
 0001:0004ab8c       ?GetCacheSize@CDaoRecordset@@QAEJXZ 5f44bb8c f
 0001:0004abb2       ?FillCache@CDaoRecordset@@QAEXPAJPAVCOleVariant@@@Z 5f44bbb2 f
 0001:0004ac67       ?AddNew@CDaoRecordset@@UAEXXZ 5f44bc67 f
 0001:0004acc3       ?Edit@CDaoRecordset@@UAEXXZ 5f44bcc3 f
 0001:0004ad1b       ?Update@CDaoRecordset@@UAEXXZ 5f44bd1b f
 0001:0004ad76       ?Delete@CDaoRecordset@@UAEXXZ 5f44bd76 f
 0001:0004adba       ?GetFieldValue@CDaoRecordset@@UAE?AVCOleVariant@@PBD@Z 5f44bdba f
 0001:0004ae11       ?GetFieldValue@CDaoRecordset@@UAE?AVCOleVariant@@H@Z 5f44be11 f
 0001:0004ae68       ?GetFieldValue@CDaoRecordset@@UAEXPBDAAVCOleVariant@@@Z 5f44be68 f
 0001:0004aed3       ?GetFieldValue@CDaoRecordset@@UAEXHAAVCOleVariant@@@Z 5f44bed3 f
 0001:0004af3e       ?SetFieldValue@CDaoRecordset@@UAEXPBDABVCOleVariant@@@Z 5f44bf3e f
 0001:0004afb5       ?SetFieldValue@CDaoRecordset@@UAEXHABVCOleVariant@@@Z 5f44bfb5 f
 0001:0004b02c       ?SetFieldValue@CDaoRecordset@@QAEXHPBD@Z 5f44c02c f
 0001:0004b074       ?SetFieldValue@CDaoRecordset@@QAEXPBD0@Z 5f44c074 f
 0001:0004b0bc       ?SetFieldValueNull@CDaoRecordset@@QAEXPBD@Z 5f44c0bc f
 0001:0004b104       ?SetFieldValueNull@CDaoRecordset@@QAEXH@Z 5f44c104 f
 0001:0004b14c       ?GetParamValue@CDaoRecordset@@UAE?AVCOleVariant@@PBD@Z 5f44c14c f
 0001:0004b169       ?GetParamValue@CDaoRecordset@@UAE?AVCOleVariant@@H@Z 5f44c169 f
 0001:0004b186       ?SetParamValue@CDaoRecordset@@UAEXPBDABVCOleVariant@@@Z 5f44c186 f
 0001:0004b199       ?SetParamValue@CDaoRecordset@@UAEXHABVCOleVariant@@@Z 5f44c199 f
 0001:0004b1ac       ?SetParamValueNull@CDaoRecordset@@QAEXPBD@Z 5f44c1ac f
 0001:0004b1f4       ?SetParamValueNull@CDaoRecordset@@QAEXH@Z 5f44c1f4 f
 0001:0004b23c       ?GetFieldLength@CDaoRecordset@@QAEKH@Z 5f44c23c f
 0001:0004b249       ?InitFieldsCollection@CDaoRecordset@@IAEXXZ 5f44c249 f
 0001:0004b267       ?InitIndexesCollection@CDaoRecordset@@IAEXXZ 5f44c267 f
 0001:0004b285       ?BuildSQL@CDaoRecordset@@IAEXXZ 5f44c285 f
 0001:0004b346       ?AllocDatabase@CDaoRecordset@@IAEXXZ 5f44c346 f
 0001:0004b3cb       ?BuildSelectList@CDaoRecordset@@IAEXXZ 5f44c3cb f
 0001:0004b3fc       ?BuildParameterList@CDaoRecordset@@IAEXXZ 5f44c3fc f
 0001:0004b44c       ?BindFields@CDaoRecordset@@IAEXXZ 5f44c44c f
 0001:0004b514       ?BindParameters@CDaoRecordset@@IAEXXZ 5f44c514 f
 0001:0004b53e       ?Fixup@CDaoRecordset@@IAEXXZ 5f44c53e f
 0001:0004b562       ?AllocCache@CDaoRecordset@@IAEXXZ 5f44c562 f
 0001:0004b5cf       ?StoreFields@CDaoRecordset@@IAEXXZ 5f44c5cf f
 0001:0004b5fe       ?LoadFields@CDaoRecordset@@IAEXXZ 5f44c5fe f
 0001:0004b638       ?FreeCache@CDaoRecordset@@IAEXXZ 5f44c638 f
 0001:0004b6b4       ?MarkForAddNew@CDaoRecordset@@IAEXXZ 5f44c6b4 f
 0001:0004b6d8       ?MarkForEdit@CDaoRecordset@@IAEXXZ 5f44c6d8 f
 0001:0004b6fc       ?GetFieldIndex@CDaoRecordset@@IAEHPAX@Z 5f44c6fc f
 0001:0004b71f       ?SetDirtyFields@CDaoRecordset@@MAEXXZ 5f44c71f f
 0001:0004b74e       ?SetCursorAttributes@CDaoRecordset@@QAEXXZ 5f44c74e f
 0001:0004b785       ?GetDataAndFixupNulls@CDaoRecordset@@QAEXXZ 5f44c785 f
 0001:0004b81a       ?IsFieldStatusDirty@CDaoRecordset@@QAEHI@Z 5f44c81a f
 0001:0004b830       ?SetDirtyFieldStatus@CDaoRecordset@@QAEXI@Z 5f44c830 f
 0001:0004b83f       ?ClearDirtyFieldStatus@CDaoRecordset@@QAEXI@Z 5f44c83f f
 0001:0004b84e       ?IsFieldStatusNull@CDaoRecordset@@QAEHI@Z 5f44c84e f
 0001:0004b864       ?SetNullFieldStatus@CDaoRecordset@@QAEXI@Z 5f44c864 f
 0001:0004b873       ?ClearNullFieldStatus@CDaoRecordset@@QAEXI@Z 5f44c873 f
 0001:0004b882       ?IsFieldStatusNullable@CDaoRecordset@@QAEHI@Z 5f44c882 f
 0001:0004b898       ?SetNullableFieldStatus@CDaoRecordset@@QAEXI@Z 5f44c898 f
 0001:0004b8a7       ?IsFieldStatusNullableKnown@CDaoRecordset@@QAEHI@Z 5f44c8a7 f
 0001:0004b8bd       ?SetNullableKnownFieldStatus@CDaoRecordset@@QAEXI@Z 5f44c8bd f
 0001:0004b8cc       ?ClearFieldStatusFlags@CDaoRecordset@@QAEXXZ 5f44c8cc f
 0001:0004b8dd       ?IsMatch@CDaoRecordset@@QAEHXZ 5f44c8dd f
 0001:0004b908       ?StripBrackets@CDaoRecordset@@SAXPBDPAD@Z 5f44c908 f
 0001:0004b958       ?AfxGetFieldInfo@@YAXPAU_DAOField@@AAUCDaoFieldInfo@@K@Z 5f44c958 f
 0001:0004bbdc       ?AfxSetFieldInfo@@YAXPAU_DAOField@@AAUCDaoFieldInfo@@@Z 5f44cbdc f
 0001:0004bd36       ?AfxGetDefaultValue@@YAXPAU_DAOField@@AAVCString@@@Z 5f44cd36 f
 0001:0004bdc0       ?AfxSetDefaultValue@@YAXPAU_DAOField@@AAVCString@@@Z 5f44cdc0 f
 0001:0004be3b       ?AfxGetIndexInfo@@YAXPAU_DAOIndex@@AAUCDaoIndexInfo@@K@Z 5f44ce3b f
 0001:0004bfa8       ?AfxSetIndexInfo@@YAXPAU_DAOIndex@@AAUCDaoIndexInfo@@@Z 5f44cfa8 f
 0001:0004c03a       ?AfxGetIndexFields@@YAXPAU_DAOIndex@@PAPAUDAOIndexFields@@@Z 5f44d03a f
 0001:0004c0c1       ?AfxGetIndexFieldInfo@@YAXPAU_DAOIndex@@AAUCDaoIndexInfo@@@Z 5f44d0c1 f
 0001:0004c2dd       ??0CDaoIndexFieldInfo@@QAE@XZ 5f44d2dd f
 0001:0004c2e9       ?AfxSetIndexFieldInfo@@YAXPAU_DAOIndex@@AAUCDaoIndexInfo@@@Z 5f44d2e9 f
 0001:0004c422       ?ThrowGetRowsDaoException@@YAXJ@Z 5f44d422 f
 0001:0004c4e9       ?AfxGetDaoState@@YAPAV_AFX_DAO_STATE@@XZ 5f44d4e9 f
 0001:0004c594       ?AfxDaoGetEngine@@YGPAU_DAODBEngine@@XZ 5f44d594 f
 0001:0004c59d       ?AfxDaoTerm@@YGXXZ         5f44d59d f
 0001:0004c61d       ??_9@$BEM@AG               5f44d61d f
 0001:0004c626       ??_9@$BHE@AG               5f44d626 f
 0001:0004c62f       ??_9@$BHI@AG               5f44d62f f
 0001:0004c638       ??0CDaoFieldExchange@@QAE@IPAVCDaoRecordset@@PAX@Z 5f44d638 f
 0001:0004c65c       ?IsValidOperation@CDaoFieldExchange@@QAEHXZ 5f44d65c f
 0001:0004c681       ?AppendParamType@CDaoFieldExchange@@SGXAAVCString@@K@Z 5f44d681 f
 0001:0004c718       ?GetCacheValue@CDaoFieldExchange@@SGPAUCDaoFieldCache@@PAVCDaoRecordset@@PAX@Z 5f44d718 f
 0001:0004c743       ?SetNullValue@CDaoFieldExchange@@SGXPAXK@Z 5f44d743 f
 0001:0004c7fb       ?IsNullValue@CDaoFieldExchange@@SGHPAXK@Z 5f44d7fb f
 0001:0004c8aa       ?AllocCacheValue@CDaoFieldExchange@@SGXAAPAUCDaoFieldCache@@K@Z 5f44d8aa f
 0001:0004ca30       ?DeleteCacheValue@CDaoFieldExchange@@SGXPAUCDaoFieldCache@@K@Z 5f44da30 f
 0001:0004ca82       ?CopyValue@CDaoFieldExchange@@SGXPAX0K@Z 5f44da82 f
 0001:0004cba2       ?CompareValue@CDaoFieldExchange@@SGHPAX0K@Z 5f44dba2 f
 0001:0004cd0b       ?FillVariant@CDaoFieldExchange@@SGXPAXKPAPAVCOleVariant@@@Z 5f44dd0b f
 0001:0004ce66       ?Default@CDaoFieldExchange@@QAEXPBDPAXKK@Z 5f44de66 f
 0001:0004d2ec       ?DFX_Text@@YGXPAVCDaoFieldExchange@@PBDAAVCString@@HK@Z 5f44e2ec f
 0001:0004d3a6       ?DFX_Binary@@YGXPAVCDaoFieldExchange@@PBDAAVCByteArray@@HK@Z 5f44e3a6 f
 0001:0004d423       ?DFX_LongBinary@@YGXPAVCDaoFieldExchange@@PBDAAVCLongBinary@@KK@Z 5f44e423 f
 0001:0004d4b0       ?DFX_Bool@@YGXPAVCDaoFieldExchange@@PBDAAHK@Z 5f44e4b0 f
 0001:0004d53a       ?DFX_Byte@@YGXPAVCDaoFieldExchange@@PBDAAEK@Z 5f44e53a f
 0001:0004d5ac       ?DFX_Short@@YGXPAVCDaoFieldExchange@@PBDAAFK@Z 5f44e5ac f
 0001:0004d620       ?DFX_Long@@YGXPAVCDaoFieldExchange@@PBDAAJK@Z 5f44e620 f
 0001:0004d692       ?DFX_Currency@@YGXPAVCDaoFieldExchange@@PBDAAVCOleCurrency@@K@Z 5f44e692 f
 0001:0004d730       ?DFX_Single@@YGXPAVCDaoFieldExchange@@PBDAAMK@Z 5f44e730 f
 0001:0004d7a6       ?DFX_Double@@YGXPAVCDaoFieldExchange@@PBDAANK@Z 5f44e7a6 f
 0001:0004d817       ?DFX_DateTime@@YGXPAVCDaoFieldExchange@@PBDAAVCOleDateTime@@K@Z 5f44e817 f
 0001:0004d8b4       _DaoStringAllocCallback@12 5f44e8b4 f
 0001:0004d90e       _DaoBinaryAllocCallback@12 5f44e90e f
 0001:0004d96d       _DaoLongBinaryAllocCallback@12 5f44e96d f
 0001:0004d9e4       ?AllocLongBinary@@YAXAAVCLongBinary@@K@Z 5f44e9e4 f
 0001:0004da3e       ?_GetBaseClass@CDaoRecordView@@KGPAUCRuntimeClass@@XZ 5f44ea3e f
 0001:0004da44       ?GetRuntimeClass@CDaoRecordView@@UBEPAUCRuntimeClass@@XZ 5f44ea44 f
 0001:0004da4a       ?GetMessageMap@CDaoRecordView@@MBEPBUAFX_MSGMAP@@XZ 5f44ea4a f
 0001:0004da50       ??0CDaoRecordView@@IAE@PBD@Z 5f44ea50 f
 0001:0004dadd       ??_ECDaoRecordView@@UAEPAXI@Z 5f44eadd f
 0001:0004dadd       ??_GCDaoRecordView@@UAEPAXI@Z 5f44eadd f
 0001:0004daf9       ??0CDaoRecordView@@IAE@I@Z 5f44eaf9 f
 0001:0004db86       ??1CDaoRecordView@@UAE@XZ  5f44eb86 f
 0001:0004dbbb       ?OnInitialUpdate@CDaoRecordView@@UAEXXZ 5f44ebbb f
 0001:0004dc9b       ?OnMove@CDaoRecordView@@UAEHI@Z 5f44ec9b f
 0001:0004df38       ?IsOnFirstRecord@CDaoRecordView@@QAEHXZ 5f44ef38 f
 0001:0004df4b       ?IsOnLastRecord@CDaoRecordView@@QAEHXZ 5f44ef4b f
 0001:0004df5e       ?AfxFieldText@@YGHPAVCDataExchange@@HPAXPAVCDaoRecordset@@@Z 5f44ef5e f
 0001:0004e007       ?DDX_FieldText@@YGXPAVCDataExchange@@HAAHPAVCDaoRecordset@@@Z 5f44f007 f
 0001:0004e031       ?DDX_FieldText@@YGXPAVCDataExchange@@HAAEPAVCDaoRecordset@@@Z 5f44f031 f
 0001:0004e05b       ?DDX_FieldText@@YGXPAVCDataExchange@@HAAFPAVCDaoRecordset@@@Z 5f44f05b f
 0001:0004e085       ?DDX_FieldText@@YGXPAVCDataExchange@@HAAJPAVCDaoRecordset@@@Z 5f44f085 f
 0001:0004e0af       ?DDX_FieldText@@YGXPAVCDataExchange@@HAAKPAVCDaoRecordset@@@Z 5f44f0af f
 0001:0004e0d9       ?DDX_FieldText@@YGXPAVCDataExchange@@HAAVCOleCurrency@@PAVCDaoRecordset@@@Z 5f44f0d9 f
 0001:0004e103       ?DDX_FieldText@@YGXPAVCDataExchange@@HAAMPAVCDaoRecordset@@@Z 5f44f103 f
 0001:0004e12d       ?DDX_FieldText@@YGXPAVCDataExchange@@HAANPAVCDaoRecordset@@@Z 5f44f12d f
 0001:0004e157       ?DDX_FieldText@@YGXPAVCDataExchange@@HAAVCOleDateTime@@PAVCDaoRecordset@@@Z 5f44f157 f
 0001:0004e181       ?DDX_FieldText@@YGXPAVCDataExchange@@HAAVCString@@PAVCDaoRecordset@@@Z 5f44f181 f
 0001:0004e1ab       ?DDX_FieldText@@YGXPAVCDataExchange@@HPADHPAVCDaoRecordset@@@Z 5f44f1ab f
 0001:0004e1d9       ?DDX_FieldLBString@@YGXPAVCDataExchange@@HAAVCString@@PAVCDaoRecordset@@@Z 5f44f1d9 f
 0001:0004e2c9       ?DDX_FieldLBStringExact@@YGXPAVCDataExchange@@HAAVCString@@PAVCDaoRecordset@@@Z 5f44f2c9 f
 0001:0004e342       ?DDX_FieldCBString@@YGXPAVCDataExchange@@HAAVCString@@PAVCDaoRecordset@@@Z 5f44f342 f
 0001:0004e40f       ?DDX_FieldCBStringExact@@YGXPAVCDataExchange@@HAAVCString@@PAVCDaoRecordset@@@Z 5f44f40f f
 0001:0004e488       ?DDX_FieldLBIndex@@YGXPAVCDataExchange@@HAAHPAVCDaoRecordset@@@Z 5f44f488 f
 0001:0004e4c4       ?DDX_FieldCBIndex@@YGXPAVCDataExchange@@HAAHPAVCDaoRecordset@@@Z 5f44f4c4 f
 0001:0004e500       ?DDX_FieldScroll@@YGXPAVCDataExchange@@HAAHPAVCDaoRecordset@@@Z 5f44f500 f
 0001:0004e53c       ?DDX_FieldSlider@@YGXPAVCDataExchange@@HAAHPAVCDaoRecordset@@@Z 5f44f53c f
 0001:0004e578       ?DDX_FieldCheck@@YGXPAVCDataExchange@@HAAHPAVCDaoRecordset@@@Z 5f44f578 f
 0001:0004e624       ?DDX_FieldRadio@@YGXPAVCDataExchange@@HAAHPAVCDaoRecordset@@@Z 5f44f624 f
 0001:0004e68d       ?OnUpdateRecordNext@CDaoRecordView@@IAEXPAVCCmdUI@@@Z 5f44f68d f
 0001:0004e6a4       ?OnUpdateRecordPrev@CDaoRecordView@@IAEXPAVCCmdUI@@@Z 5f44f6a4 f
 0001:0004e6bb       ?OnUpdateRecordLast@CDaoRecordView@@IAEXPAVCCmdUI@@@Z 5f44f6bb f
 0001:0004e6d2       ?MoveLast@CRowset@ATL@@QAEJXZ 5f44f6d2 f
 0001:0004e724       ??0CPen@@QAE@XZ            5f44f724 f
 0001:0004e731       ??0CBrush@@QAE@XZ          5f44f731 f
 0001:0004e73e       ??0CFont@@QAE@XZ           5f44f73e f
 0001:0004e74b       ??0CBitmap@@QAE@XZ         5f44f74b f
 0001:0004e758       ??0CPalette@@QAE@XZ        5f44f758 f
 0001:0004e765       ??1CPalette@@UAE@XZ        5f44f765 f
 0001:0004e798       ??0CRgn@@QAE@XZ            5f44f798 f
 0001:0004e7a5       ??0CMenu@@QAE@XZ           5f44f7a5 f
 0001:0004e7b2       ??0CStatic@@QAE@XZ         5f44f7b2 f
 0001:0004e7c4       ??0CButton@@QAE@XZ         5f44f7c4 f
 0001:0004e7d6       ??0CListBox@@QAE@XZ        5f44f7d6 f
 0001:0004e7e8       ??0CCheckListBox@@QAE@XZ   5f44f7e8 f
 0001:0004e802       ??1CListBox@@UAE@XZ        5f44f802 f
 0001:0004e802       ??1CCheckListBox@@UAE@XZ   5f44f802 f
 0001:0004e83a       ??0CComboBox@@QAE@XZ       5f44f83a f
 0001:0004e84c       ??0CEdit@@QAE@XZ           5f44f84c f
 0001:0004e85e       ??0CScrollBar@@QAE@XZ      5f44f85e f
 0001:0004e870       ??0CRectTracker@@QAE@XZ    5f44f870 f
 0001:0004e882       ??0CBitmapButton@@QAE@XZ   5f44f882 f
 0001:0004e8b3       ??1CBitmapButton@@UAE@XZ   5f44f8b3 f
 0001:0004e947       ??0COleVariant@@QAE@XZ     5f44f947 f
 0001:0004e954       ??0CDataPathProperty@@QAE@PAVCOleControl@@@Z 5f44f954 f
 0001:0004e993       ??0CCachedDataPathProperty@@QAE@PAVCOleControl@@@Z 5f44f993 f
 0001:0004e9ec       ??1CCachedDataPathProperty@@UAE@XZ 5f44f9ec f
 0001:0004ea30       ??0CCriticalSection@@QAE@XZ 5f44fa30 f
 0001:0004ea4e       ??0CDragListBox@@QAE@XZ    5f44fa4e f
 0001:0004ea64       ??0CToolBarCtrl@@QAE@XZ    5f44fa64 f
 0001:0004ea76       ??0CStatusBarCtrl@@QAE@XZ  5f44fa76 f
 0001:0004ea88       ??0CListCtrl@@QAE@XZ       5f44fa88 f
 0001:0004ea9a       ??0CTreeCtrl@@QAE@XZ       5f44fa9a f
 0001:0004eaac       ??0CHotKeyCtrl@@QAE@XZ     5f44faac f
 0001:0004eabe       ??0CSpinButtonCtrl@@QAE@XZ 5f44fabe f
 0001:0004ead0       ??0CSliderCtrl@@QAE@XZ     5f44fad0 f
 0001:0004eae2       ??0CProgressCtrl@@QAE@XZ   5f44fae2 f
 0001:0004eaf4       ??0CHeaderCtrl@@QAE@XZ     5f44faf4 f
 0001:0004eb06       ??0CTabCtrl@@QAE@XZ        5f44fb06 f
 0001:0004eb18       ??0CAnimateCtrl@@QAE@XZ    5f44fb18 f
 0001:0004eb2a       ??0CRichEditCtrl@@QAE@XZ   5f44fb2a f
 0001:0004eb3c       ??0CListView@@QAE@XZ       5f44fb3c f
 0001:0004eb58       ??0CTreeView@@QAE@XZ       5f44fb58 f
 0001:0004eb74       ??_Etype_info@@UAEPAXI@Z   5f44fb74 f
 0001:0004eb74       ??_Gtype_info@@UAEPAXI@Z   5f44fb74 f
 0001:0004eb9c       __CxxThrowException@8      5f44fb9c f
 0001:0004eba2       _strlen                    5f44fba2 f
 0001:0004eba8       __purecall                 5f44fba8 f
 0001:0004ebae       __alldiv                   5f44fbae f
 0001:0004ec58       __allmul                   5f44fc58 f
 0001:0004ec8c       __allshr                   5f44fc8c f
 0001:0004ecd9       ?__ArrayUnwind@@YGXPAXIHP6EX0@Z@Z 5f44fcd9 f
 0001:0004ed48       __ftol                     5f44fd48 f
 0001:0004ed4e       _labs                      5f44fd4e f
 0001:0004ed54       _fabs                      5f44fd54 f
 0001:0004ed7d       ??1type_info@@UAE@XZ       5f44fd7d f
 0001:0004ed83       __except_handler3          5f44fd83 f
 0001:0004ed89       ?terminate@@YAXXZ          5f44fd89 f
 0001:0004ed8f       _SetLastError@4            5f44fd8f f
 0001:0004ed95       _OutputDebugStringA@4      5f44fd95 f
 0001:0004ed9b       _lstrcmpA@8                5f44fd9b f
 0001:0004eda1       _GetModuleHandleA@4        5f44fda1 f
 0001:0004eda7       _GetTickCount@0            5f44fda7 f
 0001:0004edad       _ReuseDDElParam@20         5f44fdad f
 0001:0004edb3       _UnpackDDElParam@16        5f44fdb3 f
 0001:0004edb9       _Downlevel_DelayLoadFailureHook@8 5f44fdb9 f
 0001:0004ee7a       _DelayLoadFailureHook@8    5f44fe7a f
 0001:0004eea1       _AtlStrLower               5f44fea1 f
 0001:0004eeeb       _FindDll                   5f44feeb f
 0001:0004efd7       _LookupHandlerByName       5f44ffd7 f
 0001:0004f061       _LookupHandlerByOrdinal    5f450061 f
 0001:0004f0e2       _LookupHandler             5f4500e2 f
 0001:0004f9fb       _UrlMkSetSessionOption@16  5f4509fb f
 0001:00050df1       __imp_load__OleCreateFontIndirect@12 5f451df1 f
 0001:00050df8       __tailMerge_OLEPRO32       5f451df8 f
 0001:00050e06       __imp_load__OleCreatePropertyFrame@44 5f451e06 f
 0001:00050e0f       __imp_load__OleTranslateColor@12 5f451e0f f
 0001:00050e18       __imp_load__OleCreatePictureIndirect@16 5f451e18 f
 0001:00050e21       __imp_load__OleLoadPicture@20 5f451e21 f
 0001:00050e2a       __imp_load__SetFileSecurityA@12 5f451e2a f
 0001:00050e36       __imp_load__GetFileSecurityA@20 5f451e36 f
 0001:00050e42       __imp_load__RegEnumKeyA@16 5f451e42 f
 0001:00050e4e       __imp_load__RegDeleteValueA@8 5f451e4e f
 0001:00050e5a       __imp_load__OleLockRunning@12 5f451e5a f
 0001:00050e66       __imp_load__OleSetContainedObject@8 5f451e66 f
 0001:00050e72       __imp_load__OleCreateFromData@28 5f451e72 f
 0001:00050e7e       __imp_load__OleCreateLinkFromData@28 5f451e7e f
 0001:00050e8a       __imp_load__OleCreateStaticFromData@28 5f451e8a f
 0001:00050e96       __imp_load__OleCreateFromFile@32 5f451e96 f
 0001:00050ea2       __imp_load__OleCreateLinkToFile@28 5f451ea2 f
 0001:00050eae       __imp_load__OleCreate@28   5f451eae f
 0001:00050eba       __imp_load__OleLoad@16     5f451eba f
 0001:00050ec6       __imp_load__OleSave@12     5f451ec6 f
 0001:00050ed2       __imp_load__StgCreateDocfileOnILockBytes@16 5f451ed2 f
 0001:00050ede       __imp_load__CreateILockBytesOnHGlobal@12 5f451ede f
 0001:00050eea       __imp_load__StgOpenStorageOnILockBytes@24 5f451eea f
 0001:00050ef6       __imp_load__GetHGlobalFromILockBytes@8 5f451ef6 f
 0001:00050f02       __imp_load__ReleaseStgMedium@4 5f451f02 f
 0001:00050f0e       __imp_load__OleGetIconOfClass@12 5f451f0e f
 0001:00050f1a       __imp_load__WriteClassStm@8 5f451f1a f
 0001:00050f26       __imp_load__OleSaveToStream@8 5f451f26 f
 0001:00050f32       __imp_load__CreateStreamOnHGlobal@12 5f451f32 f
 0001:00050f3e       __imp_load__CreateItemMoniker@12 5f451f3e f
 0001:00050f4a       __imp_load__CreateGenericComposite@12 5f451f4a f
 0001:00050f56       __imp_load__OleSetMenuDescriptor@20 5f451f56 f
 0001:00050f62       __imp_load__OleQueryCreateFromData@4 5f451f62 f
 0001:00050f6e       __imp_load__OleQueryLinkFromData@4 5f451f6e f
 0001:00050f7a       __imp_load__OleIsRunning@4 5f451f7a f
 0001:00050f86       __imp_load__OleGetClipboard@4 5f451f86 f
 0001:00050f92       __imp_load__OleSetClipboard@4 5f451f92 f
 0001:00050f9e       __imp_load__OleFlushClipboard@0 5f451f9e f
 0001:00050faa       __imp_load__OleIsCurrentClipboard@4 5f451faa f
 0001:00050fb6       __imp_load__CLSIDFromProgID@8 5f451fb6 f
 0001:00050fc2       __imp_load__CLSIDFromString@8 5f451fc2 f
 0001:00050fce       __imp_load__CreateBindCtx@8 5f451fce f
 0001:00050fda       __imp_load__GetClassFile@8 5f451fda f
 0001:00050fe6       __imp_load__OleRegGetUserType@12 5f451fe6 f
 0001:00050ff2       __imp_load__ReadFmtUserTypeStg@12 5f451ff2 f
 0001:00050ffe       __imp_load__ReadClassStg@8 5f451ffe f
 0001:0005100a       __imp_load__StgOpenStorage@24 5f45200a f
 0001:00051016       __imp_load__StgIsStorageFile@4 5f452016 f
 0001:00051022       __imp_load__DoDragDrop@16  5f452022 f
 0001:0005102e       __imp_load__OleTranslateAccelerator@12 5f45202e f
 0001:0005103a       __imp_load__IsAccelerator@16 5f45203a f
 0001:00051046       __imp_load__OleCreateMenuDescriptor@8 5f452046 f
 0001:00051052       __imp_load__OleDestroyMenuDescriptor@4 5f452052 f
 0001:0005105e       __imp_load__WriteClassStg@8 5f45205e f
 0001:0005106a       __imp_load__OleDuplicateData@12 5f45206a f
 0001:00051076       __imp_load__SetConvertStg@8 5f452076 f
 0001:00051082       __imp_load__WriteFmtUserTypeStg@12 5f452082 f
 0001:0005108e       __imp_load__CoTreatAsClass@8 5f45208e f
 0001:0005109a       __imp_load__OleRegEnumVerbs@8 5f45209a f
 0001:000510a6       __imp_load__OleRegGetMiscStatus@12 5f4520a6 f
 0001:000510b2       __imp_load__CreateOleAdviseHolder@4 5f4520b2 f
 0001:000510be       __imp_load__CreateDataAdviseHolder@4 5f4520be f
 0001:000510ca       __imp_load__CoGetClassObject@20 5f4520ca f
 0001:000510d6       __imp_load__CoGetMalloc@8  5f4520d6 f
 0001:000510e2       __imp_load__CreateDataCache@16 5f4520e2 f
 0001:000510ee       __imp_load__ReadClassStm@8 5f4520ee f
 0001:000510fa       __imp_load__OleLoadFromStream@12 5f4520fa f
 0001:00051106       __imp_load__StringFromGUID2@12 5f452106 f
 0001:00051112       __imp_load__CoInitialize@4 5f452112 f
 0001:0005111e       __imp_load__CoUninitialize@0 5f45211e f
 0001:0005112a       __imp_load__VariantCopy@8  5f45212a f
 0001:00051136       __imp_load__SysAllocStringLen@8 5f452136 f
 0001:00051142       __imp_load__SysReAllocStringLen@12 5f452142 f
 0001:0005114e       __imp_load__SysFreeString@4 5f45214e f
 0001:0005115a       __imp_load__SafeArrayUnaccessData@4 5f45215a f
 0001:00051166       __imp_load__SafeArrayAccessData@8 5f452166 f
 0001:00051172       __imp_load__SafeArrayGetUBound@12 5f452172 f
 0001:0005117e       __imp_load__SafeArrayGetLBound@12 5f45217e f
 0001:0005118a       __imp_load__SafeArrayGetElemsize@4 5f45218a f
 0001:00051196       __imp_load__SafeArrayGetDim@4 5f452196 f
 0001:000511a2       __imp_load__SafeArrayCreate@12 5f4521a2 f
 0001:000511ae       __imp_load__SafeArrayRedim@8 5f4521ae f
 0001:000511ba       __imp_load__SysStringByteLen@4 5f4521ba f
 0001:000511c6       __imp_load__VarCyFromStr@16 5f4521c6 f
 0001:000511d2       __imp_load__VarBstrFromCy@20 5f4521d2 f
 0001:000511de       __imp_load__VarDateFromStr@16 5f4521de f
 0001:000511ea       __imp_load__VarBstrFromDate@20 5f4521ea f
 0001:000511f6       __imp_load__SafeArrayCopy@8 5f4521f6 f
 0001:00051202       __imp_load__SafeArrayAllocData@4 5f452202 f
 0001:0005120e       __imp_load__SafeArrayAllocDescriptor@8 5f45220e f
 0001:0005121a       __imp_load__SafeArrayGetElement@12 5f45221a f
 0001:00051226       __imp_load__SafeArrayPtrOfIndex@12 5f452226 f
 0001:00051232       __imp_load__SafeArrayPutElement@12 5f452232 f
 0001:0005123e       __imp_load__SafeArrayLock@4 5f45223e f
 0001:0005124a       __imp_load__SafeArrayUnlock@4 5f45224a f
 0001:00051256       __imp_load__SafeArrayDestroy@4 5f452256 f
 0001:00051262       __imp_load__SafeArrayDestroyData@4 5f452262 f
 0001:0005126e       __imp_load__SafeArrayDestroyDescriptor@4 5f45226e f
 0001:0005127a       __imp_load__SafeArrayCreateVector@12 5f45227a f
 0001:00051286       __imp_load__LoadTypeLib@8  5f452286 f
 0001:00051292       __imp_load__VariantTimeToSystemTime@12 5f452292 f
 0001:0005129e       __imp_load__RegisterTypeLib@12 5f45229e f
 0001:000512aa       __imp_load__LoadRegTypeLib@20 5f4522aa f
 0001:000512b6       __imp_load__InitCommonControls@0 5f4522b6 f
 0001:000512c2       __imp_load__MakeDragList@4 5f4522c2 f
 0001:000512ce       __imp_load__LBItemFromPt@16 5f4522ce f
 0001:000512da       __imp_load__ImageList_Destroy@4 5f4522da f
 0001:000512e6       __imp_load__ImageList_Create@20 5f4522e6 f
 0001:000512f2       __imp_load__ImageList_LoadImageA@28 5f4522f2 f
 0001:000512fe       __imp_load__ImageList_Merge@24 5f4522fe f
 0001:0005130a       __imp_load__ImageList_Read@4 5f45230a f
 0001:00051316       _ImageList_Read@4          5f452316 f
 0001:0005131c       __imp_load__ImageList_Write@8 5f45231c f
 0001:00051328       _ImageList_Write@8         5f452328 f
 0001:0005132e       __imp_load__PropertySheetA@4 5f45232e f
 0001:0005133a       __imp_load__DestroyPropertySheetPage@4 5f45233a f
 0001:00051346       __imp_load__CreatePropertySheetPageA@4 5f452346 f
 0001:00051352       __imp_load__ImageList_DrawIndirect@4 5f452352 f
 0001:0005135e       __imp_load__ImageList_Duplicate@4 5f45235e f
 0001:0005136a       __imp_load__DragFinish@4   5f45236a f
 0001:00051376       __imp_load__DragQueryFileA@16 5f452376 f
 0001:00051382       __imp_load__GetSaveFileNameA@4 5f452382 f
 0001:0005138e       _GetSaveFileNameA@4        5f45238e f
 0001:00051394       __imp_load__GetOpenFileNameA@4 5f452394 f
 0001:000513a0       _GetOpenFileNameA@4        5f4523a0 f
 0001:000513a6       __imp_load__PageSetupDlgA@4 5f4523a6 f
 0001:000513b2       _PageSetupDlgA@4           5f4523b2 f
 0001:000513b8       __imp_load__ChooseColorA@4 5f4523b8 f
 0001:000513c4       _ChooseColorA@4            5f4523c4 f
 0001:000513ca       __imp_load__ChooseFontA@4  5f4523ca f
 0001:000513d6       _ChooseFontA@4             5f4523d6 f
 0001:000513dc       __imp_load__ReplaceTextA@4 5f4523dc f
 0001:000513e8       _ReplaceTextA@4            5f4523e8 f
 0001:000513ee       __imp_load__FindTextA@4    5f4523ee f
 0001:000513fa       _FindTextA@4               5f4523fa f
 0001:00051400       __imp_load__CommDlgExtendedError@0 5f452400 f
 0001:0005140c       _CommDlgExtendedError@0    5f45240c f
 0001:00051412       __imp_load__ClosePrinter@4 5f452412 f
 0001:00051419       __tailMerge_WINSPOOL       5f452419 f
 0001:00051427       _ClosePrinter@4            5f452427 f
 0001:0005142d       __imp_load__DocumentPropertiesA@24 5f45242d f
 0001:00051436       _DocumentPropertiesA@24    5f452436 f
 0001:0005143c       __imp_load__OpenPrinterA@12 5f45243c f
 0001:00051445       _OpenPrinterA@12           5f452445 f
 0001:0005144b       __imp_load__InternetCrackUrlA@16 5f45244b f
 0001:00051452       __tailMerge_WININET        5f452452 f
 0001:00051460       __imp_load__InternetCanonicalizeUrlA@16 5f452460 f
 0001:00051469       __imp_load__InternetQueryOptionA@16 5f452469 f
 0001:00051472       __imp_load__InternetOpenA@20 5f452472 f
 0001:0005147b       __imp_load__InternetCloseHandle@4 5f45247b f
 0001:00051484       __imp_load__InternetOpenUrlA@24 5f452484 f
 0001:0005148d       __imp_load__InternetSetOptionExA@20 5f45248d f
 0001:00051496       __imp_load__InternetSetStatusCallback@8 5f452496 f
 0001:0005149f       __imp_load__InternetSetCookieA@12 5f45249f f
 0001:000514a8       __imp_load__InternetGetCookieA@16 5f4524a8 f
 0001:000514b1       __imp_load__InternetSetFilePointer@20 5f4524b1 f
 0001:000514ba       __imp_load__InternetWriteFile@16 5f4524ba f
 0001:000514c3       __imp_load__InternetReadFile@16 5f4524c3 f
 0001:000514cc       __imp_load__InternetQueryDataAvailable@16 5f4524cc f
 0001:000514d8       __imp_load__InternetConnectA@32 5f4524d8 f
 0001:000514e4       __imp_load__FtpDeleteFileA@8 5f4524e4 f
 0001:000514f0       __imp_load__FtpRenameFileA@12 5f4524f0 f
 0001:000514fc       __imp_load__FtpCreateDirectoryA@8 5f4524fc f
 0001:00051508       __imp_load__FtpRemoveDirectoryA@8 5f452508 f
 0001:00051514       __imp_load__FtpSetCurrentDirectoryA@8 5f452514 f
 0001:00051520       __imp_load__FtpGetCurrentDirectoryA@12 5f452520 f
 0001:0005152c       __imp_load__FtpOpenFileA@20 5f45252c f
 0001:00051538       __imp_load__FtpPutFileA@20 5f452538 f
 0001:00051544       __imp_load__FtpGetFileA@28 5f452544 f
 0001:00051550       __imp_load__GopherCreateLocatorA@28 5f452550 f
 0001:0005155c       __imp_load__GopherGetAttributeA@32 5f45255c f
 0001:00051568       __imp_load__GopherOpenFileA@20 5f452568 f
 0001:00051574       __imp_load__HttpOpenRequestA@32 5f452574 f
 0001:00051580       __imp_load__InternetErrorDlg@20 5f452580 f
 0001:0005158c       __imp_load__HttpAddRequestHeadersA@16 5f45258c f
 0001:00051598       __imp_load__HttpSendRequestA@20 5f452598 f
 0001:000515a4       __imp_load__HttpEndRequestA@16 5f4525a4 f
 0001:000515b0       __imp_load__HttpSendRequestExA@20 5f4525b0 f
 0001:000515bc       __imp_load__HttpQueryInfoA@20 5f4525bc f
 0001:000515c8       __imp_load__FtpFindFirstFileA@20 5f4525c8 f
 0001:000515d4       __imp_load__InternetFindNextFileA@8 5f4525d4 f
 0001:000515e0       __imp_load__GopherFindFirstFileA@24 5f4525e0 f
 0001:000515ec       __imp_load__InternetGetLastResponseInfoA@12 5f4525ec f
 0001:000515f8       __imp_load__WSACleanup@0   5f4525f8 f
 0001:000515ff       __tailMerge_WSOCK32        5f4525ff f
 0001:0005160d       _WSACleanup@0              5f45260d f
 0001:00051613       __imp_load__WSAStartup@8   5f452613 f
 0001:0005161c       _WSAStartup@8              5f45261c f
 0001:00051622       __imp_load__WSASetLastError@4 5f452622 f
 0001:0005162b       _WSASetLastError@4         5f45262b f
 0001:00051631       __imp_load__WSAGetLastError@0 5f452631 f
 0001:0005163a       _WSAGetLastError@0         5f45263a f
 0001:00051640       __imp_load__inet_ntoa@4    5f452640 f
 0001:00051649       _inet_ntoa@4               5f452649 f
 0001:0005164f       __imp_load__ntohs@4        5f45264f f
 0001:00051658       _ntohs@4                   5f452658 f
 0001:0005165e       __imp_load__getpeername@12 5f45265e f
 0001:00051667       _getpeername@12            5f452667 f
 0001:0005166d       __imp_load__getsockname@12 5f45266d f
 0001:00051676       _getsockname@12            5f452676 f
 0001:0005167c       __imp_load__accept@12      5f45267c f
 0001:00051688       _accept@12                 5f452688 f
 0001:0005168e       __imp_load__inet_addr@4    5f45268e f
 0001:0005169a       _inet_addr@4               5f45269a f
 0001:000516a0       __imp_load__bind@12        5f4526a0 f
 0001:000516ac       _bind@12                   5f4526ac f
 0001:000516b2       __imp_load__htons@4        5f4526b2 f
 0001:000516be       _htons@4                   5f4526be f
 0001:000516c4       __imp_load__htonl@4        5f4526c4 f
 0001:000516d0       _htonl@4                   5f4526d0 f
 0001:000516d6       __imp_load__closesocket@4  5f4526d6 f
 0001:000516e2       _closesocket@4             5f4526e2 f
 0001:000516e8       __imp_load__gethostbyname@4 5f4526e8 f
 0001:000516f4       _gethostbyname@4           5f4526f4 f
 0001:000516fa       __imp_load__recv@16        5f4526fa f
 0001:00051706       _recv@16                   5f452706 f
 0001:0005170c       __imp_load__send@16        5f45270c f
 0001:00051718       _send@16                   5f452718 f
 0001:0005171e       __imp_load__WSAAsyncSelect@16 5f45271e f
 0001:0005172a       _WSAAsyncSelect@16         5f45272a f
 0001:00051730       __imp_load__ioctlsocket@12 5f452730 f
 0001:0005173c       _ioctlsocket@12            5f45273c f
 0001:00051742       __imp_load__socket@12      5f452742 f
 0001:0005174e       _socket@12                 5f45274e f
 0001:00051754       __imp_load__recvfrom@24    5f452754 f
 0001:00051760       _recvfrom@24               5f452760 f
 0001:00051766       __imp_load__sendto@24      5f452766 f
 0001:00051772       _sendto@24                 5f452772 f
 0001:00051778       __imp_load__connect@12     5f452778 f
 0001:00051784       _connect@12                5f452784 f
 0001:0005178a       __imp_load__OleUIInsertObjectA@4 5f45278a f
 0001:00051791       __tailMerge_oledlg         5f452791 f
 0001:0005179f       _OleUIInsertObjectA@4      5f45279f f
 0001:000517a5       __imp_load__OleUIConvertA@4 5f4527a5 f
 0001:000517ae       _OleUIConvertA@4           5f4527ae f
 0001:000517b4       __imp_load__OleUIChangeIconA@4 5f4527b4 f
 0001:000517bd       _OleUIChangeIconA@4        5f4527bd f
 0001:000517c3       __imp_load__OleUIEditLinksA@4 5f4527c3 f
 0001:000517cc       _OleUIEditLinksA@4         5f4527cc f
 0001:000517d2       __imp_load__OleUIUpdateLinksA@16 5f4527d2 f
 0001:000517db       _OleUIUpdateLinksA@16      5f4527db f
 0001:000517e1       __imp_load__OleUIPasteSpecialA@4 5f4527e1 f
 0001:000517ea       _OleUIPasteSpecialA@4      5f4527ea f
 0001:000517f0       __imp_load__OleUIBusyA@4   5f4527f0 f
 0001:000517f9       _OleUIBusyA@4              5f4527f9 f
 0001:000517ff       __imp_load__OleUIObjectPropertiesA@4 5f4527ff f
 0001:00051808       _OleUIObjectPropertiesA@4  5f452808 f
 0001:0005180e       __imp_load__OleUIChangeSourceA@4 5f45280e f
 0001:0005181a       _OleUIChangeSourceA@4      5f45281a f
 0001:00051820       __imp_load__OleUIAddVerbMenuA@36 5f452820 f
 0001:0005182c       _OleUIAddVerbMenuA@36      5f45282c f
 0001:00051832       __imp_load__CreateURLMoniker@12 5f452832 f
 0001:00051839       __tailMerge_urlmon         5f452839 f
 0001:00051847       _CreateURLMoniker@12       5f452847 f
 0001:0005184d       __imp_load__CreateAsyncBindCtx@16 5f45284d f
 0001:00051856       _CreateAsyncBindCtx@16     5f452856 f
 0001:0005185c       __imp_load__RegisterBindStatusCallback@16 5f45285c f
 0001:00051865       _RegisterBindStatusCallback@16 5f452865 f
 0001:0005186b       __imp_load__IsAsyncMoniker@4 5f45286b f
 0001:00051874       _IsAsyncMoniker@4          5f452874 f
 0001:0005187a       __imp_load__SQLError@32    5f45287a f
 0001:00051881       __tailMerge_ODBC32         5f452881 f
 0001:0005188f       _SQLError@32               5f45288f f
 0001:00051895       __imp_load__SQLCancel@4    5f452895 f
 0001:0005189e       _SQLCancel@4               5f45289e f
 0001:000518a4       __imp_load__SQLFreeStmt@8  5f4528a4 f
 0001:000518ad       _SQLFreeStmt@8             5f4528ad f
 0001:000518b3       __imp_load__SQLMoreResults@4 5f4528b3 f
 0001:000518bc       _SQLMoreResults@4          5f4528bc f
 0001:000518c2       __imp_load__SQLFetch@4     5f4528c2 f
 0001:000518cb       _SQLFetch@4                5f4528cb f
 0001:000518d1       __imp_load__SQLNumResultCols@8 5f4528d1 f
 0001:000518da       _SQLNumResultCols@8        5f4528da f
 0001:000518e0       __imp_load__SQLExecDirect@12 5f4528e0 f
 0001:000518e9       _SQLExecDirect@12          5f4528e9 f
 0001:000518ef       __imp_load__SQLAllocStmt@8 5f4528ef f
 0001:000518f8       _SQLAllocStmt@8            5f4528f8 f
 0001:000518fe       __imp_load__SQLFreeConnect@4 5f4528fe f
 0001:0005190a       _SQLFreeConnect@4          5f45290a f
 0001:00051910       __imp_load__SQLDisconnect@4 5f452910 f
 0001:0005191c       _SQLDisconnect@4           5f45291c f
 0001:00051922       __imp_load__SQLFreeEnv@4   5f452922 f
 0001:0005192e       _SQLFreeEnv@4              5f45292e f
 0001:00051934       __imp_load__SQLSetStmtOption@12 5f452934 f
 0001:00051940       _SQLSetStmtOption@12       5f452940 f
 0001:00051946       __imp_load__SQLGetInfo@20  5f452946 f
 0001:00051952       _SQLGetInfo@20             5f452952 f
 0001:00051958       __imp_load__SQLSetConnectOption@12 5f452958 f
 0001:00051964       _SQLSetConnectOption@12    5f452964 f
 0001:0005196a       __imp_load__SQLTransact@12 5f45296a f
 0001:00051976       _SQLTransact@12            5f452976 f
 0001:0005197c       __imp_load__SQLAllocConnect@8 5f45297c f
 0001:00051988       _SQLAllocConnect@8         5f452988 f
 0001:0005198e       __imp_load__SQLAllocEnv@4  5f45298e f
 0001:0005199a       _SQLAllocEnv@4             5f45299a f
 0001:000519a0       __imp_load__SQLDriverConnect@32 5f4529a0 f
 0001:000519ac       _SQLDriverConnect@32       5f4529ac f
 0001:000519b2       __imp_load__SQLGetData@24  5f4529b2 f
 0001:000519be       _SQLGetData@24             5f4529be f
 0001:000519c4       __imp_load__SQLSetPos@16   5f4529c4 f
 0001:000519d0       _SQLSetPos@16              5f4529d0 f
 0001:000519d6       __imp_load__SQLExecute@4   5f4529d6 f
 0001:000519e2       _SQLExecute@4              5f4529e2 f
 0001:000519e8       __imp_load__SQLGetStmtOption@12 5f4529e8 f
 0001:000519f4       _SQLGetStmtOption@12       5f4529f4 f
 0001:000519fa       __imp_load__SQLPrepare@12  5f4529fa f
 0001:00051a06       _SQLPrepare@12             5f452a06 f
 0001:00051a0c       __imp_load__SQLGetFunctions@12 5f452a0c f
 0001:00051a18       _SQLGetFunctions@12        5f452a18 f
 0001:00051a1e       __imp_load__SQLDescribeCol@36 5f452a1e f
 0001:00051a2a       _SQLDescribeCol@36         5f452a2a f
 0001:00051a30       __imp_load__SQLExtendedFetch@20 5f452a30 f
 0001:00051a3c       _SQLExtendedFetch@20       5f452a3c f
 0001:00051a42       __imp_load__SQLGetCursorName@16 5f452a42 f
 0001:00051a4e       _SQLGetCursorName@16       5f452a4e f
 0001:00051a54       __imp_load__SQLRowCount@8  5f452a54 f
 0001:00051a60       _SQLRowCount@8             5f452a60 f
 0001:00051a66       __imp_load__SQLPutData@12  5f452a66 f
 0001:00051a72       _SQLPutData@12             5f452a72 f
 0001:00051a78       __imp_load__SQLParamData@8 5f452a78 f
 0001:00051a84       _SQLParamData@8            5f452a84 f
 0001:00051a8a       __imp_load__SQLBindCol@24  5f452a8a f
 0001:00051a96       _SQLBindCol@24             5f452a96 f
 0001:00051a9c       __imp_load__SQLBindParameter@40 5f452a9c f
 0001:00051aa8       _SQLBindParameter@40       5f452aa8 f
 0001:00051aae       _strcmp                    5f452aae f
 0001:00051ab4       _strcpy                    5f452ab4 f
 0001:00051c25       ?InitString@CSimpleException@@QAEXXZ 5f452c25 f
 0001:00051c4e       ?GetErrorMessage@CSimpleException@@UAEHPADIPAI@Z 5f452c4e f
 0001:00051c91       ?AfxThrowMemoryException@@YGXXZ 5f452c91 f
 0001:00051caa       ?AfxThrowNotSupportedException@@YGXXZ 5f452caa f
 0001:00051cc3       ?AfxIsValidString@@YGHPBGH@Z 5f452cc3 f
 0001:00051cef       ?AfxIsValidString@@YGHPBDH@Z 5f452cef f
 0001:00051d10       ?AfxIsValidAddress@@YGHPBXIH@Z 5f452d10 f
 0001:00051d49       ?AfxAbort@@YGXXZ           5f452d49 f
 0001:00051d54       ??0CString@@QAE@DH@Z       5f452d54 f
 0001:00051d8c       ??0CString@@QAE@PBDH@Z     5f452d8c f
 0001:00051dc2       ??0CString@@QAE@PBGH@Z     5f452dc2 f
 0001:00051e0f       ??4CString@@QAEABV0@D@Z    5f452e0f f
 0001:00051e24       ??H@YG?AVCString@@ABV0@D@Z 5f452e24 f
 0001:00051e86       ??H@YG?AVCString@@DABV0@@Z 5f452e86 f
 0001:00051ee8       ?Delete@CString@@QAEHHH@Z  5f452ee8 f
 0001:00051f40       ?Insert@CString@@QAEHHD@Z  5f452f40 f
 0001:00051fc4       ?Insert@CString@@QAEHHPBD@Z 5f452fc4 f
 0001:00052080       ?Replace@CString@@QAEHDD@Z 5f453080 f
 0001:000520be       ?Replace@CString@@QAEHPBD0@Z 5f4530be f
 0001:0005222f       ?Remove@CString@@QAEHD@Z   5f45322f f
 0001:00052282       ?Mid@CString@@QBE?AV1@H@Z  5f453282 f
 0001:000522a5       ?Mid@CString@@QBE?AV1@HH@Z 5f4532a5 f
 0001:00052346       ?Right@CString@@QBE?AV1@H@Z 5f453346 f
 0001:000523cb       ?Left@CString@@QBE?AV1@H@Z 5f4533cb f
 0001:0005244b       ?SpanIncluding@CString@@QBE?AV1@PBD@Z 5f45344b f
 0001:00052477       ?SpanExcluding@CString@@QBE?AV1@PBD@Z 5f453477 f
 0001:000524a3       ?ReverseFind@CString@@QBEHD@Z 5f4534a3 f
 0001:000524c6       ?Find@CString@@QBEHPBD@Z   5f4534c6 f
 0001:000524d4       ?Find@CString@@QBEHPBDH@Z  5f4534d4 f
 0001:0005269a       ?Format@CString@@QAAXIZZ   5f45369a f
 0001:000526e3       ?FormatMessageA@CString@@QAAXPBDZZ 5f4536e3 f
 0001:0005272f       ?FormatMessageA@CString@@QAAXIZZ 5f45372f f
 0001:000527b2       ?TrimRight@CString@@QAEXPBD@Z 5f4537b2 f
 0001:00052807       ?TrimRight@CString@@QAEXD@Z 5f453807 f
 0001:0005284a       ?TrimRight@CString@@QAEXXZ 5f45384a f
 0001:00052898       ?TrimLeft@CString@@QAEXPBD@Z 5f453898 f
 0001:00052903       ?TrimLeft@CString@@QAEXD@Z 5f453903 f
 0001:00052948       ?TrimLeft@CString@@QAEXXZ  5f453948 f
 0001:0005299c       ?ConstructElements@@YGXPAVCString@@H@Z 5f45399c f
 0001:000529cb       ?DestructElements@@YGXPAVCString@@H@Z 5f4539cb f
 0001:000529ef       ?CopyElements@@YGXPAVCString@@PBV1@H@Z 5f4539ef f
 0001:00052a1b       ?HashKey@@YGIPBG@Z         5f453a1b f
 0001:00052a38       ?HashKey@@YGIPBD@Z         5f453a38 f
 0001:00052a52       ??0CTime@@QAE@GGH@Z        5f453a52 f
 0001:00052acc       ?GetTickCount@CTime@@SG?AV1@XZ 5f453acc f
 0001:00052ae0       ?GetGmtTm@CTime@@QBEPAUtm@@PAU2@@Z 5f453ae0 f
 0001:00052b0e       ?GetLocalTm@CTime@@QBEPAUtm@@PAU2@@Z 5f453b0e f
 0001:00052b3f       ?GetAsSystemTime@CTime@@QBEHAAU_SYSTEMTIME@@@Z 5f453b3f f
 0001:00052b96       ??6@YGAAVCArchive@@AAV0@VCTime@@@Z 5f453b96 f
 0001:00052ba6       ??5@YGAAVCArchive@@AAV0@AAVCTimeSpan@@@Z 5f453ba6 f
 0001:00052bb6       ?Format@CTimeSpan@@QBE?AVCString@@PBD@Z 5f453bb6 f
 0001:00052cf7       ?Format@CTimeSpan@@QBE?AVCString@@I@Z 5f453cf7 f
 0001:00052d53       ?Format@CTime@@QBE?AVCString@@PBD@Z 5f453d53 f
 0001:00052da6       ?FormatGmt@CTime@@QBE?AVCString@@PBD@Z 5f453da6 f
 0001:00052df9       ?Format@CTime@@QBE?AVCString@@I@Z 5f453df9 f
 0001:00052e55       ?FormatGmt@CTime@@QBE?AVCString@@I@Z 5f453e55 f
 0001:00052eb1       ??0CTime@@QAE@ABV0@@Z      5f453eb1 f
 0001:00052ebe       ?LoadBitmaps@CBitmapButton@@QAEHPBD000@Z 5f453ebe f
 0001:00052f8e       ?SizeToContent@CBitmapButton@@QAEXXZ 5f453f8e f
 0001:00052fbe       ?AutoLoad@CBitmapButton@@QAEHIPAVCWnd@@@Z 5f453fbe f
 0001:000530cd       ?DrawItem@CBitmapButton@@MAEXPAUtagDRAWITEMSTRUCT@@@Z 5f4540cd f
 0001:000531d2       ?_GetBaseMessageMap@CCommonDialog@@KGPBUAFX_MSGMAP@@XZ 5f4541d2 f
 0001:000531d8       ?_AfxCommDlgProc@@YGIPAUHWND__@@IIJ@Z 5f4541d8 f
 0001:00053378       ?OnOK@CCommonDialog@@MAEXXZ 5f454378 f
 0001:0005338f       ?OnCancel@CCommonDialog@@MAEXXZ 5f45438f f
 0001:00053394       ?OnHelpInfo@CCommonDialog@@IAEHPAUtagHELPINFO@@@Z 5f454394 f
 0001:0005339c       ??0CFileDialog@@QAE@HPBD0K0PAVCWnd@@@Z 5f45439c f
 0001:000534ef       ??_ECFileDialog@@UAEPAXI@Z 5f4544ef f
 0001:000534ef       ??_GCFileDialog@@UAEPAXI@Z 5f4544ef f
 0001:0005350b       ?DoModal@CFileDialog@@UAEHXZ 5f45450b f
 0001:000535e9       ?GetPathName@CFileDialog@@QBE?AVCString@@XZ 5f4545e9 f
 0001:000536f7       ?GetFileName@CFileDialog@@QBE?AVCString@@XZ 5f4546f7 f
 0001:000537b2       ?GetFileExt@CFileDialog@@QBE?AVCString@@XZ 5f4547b2 f
 0001:000538c1       ?GetFileTitle@CFileDialog@@QBE?AVCString@@XZ 5f4548c1 f
 0001:0005392d       ?GetNextPathName@CFileDialog@@QBE?AVCString@@AAPAU__POSITION@@@Z 5f45492d f
 0001:00053b3c       ?SetTemplate@CFileDialog@@QAEXPBD0@Z 5f454b3c f
 0001:00053b62       ?GetFolderPath@CFileDialog@@QBE?AVCString@@XZ 5f454b62 f
 0001:00053bfb       ?SetControlText@CFileDialog@@QAEXHPBD@Z 5f454bfb f
 0001:00053c23       ?HideControl@CFileDialog@@QAEXH@Z 5f454c23 f
 0001:00053c49       ?SetDefExt@CFileDialog@@QAEXPBD@Z 5f454c49 f
 0001:00053c6f       ?OnShareViolation@CFileDialog@@MAEIPBD@Z 5f454c6f f
 0001:00053c74       ?OnLBSelChangedNotify@CFileDialog@@MAEXIII@Z 5f454c74 f
 0001:00053c77       ?OnInitDone@CFileDialog@@MAEXXZ 5f454c77 f
 0001:00053c90       ?OnTypeChange@CFileDialog@@MAEXXZ 5f454c90 f
 0001:00053c91       ?OnNotify@CFileDialog@@MAEHIJPAJ@Z 5f454c91 f
 0001:00053d6b       ??0CPageSetupDialog@@QAE@KPAVCWnd@@@Z 5f454d6b f
 0001:00053dee       ?DoModal@CPageSetupDialog@@UAEHXZ 5f454dee f
 0001:00053e1a       ?GetDevMode@CPageSetupDialog@@QBEPAU_devicemodeA@@XZ 5f454e1a f
 0001:00053e2a       ?GetDriverName@CPageSetupDialog@@QBE?AVCString@@XZ 5f454e2a f
 0001:00053e65       ?GetDeviceName@CPageSetupDialog@@QBE?AVCString@@XZ 5f454e65 f
 0001:00053ea1       ?GetPortName@CPageSetupDialog@@QBE?AVCString@@XZ 5f454ea1 f
 0001:00053edd       ?CreatePrinterDC@CPageSetupDialog@@QAEPAUHDC__@@XZ 5f454edd f
 0001:00053ee9       ?GetMargins@CPageSetupDialog@@QBEXPAUtagRECT@@0@Z 5f454ee9 f
 0001:00053f25       ?OnDrawPage@CPageSetupDialog@@UAEIPAVCDC@@IPAUtagRECT@@@Z 5f454f25 f
 0001:00053f2a       ?PaintHookProc@CPageSetupDialog@@KGIPAUHWND__@@IIJ@Z 5f454f2a f
 0001:00053fa7       ?_GetBaseMessageMap@CPrintDialog@@KGPBUAFX_MSGMAP@@XZ 5f454fa7 f
 0001:00053fad       ?GetMessageMap@CPrintDialog@@MBEPBUAFX_MSGMAP@@XZ 5f454fad f
 0001:00053fdf       ??0CPrintDialog@@IAE@AAUtagPDA@@@Z 5f454fdf f
 0001:00053ffe       ?AttachOnSetup@CPrintDialog@@MAEPAV1@XZ 5f454ffe f
 0001:0005404e       ?OnPrintSetup@CPrintDialog@@IAEXXZ 5f45504e f
 0001:0005407e       ?DoModal@CPrintDialog@@UAEHXZ 5f45507e f
 0001:000540ac       ?CreatePrinterDC@CPrintDialog@@QAEPAUHDC__@@XZ 5f4550ac f
 0001:000540cb       ?GetCopies@CPrintDialog@@QBEHXZ 5f4550cb f
 0001:000540e3       ?GetDevMode@CPrintDialog@@QBEPAU_devicemodeA@@XZ 5f4550e3 f
 0001:000540f6       ?GetDriverName@CPrintDialog@@QBE?AVCString@@XZ 5f4550f6 f
 0001:00054134       ?GetDeviceName@CPrintDialog@@QBE?AVCString@@XZ 5f455134 f
 0001:00054173       ?GetPortName@CPrintDialog@@QBE?AVCString@@XZ 5f455173 f
 0001:000541c0       ??0_AFX_COLOR_STATE@@QAE@XZ 5f4551c0 f
 0001:000541da       ??_G_AFX_COLOR_STATE@@UAEPAXI@Z 5f4551da f
 0001:000541da       ??_E_AFX_COLOR_STATE@@UAEPAXI@Z 5f4551da f
 0001:000541f5       ??1_AFX_COLOR_STATE@@UAE@XZ 5f4551f5 f
 0001:000541f6       ?GetMessageMap@CColorDialog@@MBEPBUAFX_MSGMAP@@XZ 5f4551f6 f
 0001:000541fc       ??0CColorDialog@@QAE@KKPAVCWnd@@@Z 5f4551fc f
 0001:0005428c       ??_GCColorDialog@@UAEPAXI@Z 5f45528c f
 0001:0005428c       ??_ECColorDialog@@UAEPAXI@Z 5f45528c f
 0001:000542a8       ?DoModal@CColorDialog@@UAEHXZ 5f4552a8 f
 0001:000542d4       ?OnColorOK@CColorDialog@@MAEHXZ 5f4552d4 f
 0001:000542d7       ?SetCurrentColor@CColorDialog@@QAEXK@Z 5f4552d7 f
 0001:000542ef       ?GetSavedCustomColors@CColorDialog@@SGPAKXZ 5f4552ef f
 0001:00054302       ?OnCtlColor@CColorDialog@@IAEPAUHBRUSH__@@PAVCDC@@PAVCWnd@@I@Z 5f455302 f
 0001:0005430a       ??0CFontDialog@@QAE@PAUtagLOGFONTA@@KPAVCDC@@PAVCWnd@@@Z 5f45530a f
 0001:000543e9       ??0CFontDialog@@QAE@ABU_charformat@@KPAVCDC@@PAVCWnd@@@Z 5f4553e9 f
 0001:000544c0       ?DoModal@CFontDialog@@UAEHXZ 5f4554c0 f
 0001:00054508       ?GetCurrentFont@CFontDialog@@QAEXPAUtagLOGFONTA@@@Z 5f455508 f
 0001:00054539       ?FillInLogFont@CFontDialog@@QAEKABU_charformat@@@Z 5f455539 f
 0001:000546c7       ?GetCharFormat@CFontDialog@@QBEXAAU_charformat@@@Z 5f4556c7 f
 0001:000547a5       ??0CFindReplaceDialog@@QAE@XZ 5f4557a5 f
 0001:00054828       ??1CFindReplaceDialog@@UAE@XZ 5f455828 f
 0001:0005482d       ?PostNcDestroy@CFindReplaceDialog@@MAEXXZ 5f45582d f
 0001:00054839       ?Create@CFindReplaceDialog@@QAEHHPBD0KPAVCWnd@@@Z 5f455839 f
 0001:000548ed       ?GetNotifier@CFindReplaceDialog@@SGPAV1@J@Z 5f4558ed f
 0001:000548f7       ??0CArchiveStream@@QAE@PAVCArchive@@@Z 5f4558f7 f
 0001:00054909       ?AddRef@CArchiveStream@@UAGKXZ 5f455909 f
 0001:0005490f       ?Release@CArchiveStream@@UAGKXZ 5f45590f f
 0001:00054914       ?QueryInterface@CArchiveStream@@UAGJABU_GUID@@PAPAX@Z 5f455914 f
 0001:00054958       ?Read@CArchiveStream@@UAGJPAXKPAK@Z 5f455958 f
 0001:000549b0       ?Write@CArchiveStream@@UAGJPBXKPAK@Z 5f4559b0 f
 0001:00054a09       ?Seek@CArchiveStream@@UAGJT_LARGE_INTEGER@@KPAT_ULARGE_INTEGER@@@Z 5f455a09 f
 0001:00054a89       ?Commit@CArchiveStream@@UAGJK@Z 5f455a89 f
 0001:00054a91       ?Revert@CArchiveStream@@UAGJXZ 5f455a91 f
 0001:00054a99       ?UnlockRegion@CArchiveStream@@UAGJT_ULARGE_INTEGER@@0K@Z 5f455a99 f
 0001:00054aa1       ?Stat@CArchiveStream@@UAGJPAUtagSTATSTG@@K@Z 5f455aa1 f
 0001:00054aa9       ?GetMessageMap@CToolTipCtrl@@MBEPBUAFX_MSGMAP@@XZ 5f455aa9 f
 0001:00054aaf       ??0CToolTipCtrl@@QAE@XZ    5f455aaf f
 0001:00054ae8       ?Create@CToolTipCtrl@@QAEHPAVCWnd@@K@Z 5f455ae8 f
 0001:00054b3d       ??1CToolTipCtrl@@UAE@XZ    5f455b3d f
 0001:00054b84       ?DestroyToolTipCtrl@CToolTipCtrl@@QAEHXZ 5f455b84 f
 0001:00054bb2       ?OnAddTool@CToolTipCtrl@@IAEJIJ@Z 5f455bb2 f
 0001:00054c26       ?OnDisableModal@CToolTipCtrl@@IAEJIJ@Z 5f455c26 f
 0001:00054c3d       ?OnEnable@CToolTipCtrl@@IAEXH@Z 5f455c3d f
 0001:00054c54       ?OnWindowFromPoint@CToolTipCtrl@@IAEJIJ@Z 5f455c54 f
 0001:00054ccc       ?AddTool@CToolTipCtrl@@QAEHPAVCWnd@@PBDPBUtagRECT@@I@Z 5f455ccc f
 0001:00054d1a       ?AddTool@CToolTipCtrl@@QAEHPAVCWnd@@IPBUtagRECT@@I@Z 5f455d1a f
 0001:00054d7e       ?DelTool@CToolTipCtrl@@QAEXPAVCWnd@@I@Z 5f455d7e f
 0001:00054daf       ?GetText@CToolTipCtrl@@QBEXAAVCString@@PAVCWnd@@I@Z 5f455daf f
 0001:00054dfa       ?GetToolInfo@CToolTipCtrl@@QBEHAAVCToolInfo@@PAVCWnd@@I@Z 5f455dfa f
 0001:00054e2c       ?HitTest@CToolTipCtrl@@QBEHPAVCWnd@@VCPoint@@PAUtagTOOLINFOA@@@Z 5f455e2c f
 0001:00054e9f       ?SetToolRect@CToolTipCtrl@@QAEXPAVCWnd@@IPBUtagRECT@@@Z 5f455e9f f
 0001:00054ee1       ?UpdateTipText@CToolTipCtrl@@QAEXPBDPAVCWnd@@I@Z 5f455ee1 f
 0001:00054f18       ?UpdateTipText@CToolTipCtrl@@QAEXIPAVCWnd@@I@Z 5f455f18 f
 0001:00054f68       ?FillInToolInfo@CToolTipCtrl@@QBEXAAUtagTOOLINFOA@@PAVCWnd@@I@Z 5f455f68 f
 0001:00055019       ?EnableTrackingToolTips@CWnd@@QAEHH@Z 5f456019 f
 0001:0005502a       ?_AfxRelayToolTipMessage@@YGXPAVCToolTipCtrl@@PAUtagMSG@@@Z 5f45602a f
 0001:00055454       ??1CDragListBox@@UAE@XZ    5f456454 f
 0001:0005548c       ?PreSubclassWindow@CDragListBox@@UAEXXZ 5f45648c f
 0001:00055496       ?BeginDrag@CDragListBox@@UAEHVCPoint@@@Z 5f456496 f
 0001:000554c2       ?CancelDrag@CDragListBox@@UAEXVCPoint@@@Z 5f4564c2 f
 0001:000554cf       ?Dragging@CDragListBox@@UAEIVCPoint@@@Z 5f4564cf f
 0001:00055519       ?Dropped@CDragListBox@@UAEXHVCPoint@@@Z 5f456519 f
 0001:000555f8       ?DrawInsert@CDragListBox@@UAEXH@Z 5f4565f8 f
 0001:0005561d       ?DrawSingle@CDragListBox@@QAEXH@Z 5f45661d f
 0001:00055714       ?OnChildNotify@CDragListBox@@MAEHIIJPAJ@Z 5f456714 f
 0001:000557cd       ?GetMessageMap@CToolBarCtrl@@MBEPBUAFX_MSGMAP@@XZ 5f4567cd f
 0001:000557d3       ?Create@CToolBarCtrl@@QAEHKABUtagRECT@@PAVCWnd@@I@Z 5f4567d3 f
 0001:00055804       ??1CToolBarCtrl@@UAE@XZ    5f456804 f
 0001:0005583c       ?AddBitmap@CToolBarCtrl@@QAEHHPAVCBitmap@@@Z 5f45683c f
 0001:00055870       ?AddBitmap@CToolBarCtrl@@QAEHHI@Z 5f456870 f
 0001:000558a5       ?SaveState@CToolBarCtrl@@QAEXPAUHKEY__@@PBD1@Z 5f4568a5 f
 0001:000558d5       ?RestoreState@CToolBarCtrl@@QAEXPAUHKEY__@@PBD1@Z 5f4568d5 f
 0001:00055905       ?AddString@CToolBarCtrl@@QAEHI@Z 5f456905 f
 0001:00055932       ?OnCreate@CToolBarCtrl@@IAEHPAUtagCREATESTRUCTA@@@Z 5f456932 f
 0001:0005595b       ?GetDropTarget@CToolBarCtrl@@QBEJPAPAUIDropTarget@@@Z 5f45695b f
 0001:00055975       ?Create@CStatusBarCtrl@@QAEHKABUtagRECT@@PAVCWnd@@I@Z 5f456975 f
 0001:000559a6       ??1CStatusBarCtrl@@UAE@XZ  5f4569a6 f
 0001:000559de       ?GetText@CStatusBarCtrl@@QBEHPBDHPAH@Z 5f4569de f
 0001:00055a09       ?GetText@CStatusBarCtrl@@QBE?AVCString@@HPAH@Z 5f456a09 f
 0001:00055aa8       ?GetTextLength@CStatusBarCtrl@@QBEHHPAH@Z 5f456aa8 f
 0001:00055ad1       ?GetTipText@CStatusBarCtrl@@QBE?AVCString@@H@Z 5f456ad1 f
 0001:00055b13       ?GetBorders@CStatusBarCtrl@@QBEHAAH00@Z 5f456b13 f
 0001:00055b4d       ?GetMessageMap@CListCtrl@@MBEPBUAFX_MSGMAP@@XZ 5f456b4d f
 0001:00055b53       ?Create@CListCtrl@@QAEHKABUtagRECT@@PAVCWnd@@I@Z 5f456b53 f
 0001:00055b84       ??1CListCtrl@@UAE@XZ       5f456b84 f
 0001:00055bbc       ?GetItemRect@CListCtrl@@QBEHHPAUtagRECT@@I@Z 5f456bbc f
 0001:00055bdc       ?SetItemCountEx@CListCtrl@@QAEHHK@Z 5f456bdc f
 0001:00055bf5       ?SetIconSpacing@CListCtrl@@QAE?AVCSize@@V2@@Z 5f456bf5 f
 0001:00055c2c       ?GetSubItemRect@CListCtrl@@QAEHHHHAAVCRect@@@Z 5f456c2c f
 0001:00055c6e       ?InsertColumn@CListCtrl@@QAEHHPBDHHH@Z 5f456c6e f
 0001:00055cc1       ?InsertItem@CListCtrl@@QAEHIHPBDIIHJ@Z 5f456cc1 f
 0001:00055d0d       ?HitTest@CListCtrl@@QBEHVCPoint@@PAI@Z 5f456d0d f
 0001:00055d43       ?SetItem@CListCtrl@@QAEHHHIPBDHIIJ@Z 5f456d43 f
 0001:00055d91       ?SetItemState@CListCtrl@@QAEHHII@Z 5f456d91 f
 0001:00055dbc       ?SetItemText@CListCtrl@@QAEHHHPBD@Z 5f456dbc f
 0001:00055de7       ?GetItemText@CListCtrl@@QBE?AVCString@@HH@Z 5f456de7 f
 0001:00055e8c       ?GetItemText@CListCtrl@@QBEHHHPADH@Z 5f456e8c f
 0001:00055ed1       ?GetItemData@CListCtrl@@QBEKH@Z 5f456ed1 f
 0001:00055f13       ?RemoveImageList@CListCtrl@@IAEXH@Z 5f456f13 f
 0001:00055f4c       ?OnNcDestroy@CListCtrl@@IAEXXZ 5f456f4c f
 0001:00055f71       ?CreateDragImage@CListCtrl@@QAEPAVCImageList@@HPAUtagPOINT@@@Z 5f456f71 f
 0001:00055fd6       ?GetMessageMap@CTreeCtrl@@MBEPBUAFX_MSGMAP@@XZ 5f456fd6 f
 0001:00055fdc       ?Create@CTreeCtrl@@QAEHKABUtagRECT@@PAVCWnd@@I@Z 5f456fdc f
 0001:0005600d       ??1CTreeCtrl@@UAE@XZ       5f45700d f
 0001:00056045       ?GetItemRect@CTreeCtrl@@QBEHPAU_TREEITEM@@PAUtagRECT@@H@Z 5f457045 f
 0001:00056065       ?GetItemText@CTreeCtrl@@QBE?AVCString@@PAU_TREEITEM@@@Z 5f457065 f
 0001:00056105       ?GetItemImage@CTreeCtrl@@QBEHPAU_TREEITEM@@AAH1@Z 5f457105 f
 0001:00056144       ?GetItemState@CTreeCtrl@@QBEIPAU_TREEITEM@@I@Z 5f457144 f
 0001:0005617c       ?GetItemData@CTreeCtrl@@QBEKPAU_TREEITEM@@@Z 5f45717c f
 0001:000561aa       ?ItemHasChildren@CTreeCtrl@@QBEHPAU_TREEITEM@@@Z 5f4571aa f
 0001:000561d8       ?SetItem@CTreeCtrl@@QAEHPAU_TREEITEM@@IPBDHHIIJ@Z 5f4571d8 f
 0001:00056226       ?InsertItem@CTreeCtrl@@QAEPAU_TREEITEM@@IPBDHHIIJPAU2@1@Z 5f457226 f
 0001:0005627a       ?HitTest@CTreeCtrl@@QBEPAU_TREEITEM@@VCPoint@@PAI@Z 5f45727a f
 0001:000562b0       ?RemoveImageList@CTreeCtrl@@IAEXH@Z 5f4572b0 f
 0001:000562e9       ?OnDestroy@CTreeCtrl@@QAEXXZ 5f4572e9 f
 0001:00056305       ?CreateDragImage@CTreeCtrl@@QAEPAVCImageList@@PAU_TREEITEM@@@Z 5f457305 f
 0001:00056368       ?GetCheck@CTreeCtrl@@QBEHPAU_TREEITEM@@@Z 5f457368 f
 0001:000563a1       ?SetCheck@CTreeCtrl@@QAEHPAU_TREEITEM@@H@Z 5f4573a1 f
 0001:000563e2       ?Create@CSpinButtonCtrl@@QAEHKABUtagRECT@@PAVCWnd@@I@Z 5f4573e2 f
 0001:00056410       ??1CSpinButtonCtrl@@UAE@XZ 5f457410 f
 0001:00056448       ?GetRange@CSpinButtonCtrl@@QBEXAAH0@Z 5f457448 f
 0001:00056474       ?Create@CSliderCtrl@@QAEHKABUtagRECT@@PAVCWnd@@I@Z 5f457474 f
 0001:000564a5       ??1CSliderCtrl@@UAE@XZ     5f4574a5 f
 0001:000564dd       ?GetRange@CSliderCtrl@@QBEXAAH0@Z 5f4574dd f
 0001:00056514       ?SetRange@CSliderCtrl@@QAEXHHH@Z 5f457514 f
 0001:00056547       ?GetSelection@CSliderCtrl@@QBEXAAH0@Z 5f457547 f
 0001:0005657e       ?SetSelection@CSliderCtrl@@QAEXHH@Z 5f45757e f
 0001:000565ad       ?Create@CProgressCtrl@@QAEHKABUtagRECT@@PAVCWnd@@I@Z 5f4575ad f
 0001:000565de       ??1CProgressCtrl@@UAE@XZ   5f4575de f
 0001:00056616       ?Create@CHeaderCtrl@@QAEHKABUtagRECT@@PAVCWnd@@I@Z 5f457616 f
 0001:00056647       ??1CHeaderCtrl@@UAE@XZ     5f457647 f
 0001:0005667f       ?OnChildNotify@CHeaderCtrl@@MAEHIIJPAJ@Z 5f45767f f
 0001:000566ad       ?Create@CHotKeyCtrl@@QAEHKABUtagRECT@@PAVCWnd@@I@Z 5f4576ad f
 0001:000566de       ??1CHotKeyCtrl@@UAE@XZ     5f4576de f
 0001:00056716       ?GetHotKey@CHotKeyCtrl@@QBEXAAG0@Z 5f457716 f
 0001:00056745       ?_GetBaseMessageMap@CTabCtrl@@KGPBUAFX_MSGMAP@@XZ 5f457745 f
 0001:0005674b       ?GetMessageMap@CTabCtrl@@MBEPBUAFX_MSGMAP@@XZ 5f45774b f
 0001:00056751       ?Create@CTabCtrl@@QAEHKABUtagRECT@@PAVCWnd@@I@Z 5f457751 f
 0001:00056782       ??1CTabCtrl@@UAE@XZ        5f457782 f
 0001:000567ba       ?DrawItem@CTabCtrl@@UAEXPAUtagDRAWITEMSTRUCT@@@Z 5f4577ba f
 0001:000567bd       ?OnDestroy@CTabCtrl@@IAEXXZ 5f4577bd f
 0001:000567f7       ?GetItemState@CTabCtrl@@QBEKHK@Z 5f4577f7 f
 0001:00056826       ?SetItemState@CTabCtrl@@QAEHHKK@Z 5f457826 f
 0001:00056858       ?InsertItem@CTabCtrl@@QAEHIHPBDHJ@Z 5f457858 f
 0001:0005688f       ?InsertItem@CTabCtrl@@QAEHIHPBDHJKK@Z 5f45788f f
 0001:000568d2       ?Create@CAnimateCtrl@@QAEHKABUtagRECT@@PAVCWnd@@I@Z 5f4578d2 f
 0001:00056903       ??1CAnimateCtrl@@UAE@XZ    5f457903 f
 0001:0005693b       ??1CRichEditCtrl@@UAE@XZ   5f45793b f
 0001:00056973       ?afxMapHIMAGELIST@@YGPAVCHandleMap@@H@Z 5f457973 f
 0001:000569e5       ??0CImageList@@QAE@XZ      5f4579e5 f
 0001:000569f2       ?Detach@CImageList@@QAEPAU_IMAGELIST@@XZ 5f4579f2 f
 0001:00056a1b       ?DeleteImageList@CImageList@@QAEHXZ 5f457a1b f
 0001:00056a31       ?FromHandle@CImageList@@SGPAV1@PAU_IMAGELIST@@@Z 5f457a31 f
 0001:00056a46       ?FromHandlePermanent@CImageList@@SGPAV1@PAU_IMAGELIST@@@Z 5f457a46 f
 0001:00056a61       ?Create@CImageList@@QAEHHHIHH@Z 5f457a61 f
 0001:00056a89       ?Create@CImageList@@QAEHPBDHHK@Z 5f457a89 f
 0001:00056abd       ?Create@CImageList@@QAEHAAV1@H0HHH@Z 5f457abd f
 0001:00056aee       ?Attach@CImageList@@QAEHPAU_IMAGELIST@@@Z 5f457aee f
 0001:00056b1a       ?Read@CImageList@@QAEHPAVCArchive@@@Z 5f457b1a f
 0001:00056b47       ?Write@CImageList@@QAEHPAVCArchive@@@Z 5f457b47 f
 0001:00056b6b       ?AfxGetRichEditState@@YAPAV_AFX_RICHEDIT_STATE@@XZ 5f457b6b f
 0001:00056b7b       ?Create@CRichEditCtrl@@QAEHKABUtagRECT@@PAVCWnd@@I@Z 5f457b7b f
 0001:00056bab       ?GetLine@CRichEditCtrl@@QBEHHPAD@Z 5f457bab f
 0001:00056bc4       ?LineIndex@CRichEditCtrl@@QBEHH@Z 5f457bc4 f
 0001:00056bdb       ?LineLength@CRichEditCtrl@@QBEHH@Z 5f457bdb f
 0001:00056bf2       ?LineScroll@CRichEditCtrl@@QAEXHH@Z 5f457bf2 f
 0001:00056c0b       ?CanPaste@CRichEditCtrl@@QBEHI@Z 5f457c0b f
 0001:00056c4a       ?PasteSpecial@CRichEditCtrl@@QAEXIKPAUHMETAFILE__@@@Z 5f457c4a f
 0001:00056c74       ?GetLine@CRichEditCtrl@@QBEHHPADH@Z 5f457c74 f
 0001:00056c94       ?GetSelText@CRichEditCtrl@@QBE?AVCString@@XZ 5f457c94 f
 0001:00056cfa       ?SetWordCharFormat@CRichEditCtrl@@QAEHAAU_charformat@@@Z 5f457cfa f
 0001:00056d18       ?GetDefaultCharFormat@CRichEditCtrl@@QBEKAAU_charformat@@@Z 5f457d18 f
 0001:00056d36       ?Create@CComboBoxEx@@QAEHKABUtagRECT@@PAVCWnd@@I@Z 5f457d36 f
 0001:00056d67       ?DeleteItem@CComboBoxEx@@QAEHH@Z 5f457d67 f
 0001:00056d7e       ?GetItem@CComboBoxEx@@QAEHPAUtagCOMBOBOXEXITEMA@@@Z 5f457d7e f
 0001:00056d95       ?InsertItem@CComboBoxEx@@QAEHPBUtagCOMBOBOXEXITEMA@@@Z 5f457d95 f
 0001:00056dac       ?SetItem@CComboBoxEx@@QAEHPBUtagCOMBOBOXEXITEMA@@@Z 5f457dac f
 0001:00056dc3       ??1CComboBoxEx@@UAE@XZ     5f457dc3 f
 0001:00056dfb       ?Create@CReBarCtrl@@QAEHKABUtagRECT@@PAVCWnd@@I@Z 5f457dfb f
 0001:00056e2c       ?GetImageList@CReBarCtrl@@QBEPAVCImageList@@XZ 5f457e2c f
 0001:00056e66       ?SetImageList@CReBarCtrl@@QAEHPAVCImageList@@@Z 5f457e66 f
 0001:00056ea4       ?GetColorScheme@CReBarCtrl@@QAEHPAUtagCOLORSCHEME@@@Z 5f457ea4 f
 0001:00056ec2       ?SetColorScheme@CReBarCtrl@@QAEXPBUtagCOLORSCHEME@@@Z 5f457ec2 f
 0001:00056ee0       ?SetColumnOrderArray@CListCtrl@@QAEHHPAH@Z 5f457ee0 f
 0001:00056ef9       ?GetColumnOrderArray@CListCtrl@@QAEHPAHH@Z 5f457ef9 f
 0001:00056f40       ?SetBkImage@CListCtrl@@QAEHPAUHBITMAP__@@HHH@Z 5f457f40 f
 0001:00056f84       ?SetBkImage@CListCtrl@@QAEHPADHHH@Z 5f457f84 f
 0001:00056fc8       ?GetCheck@CListCtrl@@QBEHH@Z 5f457fc8 f
 0001:00056fe6       ?SetCheck@CListCtrl@@QAEHHH@Z 5f457fe6 f
 0001:0005701b       ?GetHeaderCtrl@CListCtrl@@QAEPAVCHeaderCtrl@@XZ 5f45801b f
 0001:00057039       ?SetOrderArray@CHeaderCtrl@@QAEHHPAH@Z 5f458039 f
 0001:00057052       ?GetOrderArray@CHeaderCtrl@@QAEHPAHH@Z 5f458052 f
 0001:00057091       ?GetRange@CProgressCtrl@@QAEXAAH0@Z 5f458091 f
 0001:000570be       ?DrawIndirect@CImageList@@QAEHPAU_IMAGELISTDRAWPARAMS@@@Z 5f4580be f
 0001:000570d8       ?DrawIndirect@CImageList@@QAEHPAVCDC@@HUtagPOINT@@UtagSIZE@@1IKKK@Z 5f4580d8 f
 0001:00057136       ?Create@CImageList@@QAEHPAV1@@Z 5f458136 f
 0001:00057152       ??0CByteArray@@QAE@XZ      5f458152 f
 0001:00057169       ?SetSize@CByteArray@@QAEXHH@Z 5f458169 f
 0001:0005725d       ?Append@CByteArray@@QAEHABV1@@Z 5f45825d f
 0001:00057292       ?Copy@CByteArray@@QAEXABV1@@Z 5f458292 f
 0001:000572ba       ?FreeExtra@CByteArray@@QAEXXZ 5f4582ba f
 0001:000572f8       ?SetAtGrow@CByteArray@@QAEXHE@Z 5f4582f8 f
 0001:0005731f       ?InsertAt@CByteArray@@QAEXHEH@Z 5f45831f f
 0001:00057391       ?RemoveAt@CByteArray@@QAEXHH@Z 5f458391 f
 0001:000573c2       ?InsertAt@CByteArray@@QAEXHPAV1@@Z 5f4583c2 f
 0001:00057404       ?Serialize@CByteArray@@UAEXAAVCArchive@@@Z 5f458404 f
 0001:00057451       ?Append@CDWordArray@@QAEHABV1@@Z 5f458451 f
 0001:0005748b       ?FreeExtra@CDWordArray@@QAEXXZ 5f45848b f
 0001:000574d0       ?Serialize@CDWordArray@@UAEXAAVCArchive@@@Z 5f4584d0 f
 0001:00057525       ?Copy@CPtrArray@@QAEXABV1@@Z 5f458525 f
 0001:00057551       ??0CObArray@@QAE@XZ        5f458551 f
 0001:00057568       ??1CObArray@@UAE@XZ        5f458568 f
 0001:0005759f       ?InsertAt@CObArray@@QAEXHPAV1@@Z 5f45859f f
 0001:000575e6       ?Serialize@CObArray@@UAEXAAVCArchive@@@Z 5f4585e6 f
 0001:00057656       ??0CStringArray@@QAE@XZ    5f458656 f
 0001:0005768f       ?SetSize@CStringArray@@QAEXHH@Z 5f45868f f
 0001:000577d6       ?Append@CStringArray@@QAEHABV1@@Z 5f4587d6 f
 0001:00057836       ?Copy@CStringArray@@QAEXABV1@@Z 5f458836 f
 0001:0005785e       ?SetAtGrow@CStringArray@@QAEXHPBD@Z 5f45885e f
 0001:0005788a       ?SetAtGrow@CStringArray@@QAEXHABVCString@@@Z 5f45888a f
 0001:000578b6       ?InsertEmpty@CStringArray@@IAEXHH@Z 5f4588b6 f
 0001:0005792d       ?InsertAt@CStringArray@@QAEXHPBDH@Z 5f45892d f
 0001:00057994       ?InsertAt@CStringArray@@QAEXHABVCString@@H@Z 5f458994 f
 0001:000579cd       ?RemoveAt@CStringArray@@QAEXHH@Z 5f4589cd f
 0001:00057a2a       ?InsertAt@CStringArray@@QAEXHPAV1@@Z 5f458a2a f
 0001:00057ac3       ?Serialize@CStringArray@@UAEXAAVCArchive@@@Z 5f458ac3 f
 0001:00057b2c       ??0CUIntArray@@QAE@XZ      5f458b2c f
 0001:00057b5a       ??0CWordArray@@QAE@XZ      5f458b5a f
 0001:00057b71       ??1CWordArray@@UAE@XZ      5f458b71 f
 0001:00057ba8       ?SetSize@CWordArray@@QAEXHH@Z 5f458ba8 f
 0001:00057cb8       ?Append@CWordArray@@QAEHABV1@@Z 5f458cb8 f
 0001:00057cf1       ?Copy@CWordArray@@QAEXABV1@@Z 5f458cf1 f
 0001:00057d1c       ?FreeExtra@CWordArray@@QAEXXZ 5f458d1c f
 0001:00057d5f       ?SetAtGrow@CWordArray@@QAEXHG@Z 5f458d5f f
 0001:00057d88       ?InsertAt@CWordArray@@QAEXHGH@Z 5f458d88 f
 0001:00057e15       ?RemoveAt@CWordArray@@QAEXHH@Z 5f458e15 f
 0001:00057e4c       ?InsertAt@CWordArray@@QAEXHPAV1@@Z 5f458e4c f
 0001:00057e94       ?Serialize@CWordArray@@UAEXAAVCArchive@@@Z 5f458e94 f
 0001:00057ee7       ?AddHead@CObList@@QAEPAU__POSITION@@PAVCObject@@@Z 5f458ee7 f
 0001:00057f11       ?AddTail@CObList@@QAEXPAV1@@Z 5f458f11 f
 0001:00057f35       ?RemoveHead@CObList@@QAEPAVCObject@@XZ 5f458f35 f
 0001:00057f59       ?RemoveTail@CObList@@QAEPAVCObject@@XZ 5f458f59 f
 0001:00057f7d       ?FindIndex@CObList@@QBEPAU__POSITION@@H@Z 5f458f7d f
 0001:00057faa       ?Serialize@CObList@@UAEXAAVCArchive@@@Z 5f458faa f
 0001:00058006       ?AddHead@CPtrList@@QAEXPAV1@@Z 5f459006 f
 0001:0005802b       ?InsertBefore@CPtrList@@QAEPAU__POSITION@@PAU2@PAX@Z 5f45902b f
 0001:0005806a       ?InsertAfter@CPtrList@@QAEPAU__POSITION@@PAU2@PAX@Z 5f45906a f
 0001:000580a7       ??0CStringList@@QAE@H@Z    5f4590a7 f
 0001:000580ca       ?RemoveAll@CStringList@@QAEXXZ 5f4590ca f
 0001:000580ff       ??1CStringList@@UAE@XZ     5f4590ff f
 0001:00058132       ?NewNode@CStringList@@IAEPAUCNode@1@PAU21@0@Z 5f459132 f
 0001:0005819e       ?FreeNode@CStringList@@IAEXPAUCNode@1@@Z 5f45919e f
 0001:000581c7       ?AddHead@CStringList@@QAEPAU__POSITION@@PBD@Z 5f4591c7 f
 0001:0005820a       ?AddHead@CStringList@@QAEPAU__POSITION@@ABVCString@@@Z 5f45920a f
 0001:0005823f       ?AddTail@CStringList@@QAEPAU__POSITION@@PBD@Z 5f45923f f
 0001:00058282       ?AddTail@CStringList@@QAEPAU__POSITION@@ABVCString@@@Z 5f459282 f
 0001:000582b6       ?AddHead@CStringList@@QAEXPAV1@@Z 5f4592b6 f
 0001:000582dc       ?AddTail@CStringList@@QAEXPAV1@@Z 5f4592dc f
 0001:00058301       ?RemoveHead@CStringList@@QAE?AVCString@@XZ 5f459301 f
 0001:00058375       ?RemoveTail@CStringList@@QAE?AVCString@@XZ 5f459375 f
 0001:000583e9       ?InsertBefore@CStringList@@QAEPAU__POSITION@@PAU2@PBD@Z 5f4593e9 f
 0001:0005842f       ?InsertBefore@CStringList@@QAEPAU__POSITION@@PAU2@ABVCString@@@Z 5f45942f f
 0001:00058479       ?InsertAfter@CStringList@@QAEPAU__POSITION@@PAU2@PBD@Z 5f459479 f
 0001:000584bf       ?InsertAfter@CStringList@@QAEPAU__POSITION@@PAU2@ABVCString@@@Z 5f4594bf f
 0001:00058507       ?RemoveAt@CStringList@@QAEXPAU__POSITION@@@Z 5f459507 f
 0001:0005853e       ?Find@CStringList@@QBEPAU__POSITION@@PBDPAU2@@Z 5f45953e f
 0001:00058574       ?Serialize@CStringList@@UAEXAAVCArchive@@@Z 5f459574 f
 0001:00058600       ?Lookup@CMapPtrToPtr@@QBEHPAXAAPAX@Z 5f459600 f
 0001:00058622       ??0CMapPtrToWord@@QAE@H@Z  5f459622 f
 0001:00058649       ??1CMapPtrToWord@@UAE@XZ   5f459649 f
 0001:0005867c       ?NewAssoc@CMapPtrToWord@@IAEPAUCAssoc@1@XZ 5f45967c f
 0001:000586ca       ?Lookup@CMapPtrToWord@@QBEHPAXAAG@Z 5f4596ca f
 0001:000586ee       ??ACMapPtrToWord@@QAEAAGPAX@Z 5f4596ee f
 0001:0005873e       ?GetNextAssoc@CMapPtrToWord@@QBEXAAPAU__POSITION@@AAPAXAAG@Z 5f45973e f
 0001:000587b2       ??0CMapStringToOb@@QAE@H@Z 5f4597b2 f
 0001:000587d9       ??1CMapStringToOb@@UAE@XZ  5f4597d9 f
 0001:00058818       ?GetNextAssoc@CMapStringToOb@@QBEXAAPAU__POSITION@@AAVCString@@AAPAVCObject@@@Z 5f459818 f
 0001:00058883       ?Serialize@CMapStringToOb@@UAEXAAVCArchive@@@Z 5f459883 f
 0001:00058945       ?LookupKey@CMapStringToPtr@@QBEHPBDAAPBD@Z 5f459945 f
 0001:00058977       ??0CMapStringToString@@QAE@H@Z 5f459977 f
 0001:0005899e       ?RemoveAll@CMapStringToString@@QAEXXZ 5f45999e f
 0001:000589f8       ??1CMapStringToString@@UAE@XZ 5f4599f8 f
 0001:00058a2b       ?NewAssoc@CMapStringToString@@IAEPAUCAssoc@1@XZ 5f459a2b f
 0001:00058a9e       ?FreeAssoc@CMapStringToString@@IAEXPAUCAssoc@1@@Z 5f459a9e f
 0001:00058acf       ?Lookup@CMapStringToString@@QBEHPBDAAVCString@@@Z 5f459acf f
 0001:00058af5       ??ACMapStringToString@@QAEAAVCString@@PBD@Z 5f459af5 f
 0001:00058b57       ?RemoveKey@CMapStringToString@@QAEHPBD@Z 5f459b57 f
 0001:00058bbc       ?GetNextAssoc@CMapStringToString@@QBEXAAPAU__POSITION@@AAVCString@@1@Z 5f459bbc f
 0001:00058c2b       ?Serialize@CMapStringToString@@UAEXAAVCArchive@@@Z 5f459c2b f
 0001:00058d08       ??0CMapWordToOb@@QAE@H@Z   5f459d08 f
 0001:00058d2f       ??1CMapWordToOb@@UAE@XZ    5f459d2f f
 0001:00058d62       ?GetAssocAt@CMapWordToOb@@IBEPAUCAssoc@1@GAAI@Z 5f459d62 f
 0001:00058d97       ??ACMapWordToOb@@QAEAAPAVCObject@@G@Z 5f459d97 f
 0001:00058de8       ?Serialize@CMapWordToOb@@UAEXAAVCArchive@@@Z 5f459de8 f
 0001:00058e81       ??0CMapWordToPtr@@QAE@H@Z  5f459e81 f
 0001:00058eb8       ??1CMapWordToPtr@@UAE@XZ   5f459eb8 f
 0001:00058eeb       ?NewAssoc@CMapWordToPtr@@IAEPAUCAssoc@1@XZ 5f459eeb f
 0001:00058f39       ?Lookup@CMapWordToPtr@@QBEHGAAPAX@Z 5f459f39 f
 0001:00058f5b       ?RemoveKey@CMapWordToPtr@@QAEHG@Z 5f459f5b f
 0001:00058fa0       ?GetNextAssoc@CMapWordToPtr@@QBEXAAPAU__POSITION@@AAGAAPAX@Z 5f459fa0 f
 0001:00059015       ?GetRuntimeClass@CObject@@UBEPAUCRuntimeClass@@XZ 5f45a015 f
 0001:0005902c       ?IsSerializable@CObject@@QBEHXZ 5f45a02c f
 0001:0005903f       ??0AFX_CLASSINIT_COMPAT@@QAE@PAUCRuntimeClass@@@Z 5f45a03f f
 0001:0005906b       ?Delete@CException@@QAEXXZ 5f45a06b f
 0001:0005907d       ?GetErrorMessage@CException@@UAEHPADIPAI@Z 5f45a07d f
 0001:0005909e       ?ReportError@CException@@UAEHII@Z 5f45a09e f
 0001:000590fd       ?AfxThrowLastCleanup@@YGXXZ 5f45a0fd f
 0001:0005910d       ?AfxNewHandler@@YAHI@Z     5f45a10d f
 0001:00059115       ?AfxGetNewHandler@@YGP6AHI@ZXZ 5f45a115 f
 0001:00059148       ?IsDirSep@@YAHD@Z          5f45a148 f
 0001:0005915d       ??0CFile@@QAE@H@Z          5f45a15d f
 0001:000591a1       ??0CFile@@QAE@PBDI@Z       5f45a1a1 f
 0001:0005924b       ?Duplicate@CFile@@UBEPAV1@XZ 5f45a24b f
 0001:0005936f       ?Write@CFile@@UAEXPBXI@Z   5f45a36f f
 0001:000593e0       ?Flush@CFile@@UAEXXZ       5f45a3e0 f
 0001:00059414       ?Abort@CFile@@UAEXXZ       5f45a414 f
 0001:00059434       ?LockRange@CFile@@UAEXKK@Z 5f45a434 f
 0001:0005945d       ?UnlockRange@CFile@@UAEXKK@Z 5f45a45d f
 0001:00059486       ?SetLength@CFile@@UAEXK@Z  5f45a486 f
 0001:000594b2       ?Rename@CFile@@SGXPBD0@Z   5f45a4b2 f
 0001:000594d4       ?Remove@CFile@@SGXPBD@Z    5f45a4d4 f
 0001:000594f2       ?CreateInstance@AFX_COM@@QAEJABU_GUID@@PAUIUnknown@@0PAPAX@Z 5f45a4f2 f
 0001:00059534       ?GetClassObject@AFX_COM@@QAEJABU_GUID@@0PAPAX@Z 5f45a534 f
 0001:000595d1       ?AfxStringFromCLSID@@YG?AVCString@@ABU_GUID@@@Z 5f45a5d1 f
 0001:00059640       ?AfxGetInProcServer@@YGHPBDAAVCString@@@Z 5f45a640 f
 0001:0005992a       ??0CStdioFile@@QAE@XZ      5f45a92a f
 0001:00059940       ??0CStdioFile@@QAE@PAU_iobuf@@@Z 5f45a940 f
 0001:0005996a       ??0CStdioFile@@QAE@PBDI@Z  5f45a96a f
 0001:00059a07       ?Open@CStdioFile@@UAEHPBDIPAVCFileException@@@Z 5f45aa07 f
 0001:00059af9       ?Read@CStdioFile@@UAEIPAXI@Z 5f45aaf9 f
 0001:00059b69       ?Write@CStdioFile@@UAEXPBXI@Z 5f45ab69 f
 0001:00059b9e       ?WriteString@CStdioFile@@UAEXPBD@Z 5f45ab9e f
 0001:00059bcb       ?ReadString@CStdioFile@@UAEPADPADI@Z 5f45abcb f
 0001:00059c13       ?ReadString@CStdioFile@@UAEHAAVCString@@@Z 5f45ac13 f
 0001:00059cd9       ?Seek@CStdioFile@@UAEJJI@Z 5f45acd9 f
 0001:00059d14       ?GetPosition@CStdioFile@@UBEKXZ 5f45ad14 f
 0001:00059d40       ?Flush@CStdioFile@@UAEXXZ  5f45ad40 f
 0001:00059d6a       ?Close@CStdioFile@@UAEXXZ  5f45ad6a f
 0001:00059da2       ?Abort@CStdioFile@@UAEXXZ  5f45ada2 f
 0001:00059dc8       ?Duplicate@CStdioFile@@UBEPAVCFile@@XZ 5f45adc8 f
 0001:00059dd0       ?UnlockRange@CStdioFile@@UAEXKK@Z 5f45add0 f
 0001:00059dd8       ?ThrowOsError@CFileException@@SGXJPBD@Z 5f45add8 f
 0001:00059df9       ?ThrowErrno@CFileException@@SGXHPBD@Z 5f45adf9 f
 0001:00059e1e       ?GetErrorMessage@CFileException@@UAEHPADIPAI@Z 5f45ae1e f
 0001:00059ebe       ?AfxThrowFileException@@YGXHJPBD@Z 5f45aebe f
 0001:00059f2d       ?ErrnoToException@CFileException@@SGHH@Z 5f45af2d f
 0001:00059f85       ?OsErrorToException@CFileException@@SGHJ@Z 5f45af85 f
 0001:0005a200       ?GetFileName@CFile@@UBE?AVCString@@XZ 5f45b200 f
 0001:0005a291       ?GetFileTitle@CFile@@UBE?AVCString@@XZ 5f45b291 f
 0001:0005a344       ?GetStatus@CFile@@SGHPBDAAUCFileStatus@@@Z 5f45b344 f
 0001:0005a3f7       ?AfxTimeToFileTime@@YAXABVCTime@@PAU_FILETIME@@@Z 5f45b3f7 f
 0001:0005a4aa       ?SetStatus@CFile@@SGXPBDABUCFileStatus@@@Z 5f45b4aa f
 0001:0005a5d7       ?GetStatus@CMemFile@@QBEHAAUCFileStatus@@@Z 5f45b5d7 f
 0001:0005a64f       ?AllocCopy@CString@@IBEXAAV1@HHH@Z 5f45b64f f
 0001:0005a6a4       ??0CString@@QAE@PBG@Z      5f45b6a4 f
 0001:0005a703       ??4CString@@QAEABV0@PBG@Z  5f45b703 f
 0001:0005a745       ??H@YG?AVCString@@ABV0@PBD@Z 5f45b745 f
 0001:0005a7b9       ??H@YG?AVCString@@PBDABV0@@Z 5f45b7b9 f
 0001:0005a834       ??YCString@@QAEABV0@D@Z    5f45b834 f
 0001:0005a850       ?FreeExtra@CString@@QAEXXZ 5f45b850 f
 0001:0005a883       ?LockBuffer@CString@@QAEPADXZ 5f45b883 f
 0001:0005a895       ?UnlockBuffer@CString@@QAEXXZ 5f45b895 f
 0001:0005a8ca       ?FindOneOf@CString@@QBEHPBD@Z 5f45b8ca f
 0001:0005a8eb       ?MakeUpper@CString@@QAEXXZ 5f45b8eb f
 0001:0005a8fe       ?MakeLower@CString@@QAEXXZ 5f45b8fe f
 0001:0005a911       ?MakeReverse@CString@@QAEXXZ 5f45b911 f
 0001:0005a924       ?SetAt@CString@@QAEXHD@Z   5f45b924 f
 0001:0005a93d       ?CharToOemA@CString@@QAEXXZ 5f45b93d f
 0001:0005a951       ?OemToCharA@CString@@QAEXXZ 5f45b951 f
 0001:0005a965       ?_wcstombsz@@YAHPADPBGI@Z  5f45b965 f
 0001:0005a99b       ?_mbstowcsz@@YAHPAGPBDI@Z  5f45b99b f
 0001:0005a9d0       ?AfxA2WHelper@@YGPAGPAGPBDH@Z 5f45b9d0 f
 0001:0005aae0       ?GetCurrentMessage@CWnd@@KGPBUtagMSG@@XZ 5f45bae0 f
 0001:0005ac04       ?_AfxGrayBackgroundWndProc@@YGJPAUHWND__@@IIJ@Z 5f45bc04 f
 0001:0005ad52       ?CreateEx@CWnd@@QAEHKPBD0KABUtagRECT@@PAV1@IPAX@Z 5f45bd52 f
 0001:0005aee4       ?OnToolHitTest@CWnd@@UBEHVCPoint@@PAUtagTOOLINFOA@@@Z 5f45bee4 f
 0001:0005af66       ?GetDlgItemTextA@CWnd@@QBEHHAAVCString@@@Z 5f45bf66 f
 0001:0005afd6       ?SetWindowPlacement@CWnd@@QAEHPBUtagWINDOWPLACEMENT@@@Z 5f45bfd6 f
 0001:0005b012       ?OnCompareItem@CWnd@@IAEHHPAUtagCOMPAREITEMSTRUCT@@@Z 5f45c012 f
 0001:0005b03c       ?OnCharToItem@CWnd@@IAEHIPAVCListBox@@I@Z 5f45c03c f
 0001:0005b067       ?TrackPopupMenu@CMenu@@QAEHIHHPAVCWnd@@PBUtagRECT@@@Z 5f45c067 f
 0001:0005b0bb       ?_AfxFindPopupMenuFromID@@YGPAVCMenu@@PAV1@I@Z 5f45c0bb f
 0001:0005b1ef       ?WinHelpA@CWnd@@UAEXKI@Z   5f45c1ef f
 0001:0005b492       ?Enable@CTestCmdUI@@UAEXH@Z 5f45c492 f
 0001:0005b4b2       ?GetTopLevelOwner@CWnd@@QBEPAV1@XZ 5f45c4b2 f
 0001:0005b4e2       ?GetParentOwner@CWnd@@QBEPAV1@XZ 5f45c4e2 f
 0001:0005b526       ?ActivateTopParent@CWnd@@QAEXXZ 5f45c526 f
 0001:0005b567       ?GetSafeOwner@CWnd@@SGPAV1@PAV1@PAPAUHWND__@@@Z 5f45c567 f
 0001:0005b585       ?MessageBoxA@CWnd@@QAEHPBD0I@Z 5f45c585 f
 0001:0005b5c1       ?SetScrollRange@CWnd@@QAEXHHHH@Z 5f45c5c1 f
 0001:0005b5f4       ?GetScrollRange@CWnd@@QBEXHPAH0@Z 5f45c5f4 f
 0001:0005b63e       ?GetScrollInfo@CWnd@@QAEHHPAUtagSCROLLINFO@@I@Z 5f45c63e f
 0001:0005b68b       ?GetScrollLimit@CWnd@@QAEHH@Z 5f45c68b f
 0001:0005b7a4       ?HandleFloatingSysCommand@CWnd@@QAEHIJ@Z 5f45c7a4 f
 0001:0005b908       ?OnSysColorChange@CWnd@@IAEXXZ 5f45c908 f
 0001:0005b985       ?OnSettingChange@CWnd@@IAEXIPBD@Z 5f45c985 f
 0001:0005b9d8       ?OnWinIniChange@CWnd@@IAEXPBD@Z 5f45c9d8 f
 0001:0005ba24       ?OnDevModeChange@CWnd@@IAEXPAD@Z 5f45ca24 f
 0001:0005ba6f       ?OnHelpInfo@CWnd@@IAEHPAUtagHELPINFO@@@Z 5f45ca6f f
 0001:0005bad3       ?OnDisplayChange@CWnd@@IAEJIJ@Z 5f45cad3 f
 0001:0005bb1c       ?OnDragList@CWnd@@IAEJIJ@Z 5f45cb1c f
 0001:0005bb46       ?OnVScroll@CWnd@@IAEXIIPAVCScrollBar@@@Z 5f45cb46 f
 0001:0005bbfc       ?OnQuery3dControls@CWnd@@IAEJIJ@Z 5f45cbfc f
 0001:0005bf97       ?SubclassCtl3d@CWnd@@QAEHH@Z 5f45cf97 f
 0001:0005bfe1       ?SubclassDlg3d@CWnd@@QAEHK@Z 5f45cfe1 f
 0001:0005c05b       ?UnsubclassWindow@CWnd@@QAEPAUHWND__@@XZ 5f45d05b f
 0001:0005c083       ??3CTempWnd@@SAXPAX@Z      5f45d083 f
 0001:0005c0e2       ?DeleteTempMap@CWnd@@SGXXZ 5f45d0e2 f
 0001:0005c0ef       ?DeleteTempMap@CImageList@@SGXXZ 5f45d0ef f
 0001:0005c0fc       ?DeleteTempMap@CDC@@SGXXZ  5f45d0fc f
 0001:0005c109       ?DeleteTempMap@CGdiObject@@SGXXZ 5f45d109 f
 0001:0005c116       ?DeleteTempMap@CMenu@@SGXXZ 5f45d116 f
 0001:0005c20d       ?CreateIndirect@CDialog@@QAEHPAXPAVCWnd@@@Z 5f45d20d f
 0001:0005c21f       ?CreateIndirect@CDialog@@QAEHPBUDLGTEMPLATE@@PAVCWnd@@PAX@Z 5f45d21f f
 0001:0005c235       ?CreateDlg@CWnd@@IAEHPBDPAV1@@Z 5f45d235 f
 0001:0005c27e       ?CreateDlgIndirect@CWnd@@IAEHPBUDLGTEMPLATE@@PAV1@@Z 5f45d27e f
 0001:0005c3db       ?SetOccDialogInfo@CDialog@@MAEHPAU_AFX_OCC_DIALOG_INFO@@@Z 5f45d3db f
 0001:0005c3e8       ??0CDialog@@QAE@PBDPAVCWnd@@@Z 5f45d3e8 f
 0001:0005c42a       ?InitModalIndirect@CDialog@@QAEHPAXPAVCWnd@@@Z 5f45d42a f
 0001:0005c444       ?InitModalIndirect@CDialog@@QAEHPBUDLGTEMPLATE@@PAVCWnd@@PAX@Z 5f45d444 f
 0001:0005c567       ?AfxHelpEnabled@@YGHXZ     5f45d567 f
 0001:0005c5ee       ?OnCancel@CDialog@@MAEXXZ  5f45d5ee f
 0001:0005c617       ?OnCommandHelp@CDialog@@IAEJIJ@Z 5f45d617 f
 0001:0005c655       ?OnHelpHitTest@CDialog@@IAEJIJ@Z 5f45d655 f
 0001:0005c668       ?_AfxConvertDialogUnitsToPixels@@YGXPBDGHHPAUtagSIZE@@@Z 5f45d668 f
 0001:0005c76f       ?IsDialogEx@@YAHPBUDLGTEMPLATE@@@Z 5f45d76f f
 0001:0005c77f       ?HasFont@@YAHPBUDLGTEMPLATE@@@Z 5f45d77f f
 0001:0005c796       ?FontAttrSize@@YAHH@Z      5f45d796 f
 0001:0005c7a5       ??0CDialogTemplate@@QAE@PBUDLGTEMPLATE@@@Z 5f45d7a5 f
 0001:0005c7d4       ??0CDialogTemplate@@QAE@PAX@Z 5f45d7d4 f
 0001:0005c815       ?SetTemplate@CDialogTemplate@@IAEHPBUDLGTEMPLATE@@I@Z 5f45d815 f
 0001:0005c875       ?Load@CDialogTemplate@@QAEHPBD@Z 5f45d875 f
 0001:0005c8cf       ?Detach@CDialogTemplate@@QAEPAXXZ 5f45d8cf f
 0001:0005c8d5       ?HasFont@CDialogTemplate@@QBEHXZ 5f45d8d5 f
 0001:0005c928       ?GetTemplateSize@CDialogTemplate@@KAIPBUDLGTEMPLATE@@@Z 5f45d928 f
 0001:0005c9eb       ?GetFont@CDialogTemplate@@QBEHAAVCString@@AAG@Z 5f45d9eb f
 0001:0005ca19       ?SetFont@CDialogTemplate@@QAEHPBDG@Z 5f45da19 f
 0001:0005cb44       ?SetSystemFont@CDialogTemplate@@QAEHG@Z 5f45db44 f
 0001:0005cbd5       ?GetSizeInDialogUnits@CDialogTemplate@@QBEXPAUtagSIZE@@@Z 5f45dbd5 f
 0001:0005cc15       ?GetSizeInPixels@CDialogTemplate@@QBEXPAUtagSIZE@@@Z 5f45dc15 f
 0001:0005cd08       ?FromHandlePermanent@CMenu@@SGPAV1@PAUHMENU__@@@Z 5f45dd08 f
 0001:0005cd23       ?Attach@CMenu@@QAEHPAUHMENU__@@@Z 5f45dd23 f
 0001:0005cd4f       ?Detach@CMenu@@QAEPAUHMENU__@@XZ 5f45dd4f f
 0001:0005cd8f       ?OnAmbientProperty@CWnd@@UAEHPAVCOleControlSite@@JPAUtagVARIANT@@@Z 5f45dd8f f
 0001:0005cda6       ?GetControlUnknown@CWnd@@QAEPAUIUnknown@@XZ 5f45dda6 f
 0001:0005cdb2       ?CheckDlgButton@CWnd@@QAEXHI@Z 5f45ddb2 f
 0001:0005cdde       ?CheckRadioButton@CWnd@@QAEXHHH@Z 5f45ddde f
 0001:0005ce34       ?GetDlgItemInt@CWnd@@QBEIHPAHH@Z 5f45de34 f
 0001:0005ce66       ?GetDlgItemTextA@CWnd@@QBEHHPADH@Z 5f45de66 f
 0001:0005ce9b       ?SendDlgItemMessageA@CWnd@@QAEJHIIJ@Z 5f45de9b f
 0001:0005ced6       ?SetDlgItemInt@CWnd@@QAEXHIH@Z 5f45ded6 f
 0001:0005cf0b       ?SetDlgItemTextA@CWnd@@QAEXHPBD@Z 5f45df0b f
 0001:0005cf3a       ?IsDlgButtonChecked@CWnd@@QBEIH@Z 5f45df3a f
 0001:0005cf61       ?ScrollWindowEx@CWnd@@QAEHHHPBUtagRECT@@0PAVCRgn@@PAU2@I@Z 5f45df61 f
 0001:0005d034       ?GetWindowTextLengthA@CWnd@@QBEHXZ 5f45e034 f
 0001:0005d059       ?SetDlgCtrlID@CWnd@@QAEHH@Z 5f45e059 f
 0001:0005d082       ?MoveWindow@CWnd@@QAEXHHHHH@Z 5f45e082 f
 0001:0005d11e       ?InvokeHelper@CWnd@@QAAXJGGPAXPBEZZ 5f45e11e f
 0001:0005d145       ?GetProperty@CWnd@@QBEXJGPAX@Z 5f45e145 f
 0001:0005d167       ?SetProperty@CWnd@@QAAXJGZZ 5f45e167 f
 0001:0005d185       ?GetDSCCursor@CWnd@@QAEPAUIUnknown@@XZ 5f45e185 f
 0001:0005d1aa       ?BindDefaultProperty@CWnd@@QAEXJGPBDPAV1@@Z 5f45e1aa f
 0001:0005d1c8       ?BindProperty@CWnd@@QAEXJPAV1@@Z 5f45e1c8 f
 0001:0005d1eb       ?AttachControlSite@CWnd@@QAEXPAV1@@Z 5f45e1eb f
 0001:0005d207       ?AttachControlSite@COleControlContainer@@QAEXPAVCWnd@@@Z 5f45e207 f
 0001:0005d362       ?GetTypeLib@CCmdTarget@@UAEJKPAPAUITypeLib@@@Z 5f45e362 f
 0001:0005d36a       ?RestoreWaitCursor@CCmdTarget@@QAEXXZ 5f45e36a f
 0001:0005d37f       ?GetDispatchMap@CCmdTarget@@MBEPBUAFX_DISPMAP@@XZ 5f45e37f f
 0001:0005d385       ?GetEventSinkMap@CCmdTarget@@MBEPBUAFX_EVENTSINKMAP@@XZ 5f45e385 f
 0001:0005d38b       ?OnFinalRelease@CCmdTarget@@UAEXXZ 5f45e38b f
 0001:0005d3bd       ?GetConnectionMap@CCmdTarget@@MBEPBUAFX_CONNECTIONMAP@@XZ 5f45e3bd f
 0001:0005d3c3       ?GetCommandMap@CCmdTarget@@MBEPBUAFX_OLECMDMAP@@XZ 5f45e3c3 f
 0001:0005d3c9       ?GetRoutingView@CCmdTarget@@IAEPAVCView@@XZ 5f45e3c9 f
 0001:0005d3c9       ?GetRoutingView_@CCmdTarget@@KGPAVCView@@XZ 5f45e3c9 f
 0001:0005d3d5       ?GetRoutingFrame@CCmdTarget@@IAEPAVCFrameWnd@@XZ 5f45e3d5 f
 0001:0005d434       ?SetCheck@CCmdUI@@UAEXH@Z  5f45e434 f
 0001:0005d496       ?SetRadio@CCmdUI@@UAEXH@Z  5f45e496 f
 0001:0005d591       ?AfxBeginThread@@YGPAVCWinThread@@PAUCRuntimeClass@@HIKPAU_SECURITY_ATTRIBUTES@@@Z 5f45e591 f
 0001:0005d66e       ?ExitInstance@CWinThread@@UAEHXZ 5f45e66e f
 0001:0005d69d       ?DispatchThreadMessage@CWinThread@@IAEXPAUtagMSG@@@Z 5f45e69d f
 0001:0005d6a9       ?DispatchThreadMessageEx@CWinThread@@IAEHPAUtagMSG@@@Z 5f45e6a9 f
 0001:0005d737       ?ProcessWndProcException@CWinThread@@UAEJPAVCException@@PBUtagMSG@@@Z 5f45e737 f
 0001:0005d78e       ?IsHelpKey@@YGHPAUtagMSG@@@Z 5f45e78e f
 0001:0005d7d9       ?IsEnterKey@@YAHPAUtagMSG@@@Z 5f45e7d9 f
 0001:0005d7f3       ?IsButtonUp@@YAHPAUtagMSG@@@Z 5f45e7f3 f
 0001:0005d8fd       ?GetMessageMap@CWinApp@@MBEPBUAFX_MSGMAP@@XZ 5f45e8fd f
 0001:0005d90f       ?WinHelpA@CWinApp@@UAEXKI@Z 5f45e90f f
 0001:0005d946       ?ProcessWndProcException@CWinApp@@UAEJPAVCException@@PBUtagMSG@@@Z 5f45e946 f
 0001:0005d9bd       ?DevModeChange@CWinApp@@QAEXPAD@Z 5f45e9bd f
 0001:0005daff       ?Remove@CRecentFileList@@UAEXH@Z 5f45eaff f
 0001:0005db54       ?_GetBaseClass@COleControlModule@@KGPAUCRuntimeClass@@XZ 5f45eb54 f
 0001:0005db5a       ?GetRuntimeClass@COleControlModule@@UBEPAUCRuntimeClass@@XZ 5f45eb5a f
 0001:0005db60       ?InitInstance@COleControlModule@@UAEHXZ 5f45eb60 f
 0001:0005db69       ?ExitInstance@COleControlModule@@UAEHXZ 5f45eb69 f
 0001:0005db7a       ??6@YGAAVCArchive@@AAV0@ABVCString@@@Z 5f45eb7a f
 0001:0005dbf3       ?_AfxReadStringLength@@YGIAAVCArchive@@@Z 5f45ebf3 f
 0001:0005dc4a       ??5@YGAAVCArchive@@AAV0@AAVCString@@@Z 5f45ec4a f
 0001:0005dce3       ?SerializeElements@@YGXAAVCArchive@@PAVCString@@H@Z 5f45ece3 f
 0001:0005dd31       ?Load@CRuntimeClass@@SGPAU1@AAVCArchive@@PAI@Z 5f45ed31 f
 0001:0005ddfa       ?Store@CRuntimeClass@@QBEXAAVCArchive@@@Z 5f45edfa f
 0001:0005e040       ?WriteCount@CArchive@@QAEXK@Z 5f45f040 f
 0001:0005e06e       ?ReadCount@CArchive@@QAEKXZ 5f45f06e f
 0001:0005e09e       ?WriteString@CArchive@@QAEXPBD@Z 5f45f09e f
 0001:0005e0bb       ?ReadString@CArchive@@QAEPADPADI@Z 5f45f0bb f
 0001:0005e16d       ?ReadString@CArchive@@QAEHAAVCString@@@Z 5f45f16d f
 0001:0005e208       ?CheckCount@CArchive@@QAEXXZ 5f45f208 f
 0001:0005e21c       ?WriteObject@CArchive@@QAEXPBVCObject@@@Z 5f45f21c f
 0001:0005e29b       ?ReadObject@CArchive@@QAEPAVCObject@@PBUCRuntimeClass@@@Z 5f45f29b f
 0001:0005e34a       ?GetObjectSchema@CArchive@@QAEIXZ 5f45f34a f
 0001:0005e352       ?MapObject@CArchive@@QAEXPBVCObject@@@Z 5f45f352 f
 0001:0005e44a       ?WriteClass@CArchive@@QAEXPBUCRuntimeClass@@@Z 5f45f44a f
 0001:0005e4db       ?ReadClass@CArchive@@QAEPAUCRuntimeClass@@PBU2@PAIPAK@Z 5f45f4db f
 0001:0005e6b6       ?SerializeClass@CArchive@@QAEXPBUCRuntimeClass@@@Z 5f45f6b6 f
 0001:0005e6da       ?GetErrorMessage@CArchiveException@@UAEHPADIPAI@Z 5f45f6da f
 0001:0005e77a       ?AfxThrowArchiveException@@YGXHPBD@Z 5f45f77a f
 0001:0005e807       ?SetOutputDC@CDC@@UAEXPAUHDC__@@@Z 5f45f807 f
 0001:0005e811       ?ReleaseOutputDC@CDC@@UAEXXZ 5f45f811 f
 0001:0005e816       ?StartDocA@CDC@@QAEHPBD@Z  5f45f816 f
 0001:0005e874       ?SelectStockObject@CDC@@UAEPAVCGdiObject@@H@Z 5f45f874 f
 0001:0005e8c7       ?SelectObject@CDC@@QAEHPAVCRgn@@@Z 5f45f8c7 f
 0001:0005e90c       ?SelectPalette@CDC@@QAEPAVCPalette@@PAV2@H@Z 5f45f90c f
 0001:0005e946       ?SetPolyFillMode@CDC@@QAEHH@Z 5f45f946 f
 0001:0005e974       ?SetROP2@CDC@@QAEHH@Z      5f45f974 f
 0001:0005e9a2       ?SetStretchBltMode@CDC@@QAEHH@Z 5f45f9a2 f
 0001:0005e9fa       ?OffsetViewportOrg@CDC@@UAE?AVCPoint@@HH@Z 5f45f9fa f
 0001:0005ea58       ?ScaleViewportExt@CDC@@UAE?AVCSize@@HHHH@Z 5f45fa58 f
 0001:0005eab0       ?SetWindowOrg@CDC@@QAE?AVCPoint@@HH@Z 5f45fab0 f
 0001:0005eafc       ?OffsetWindowOrg@CDC@@QAE?AVCPoint@@HH@Z 5f45fafc f
 0001:0005eb5a       ?ScaleWindowExt@CDC@@UAE?AVCSize@@HHHH@Z 5f45fb5a f
 0001:0005ebb2       ?GetClipBox@CDC@@UBEHPAUtagRECT@@@Z 5f45fbb2 f
 0001:0005ebc2       ?SelectClipRgn@CDC@@QAEHPAVCRgn@@@Z 5f45fbc2 f
 0001:0005ec02       ?ExcludeClipRect@CDC@@QAEHHHHH@Z 5f45fc02 f
 0001:0005ec57       ?IntersectClipRect@CDC@@QAEHHHHH@Z 5f45fc57 f
 0001:0005ecac       ?OffsetClipRgn@CDC@@QAEHUtagSIZE@@@Z 5f45fcac f
 0001:0005ed0a       ?SetTextAlign@CDC@@QAEII@Z 5f45fd0a f
 0001:0005ed3f       ?SetTextJustification@CDC@@QAEHHH@Z 5f45fd3f f
 0001:0005ed75       ?SetTextCharacterExtra@CDC@@QAEHH@Z 5f45fd75 f
 0001:0005eda6       ?SetMapperFlags@CDC@@QAEKK@Z 5f45fda6 f
 0001:0005edd5       ?GetLayout@CDC@@QBEKXZ     5f45fdd5 f
 0001:0005ee0b       ?SetLayout@CDC@@QAEKK@Z    5f45fe0b f
 0001:0005ee6b       ?ArcTo@CDC@@QAEHHHHHHHHH@Z 5f45fe6b f
 0001:0005eec3       ?SetArcDirection@CDC@@QAEHH@Z 5f45fec3 f
 0001:0005eef1       ?PolyDraw@CDC@@QAEHPBUtagPOINT@@PBEH@Z 5f45fef1 f
 0001:0005ef3a       ?PolylineTo@CDC@@QAEHPBUtagPOINT@@H@Z 5f45ff3a f
 0001:0005ef80       ?SetColorAdjustment@CDC@@QAEHPBUtagCOLORADJUSTMENT@@@Z 5f45ff80 f
 0001:0005efae       ?PolyBezierTo@CDC@@QAEHPBUtagPOINT@@H@Z 5f45ffae f
 0001:0005eff4       ?SelectClipPath@CDC@@QAEHH@Z 5f45fff4 f
 0001:0005f052       ?SelectClipRgn@CDC@@QAEHPAVCRgn@@H@Z 5f460052 f
 0001:0005f09a       ?AfxEnumMetaFileProc@@YGHPAUHDC__@@PAUtagHANDLETABLE@@PAUtagMETARECORD@@HJ@Z 5f46009a f
 0001:0005f2da       ?PlayMetaFile@CDC@@QAEHPAUHMETAFILE__@@@Z 5f4602da f
 0001:0005f313       ?DPtoLP@CDC@@QBEXPAUtagSIZE@@@Z 5f460313 f
 0001:0005f386       ??_GCClientDC@@UAEPAXI@Z   5f460386 f
 0001:0005f386       ??_ECClientDC@@UAEPAXI@Z   5f460386 f
 0001:0005f3ac       ??_ECWindowDC@@UAEPAXI@Z   5f4603ac f
 0001:0005f3ac       ??_GCWindowDC@@UAEPAXI@Z   5f4603ac f
 0001:0005f3d2       ??_GCPaintDC@@UAEPAXI@Z    5f4603d2 f
 0001:0005f3d2       ??_ECPaintDC@@UAEPAXI@Z    5f4603d2 f
 0001:0005f3fc       ??0CPen@@QAE@HHK@Z         5f4603fc f
 0001:0005f44c       ??0CPen@@QAE@HHPBUtagLOGBRUSH@@HPBK@Z 5f46044c f
 0001:0005f4a2       ??0CBrush@@QAE@K@Z         5f4604a2 f
 0001:0005f4ec       ??0CBrush@@QAE@HK@Z        5f4604ec f
 0001:0005f539       ??0CBrush@@QAE@PAVCBitmap@@@Z 5f460539 f
 0001:0005f586       ?CreateDIBPatternBrush@CBrush@@QAEHPAXI@Z 5f460586 f
 0001:0005f5b8       ?AfxThrowResourceException@@YGXXZ 5f4605b8 f
 0001:0005f5d1       ?AfxThrowUserException@@YGXXZ 5f4605d1 f
 0001:0005f5ea       ?AfxCustomLogFont@@YGHIPAUtagLOGFONTA@@@Z 5f4605ea f
 0001:0005f68c       ?_AfxCompareClassName@@YGHPAUHWND__@@PBD@Z 5f46068c f
 0001:0005f6b7       ?_AfxChildWindowFromPoint@@YGPAUHWND__@@PAU1@UtagPOINT@@@Z 5f4606b7 f
 0001:0005f77c       ?AfxCriticalNewHandler@@YAHI@Z 5f46077c f
 0001:0005f7d1       ?GetMessageMap@CDocument@@MBEPBUAFX_MSGMAP@@XZ 5f4607d1 f
 0001:0005f7d7       ??_ECDocument@@UAEPAXI@Z   5f4607d7 f
 0001:0005f7d7       ??_GCDocument@@UAEPAXI@Z   5f4607d7 f
 0001:0005f7f3       ?OnFinalRelease@CDocument@@UAEXXZ 5f4607f3 f
 0001:0005f826       ?OnFileClose@CDocument@@IAEXXZ 5f460826 f
 0001:0005f841       ?OnFileSave@CDocument@@IAEXXZ 5f460841 f
 0001:0005f849       ?OnFileSaveAs@CDocument@@IAEXXZ 5f460849 f
 0001:0005f856       ?DoFileSave@CDocument@@UAEHXZ 5f460856 f
 0001:0005f891       ?DoSave@CDocument@@UAEHPBDH@Z 5f460891 f
 0001:0005faf6       ?ReportSaveLoadException@CDocument@@UAEXPBDPAVCException@@HI@Z 5f460af6 f
 0001:0005fc5b       ?GetTempName@CMirrorFile@@SA?AVCString@@PBDH@Z 5f460c5b f
 0001:0005fd01       ?Open@CMirrorFile@@UAEHPBDIPAVCFileException@@@Z 5f460d01 f
 0001:0005feb3       ?Abort@CMirrorFile@@UAEXXZ 5f460eb3 f
 0001:0005fecc       ?Close@CMirrorFile@@UAEXXZ 5f460ecc f
 0001:000600c6       ?GetFile@CDocument@@UAEPAVCFile@@PBDIPAVCFileException@@@Z 5f4610c6 f
 0001:0006013c       ??1CMirrorFile@@UAE@XZ     5f46113c f
 0001:00060218       ?OnSaveDocument@CDocument@@UAEHPBD@Z 5f461218 f
 0001:000603d7       ?OnIdle@CDocument@@UAEXXZ  5f4613d7 f
 0001:000603d8       ?UpdateAllViews@CDocument@@QAEXPAVCView@@JPAVCObject@@@Z 5f4613d8 f
 0001:00060419       ?SendInitialUpdate@CDocument@@QAEXXZ 5f461419 f
 0001:00060458       ??_ECDocTemplate@@UAEPAXI@Z 5f461458 f
 0001:00060458       ??_GCDocTemplate@@UAEPAXI@Z 5f461458 f
 0001:00060493       ?CreateOleFrame@CDocTemplate@@QAEPAVCFrameWnd@@PAVCWnd@@PAVCDocument@@H@Z 5f461493 f
 0001:0006052d       ??_GCSingleDocTemplate@@UAEPAXI@Z 5f46152d f
 0001:0006052d       ??_ECSingleDocTemplate@@UAEPAXI@Z 5f46152d f
 0001:00060727       ?GetOpenDocumentCount@CDocManager@@UAEHXZ 5f461727 f
 0001:0006076d       ??_ECView@@UAEPAXI@Z       5f46176d f
 0001:0006076d       ??_GCView@@UAEPAXI@Z       5f46176d f
 0001:000607fa       ?OnPrint@CView@@MAEXPAVCDC@@PAUCPrintInfo@@@Z 5f4617fa f
 0001:00060809       ?IsSelected@CView@@UBEHPBVCObject@@@Z 5f461809 f
 0001:0006080e       ?OnMouseActivate@CView@@IAEHPAVCWnd@@II@Z 5f46180e f
 0001:0006087f       ?OnScroll@CView@@UAEHIIH@Z 5f46187f f
 0001:00060884       ?OnDragScroll@CView@@UAEKKVCPoint@@@Z 5f461884 f
 0001:0006088c       ?OnDragEnter@CView@@UAEKPAVCOleDataObject@@KVCPoint@@@Z 5f46188c f
 0001:00060891       ?OnDropEx@CView@@UAEKPAVCOleDataObject@@KKVCPoint@@@Z 5f461891 f
 0001:000608bf       ?OnUpdateSplitCmd@CView@@IAEXPAVCCmdUI@@@Z 5f4618bf f
 0001:000608e7       ?OnSplitCmd@CView@@IAEHI@Z 5f4618e7 f
 0001:00060903       ?OnUpdateNextPaneMenu@CView@@IAEXPAVCCmdUI@@@Z 5f461903 f
 0001:00060941       ?OnNextPaneCmd@CView@@IAEHI@Z 5f461941 f
 0001:0006098a       ?OnPreparePrinting@CView@@MAEHPAUCPrintInfo@@@Z 5f46198a f
 0001:00060990       ?OnEndPrintPreview@CView@@MAEXPAVCDC@@PAUCPrintInfo@@UtagPOINT@@PAVCPreviewView@@@Z 5f461990 f
 0001:00060a33       ?GetMessageMap@CCtrlView@@MBEPBUAFX_MSGMAP@@XZ 5f461a33 f
 0001:00060a39       ??_GCCtrlView@@UAEPAXI@Z   5f461a39 f
 0001:00060a39       ??_ECCtrlView@@UAEPAXI@Z   5f461a39 f
 0001:00060a55       ?GetMessageMap@CScrollView@@MBEPBUAFX_MSGMAP@@XZ 5f461a55 f
 0001:00060a5b       ?_AfxGetMouseScrollLines@@YGIXZ 5f461a5b f
 0001:00060b95       ??_GCScrollView@@UAEPAXI@Z 5f461b95 f
 0001:00060b95       ??_ECScrollView@@UAEPAXI@Z 5f461b95 f
 0001:00060c34       ?SetScaleToFitSize@CScrollView@@QAEXUtagSIZE@@@Z 5f461c34 f
 0001:00060cdd       ?GetScrollPosition@CScrollView@@QBE?AVCPoint@@XZ 5f461cdd f
 0001:00060d61       ?ScrollToPosition@CScrollView@@QAEXUtagPOINT@@@Z 5f461d61 f
 0001:00060e50       ?GetDeviceScrollSizes@CScrollView@@QBEXAAHAAUtagSIZE@@11@Z 5f461e50 f
 0001:00060e89       ?FillOutsideRect@CScrollView@@QAEXPAVCDC@@PAVCBrush@@@Z 5f461e89 f
 0001:00060f0c       ?ResizeParentToFit@CScrollView@@QAEXH@Z 5f461f0c f
 0001:00061038       ?CenterOnPoint@CScrollView@@IAEXVCPoint@@@Z 5f462038 f
 0001:000611d9       ?OnHScroll@CScrollView@@QAEXIIPAVCScrollBar@@@Z 5f4621d9 f
 0001:0006121d       ?OnVScroll@CScrollView@@QAEXIIPAVCScrollBar@@@Z 5f46221d f
 0001:00061265       ?OnMouseWheel@CScrollView@@QAEHIFVCPoint@@@Z 5f462265 f
 0001:00061299       ?DoMouseWheel@CScrollView@@QAEHIFVCPoint@@@Z 5f462299 f
 0001:000613c1       ?OnScroll@CScrollView@@UAEHIIH@Z 5f4623c1 f
 0001:000614a4       ?OnScrollBy@CScrollView@@UAEHVCSize@@H@Z 5f4624a4 f
 0001:000615a0       ??0CFormView@@IAE@PBD@Z    5f4625a0 f
 0001:000615c3       ??_GCFormView@@UAEPAXI@Z   5f4625c3 f
 0001:000615c3       ??_ECFormView@@UAEPAXI@Z   5f4625c3 f
 0001:000615df       ??1CFormView@@UAE@XZ       5f4625df f
 0001:000615e4       ??0CFormView@@IAE@I@Z      5f4625e4 f
 0001:00061608       ?Create@CFormView@@MAEHPBD0KABUtagRECT@@PAVCWnd@@IPAUCCreateContext@@@Z 5f462608 f
 0001:0006171c       ?OnCreate@CFormView@@IAEHPAUtagCREATESTRUCTA@@@Z 5f46271c f
 0001:0006172e       ?OnActivateView@CFormView@@MAEXHPAVCView@@0@Z 5f46272e f
 0001:00061751       ?OnActivateFrame@CFormView@@MAEXIPAVCFrameWnd@@@Z 5f462751 f
 0001:00061760       ?SaveFocusControl@CFormView@@IAEHXZ 5f462760 f
 0001:0006178b       ?OnSetFocus@CFormView@@IAEXPAVCWnd@@@Z 5f46278b f
 0001:000617c5       ?PreTranslateMessage@CFormView@@MAEHPAUtagMSG@@@Z 5f4627c5 f
 0001:0006182f       ?OnDraw@CFormView@@MAEXPAVCDC@@@Z 5f46282f f
 0001:00061832       ?HandleInitDialog@CFormView@@IAEJIJ@Z 5f462832 f
 0001:00061862       ?SetOccDialogInfo@CFormView@@MAEHPAU_AFX_OCC_DIALOG_INFO@@@Z 5f462862 f
 0001:0006186f       ?GetOpenDocumentCount@CWinApp@@QAEHXZ 5f46286f f
 0001:0006187a       ?_GetBaseMessageMap@COleDBRecordView@@KGPBUAFX_MSGMAP@@XZ 5f46287a f
 0001:00061880       ?GetMessageMap@COleDBRecordView@@MBEPBUAFX_MSGMAP@@XZ 5f462880 f
 0001:00061886       ?OnInitialUpdate@COleDBRecordView@@UAEXXZ 5f462886 f
 0001:00061886       ?OnInitialUpdate@CFormView@@UAEXXZ 5f462886 f
 0001:00061899       ?OnMove@COleDBRecordView@@UAEHI@Z 5f462899 f
 0001:00061950       ?OnUpdateRecordFirst@COleDBRecordView@@IAEXPAVCCmdUI@@@Z 5f462950 f
 0001:0006196b       ?OnUpdateRecordLast@COleDBRecordView@@IAEXPAVCCmdUI@@@Z 5f46296b f
 0001:00061a5c       ??0CMemFile@@QAE@PAEII@Z   5f462a5c f
 0001:00061a98       ?Attach@CMemFile@@QAEXPAEII@Z 5f462a98 f
 0001:00061ac3       ?Detach@CMemFile@@QAEPAEXZ 5f462ac3 f
 0001:00061ad5       ?GetPosition@CMemFile@@UBEKXZ 5f462ad5 f
 0001:00061aed       ?SetLength@CMemFile@@UAEXK@Z 5f462aed f
 0001:00061b38       ?Flush@CMemFile@@UAEXXZ    5f462b38 f
 0001:00061b39       ?Abort@CMemFile@@UAEXXZ    5f462b39 f
 0001:00061b3e       ?LockRange@CMemFile@@UAEXKK@Z 5f462b3e f
 0001:00061b46       ?Duplicate@CMemFile@@UBEPAVCFile@@XZ 5f462b46 f
 0001:00061b60       ?OnHelp@CWnd@@QAEXXZ       5f462b60 f
 0001:00061c02       ?OnHelp@CFrameWnd@@IAEXXZ  5f462c02 f
 0001:00061c35       ?OnHelpIndex@CWnd@@QAEXXZ  5f462c35 f
 0001:00061c4c       ?OnHelpFinder@CWnd@@QAEXXZ 5f462c4c f
 0001:00061c63       ?OnHelpUsing@CWnd@@QAEXXZ  5f462c63 f
 0001:00061c7a       ?CanEnterHelpMode@CFrameWnd@@QAEHXZ 5f462c7a f
 0001:00061cd7       ?OnContextHelp@CFrameWnd@@QAEXXZ 5f462cd7 f
 0001:00061e79       ?SetHelpCapture@CFrameWnd@@IAEPAUHWND__@@UtagPOINT@@PAH@Z 5f462e79 f
 0001:00061f9a       ?_AfxMapClientArea@@YGKPAUHWND__@@UtagPOINT@@@Z 5f462f9a f
 0001:00062033       ?_AfxMapNonClientArea@@YGKH@Z 5f463033 f
 0001:0006204d       ?ProcessHelpMsg@CFrameWnd@@IAEHAAUtagMSG@@PAK@Z 5f46304d f
 0001:00062282       ?ResetTimer@CControlBar@@QAEXII@Z 5f463282 f
 0001:000622b8       ?OnTimer@CControlBar@@QAEXI@Z 5f4632b8 f
 0001:0006243d       ?SetStatusText@CControlBar@@UAEHH@Z 5f46343d f
 0001:000626df       ?OnHelpHitTest@CControlBar@@QAEJIJ@Z 5f4636df f
 0001:000627ec       ?OnMouseActivate@CControlBar@@QAEHPAVCWnd@@II@Z 5f4637ec f
 0001:0006281f       ?OnLButtonDown@CControlBar@@QAEXIVCPoint@@@Z 5f46381f f
 0001:00062865       ?OnLButtonDblClk@CControlBar@@QAEXIVCPoint@@@Z 5f463865 f
 0001:00062934       ?DelayShow@CControlBar@@UAEXH@Z 5f463934 f
 0001:00062a0a       ?CommandToIndex@CToolBar@@QBEHI@Z 5f463a0a f
 0001:00062a20       ?GetItemID@CToolBar@@QBEIH@Z 5f463a20 f
 0001:00062bf6       ?GetButtonInfo@CToolBar@@QBEXHAAI0AAH@Z 5f463bf6 f
 0001:00062c2e       ?OnToolHitTest@CToolBar@@UBEHVCPoint@@PAUtagTOOLINFOA@@@Z 5f463c2e f
 0001:00062cf9       ?SetButtonText@CToolBar@@QAEHHPBD@Z 5f463cf9 f
 0001:00062df7       ?GetButtonText@CToolBar@@QBE?AVCString@@H@Z 5f463df7 f
 0001:00062e55       ?GetButtonText@CToolBar@@QBEXHAAVCString@@@Z 5f463e55 f
 0001:00062efc       ?OnNcHitTest@CToolBar@@IAEIVCPoint@@@Z 5f463efc f
 0001:00062f0d       ?OnPreserveZeroBorderHelper@CToolBar@@IAEJIJ@Z 5f463f0d f
 0001:00062f5c       ?OnSysColorChange@CToolBar@@IAEXXZ 5f463f5c f
 0001:00062f95       ??0CDialogBar@@QAE@XZ      5f463f95 f
 0001:00062fb5       ??1CDialogBar@@UAE@XZ      5f463fb5 f
 0001:00062fed       ?Create@CDialogBar@@QAEHPAVCWnd@@PBDII@Z 5f463fed f
 0001:000630f0       ?CalcFixedLayout@CDialogBar@@UAE?AVCSize@@HH@Z 5f4640f0 f
 0001:0006313a       ?OnUpdateCmdUI@CDialogBar@@UAEXPAVCFrameWnd@@H@Z 5f46413a f
 0001:0006314a       ?GetMessageMap@CDialogBar@@MBEPBUAFX_MSGMAP@@XZ 5f46414a f
 0001:00063150       ?HandleInitDialog@CDialogBar@@IAEJIJ@Z 5f464150 f
 0001:0006318b       ?SetOccDialogInfo@CDialogBar@@MAEHPAU_AFX_OCC_DIALOG_INFO@@@Z 5f46418b f
 0001:000631af       ?GetItemID@CStatusBar@@QBEIH@Z 5f4641af f
 0001:000631bf       ?GetItemRect@CStatusBar@@QBEXHPAUtagRECT@@@Z 5f4641bf f
 0001:000631f6       ?GetPaneInfo@CStatusBar@@QBEXHAAI0AAH@Z 5f4641f6 f
 0001:00063220       ?SetPaneInfo@CStatusBar@@QAEXHIIH@Z 5f464220 f
 0001:0006329c       ?GetPaneText@CStatusBar@@QBEXHAAVCString@@@Z 5f46429c f
 0001:000632b7       ?GetPaneText@CStatusBar@@QBE?AVCString@@H@Z 5f4642b7 f
 0001:000632f0       ?OnNcHitTest@CStatusBar@@IAEIVCPoint@@@Z 5f4642f0 f
 0001:00063304       ?OnBarStyleChange@CStatusBar@@UAEXKK@Z 5f464304 f
 0001:00063342       ?OnGetText@CStatusBar@@IAEJIJ@Z 5f464342 f
 0001:00063396       ?OnGetTextLength@CStatusBar@@IAEJIJ@Z 5f464396 f
 0001:000633ba       ?OnSetMinHeight@CStatusBar@@IAEJIJ@Z 5f4643ba f
 0001:000633cd       ?SetCheck@CStatusCmdUI@@UAEXH@Z 5f4643cd f
 0001:000633fb       ?SetText@CStatusCmdUI@@UAEXPBD@Z 5f4643fb f
 0001:0006340f       ?GetDockedCount@CDockBar@@QBEHXZ 5f46440f f
 0001:00063555       ?ReDockControlBar@CDockBar@@QAEXPAVCControlBar@@PBUtagRECT@@@Z 5f464555 f
 0001:00063a89       ?ShowAll@CDockBar@@QAEXH@Z 5f464a89 f
 0001:00063aca       ?Insert@CDockBar@@IAEHPAVCControlBar@@VCRect@@VCPoint@@@Z 5f464aca f
 0001:00063c20       ?_GetBaseMessageMap@CMiniDockFrameWnd@@KGPBUAFX_MSGMAP@@XZ 5f464c20 f
 0001:00063c26       ?GetMessageMap@CMiniDockFrameWnd@@MBEPBUAFX_MSGMAP@@XZ 5f464c26 f
 0001:00063c2c       ?OnMouseActivate@CMiniDockFrameWnd@@QAEHPAVCWnd@@II@Z 5f464c2c f
 0001:00063c47       ??0CMiniDockFrameWnd@@QAE@XZ 5f464c47 f
 0001:00063c8a       ??_GCMiniDockFrameWnd@@UAEPAXI@Z 5f464c8a f
 0001:00063c8a       ??_ECMiniDockFrameWnd@@UAEPAXI@Z 5f464c8a f
 0001:00063ca6       ??1CMiniDockFrameWnd@@UAE@XZ 5f464ca6 f
 0001:00063cde       ?Create@CMiniDockFrameWnd@@UAEHPAVCWnd@@K@Z 5f464cde f
 0001:00063e43       ?RecalcLayout@CMiniDockFrameWnd@@UAEXH@Z 5f464e43 f
 0001:00063e8b       ?OnClose@CMiniDockFrameWnd@@QAEXXZ 5f464e8b f
 0001:00063e99       ?OnNcLButtonDown@CMiniDockFrameWnd@@QAEXIVCPoint@@@Z 5f464e99 f
 0001:00063f3f       ?OnNcLButtonDblClk@CMiniDockFrameWnd@@QAEXIVCPoint@@@Z 5f464f3f f
 0001:00063f90       ?_AfxAdjustRectangle@@YGXAAVCRect@@VCPoint@@@Z 5f464f90 f
 0001:00063feb       ?StartDrag@CDockContext@@UAEXVCPoint@@@Z 5f464feb f
 0001:00064337       ?Move@CDockContext@@QAEXVCPoint@@@Z 5f465337 f
 0001:000643b3       ?OnKey@CDockContext@@QAEXHH@Z 5f4653b3 f
 0001:000643e7       ?EndDrag@CDockContext@@QAEXXZ 5f4653e7 f
 0001:000644f2       ?StartResize@CDockContext@@UAEXHVCPoint@@@Z 5f4654f2 f
 0001:00064634       ?Stretch@CDockContext@@QAEXVCPoint@@@Z 5f465634 f
 0001:000647ae       ?EndResize@CDockContext@@QAEXXZ 5f4657ae f
 0001:000647f1       ?ToggleDocking@CDockContext@@UAEXXZ 5f4657f1 f
 0001:000648c6       ?InitLoop@CDockContext@@QAEXXZ 5f4658c6 f
 0001:00064983       ?CancelLoop@CDockContext@@QAEXXZ 5f465983 f
 0001:000649cc       ?DrawFocusRect@CDockContext@@QAEXH@Z 5f4659cc f
 0001:00064aec       ?UpdateState@CDockContext@@QAEXPAHH@Z 5f465aec f
 0001:00064b3e       ?CanDock@CDockContext@@QAEKXZ 5f465b3e f
 0001:00064c64       ?GetDockBar@CDockContext@@QAEPAVCDockBar@@K@Z 5f465c64 f
 0001:00064cac       ?Track@CDockContext@@QAEHXZ 5f465cac f
 0001:00064dca       ?LoadState@CControlBarInfo@@QAEHPBDHPAVCDockState@@@Z 5f465dca f
 0001:00065037       ?SaveState@CControlBarInfo@@QAEHPBDH@Z 5f466037 f
 0001:00065289       ?LoadState@CDockState@@QAEXPBD@Z 5f466289 f
 0001:00065370       ?SaveState@CDockState@@QAEXPBD@Z 5f466370 f
 0001:000654c0       ?LoadBarState@CFrameWnd@@QAEXPBD@Z 5f4664c0 f
 0001:0006550d       ?SaveBarState@CFrameWnd@@QBEXPBD@Z 5f46650d f
 0001:000656b7       ?GetMessageMap@CReBar@@MBEPBUAFX_MSGMAP@@XZ 5f4666b7 f
 0001:000656bd       ??0CReBar@@QAE@XZ          5f4666bd f
 0001:000656f8       ??_GCReBar@@UAEPAXI@Z      5f4666f8 f
 0001:000656f8       ??_ECReBar@@UAEPAXI@Z      5f4666f8 f
 0001:00065714       ??1CReBar@@UAE@XZ          5f466714 f
 0001:00065719       ?OnRecalcParent@CReBar@@IAEXXZ 5f466719 f
 0001:0006572b       ?OnHeightChange@CReBar@@IAEXPAUtagNMHDR@@PAJ@Z 5f46672b f
 0001:0006576b       ?OnShowBand@CReBar@@IAEJIJ@Z 5f46676b f
 0001:00065802       ?_AddBar@CReBar@@IAEHPAVCWnd@@PAUtagREBARBANDINFOA@@@Z 5f466802 f
 0001:000658bf       ?AddBar@CReBar@@QAEHPAVCWnd@@PBDPAVCBitmap@@K@Z 5f4668bf f
 0001:00065904       ?AddBar@CReBar@@QAEHPAVCWnd@@KKPBDK@Z 5f466904 f
 0001:00065944       ?CalcFixedLayout@CReBar@@UAE?AVCSize@@HH@Z 5f466944 f
 0001:00065ad5       ?Create@CReBar@@QAEHPAVCWnd@@KKI@Z 5f466ad5 f
 0001:00065b48       ?OnNcCreate@CReBar@@IAEHPAUtagCREATESTRUCTA@@@Z 5f466b48 f
 0001:00065b74       ?OnNcCalcSize@CReBar@@IAEXHPAUtagNCCALCSIZE_PARAMS@@@Z 5f466b74 f
 0001:00065bc0       ?OnPaint@CReBar@@IAEXXZ    5f466bc0 f
 0001:00065bc5       ?OnToolHitTest@CReBar@@UBEHVCPoint@@PAUtagTOOLINFOA@@@Z 5f466bc5 f
 0001:00065c0a       ?WindowProc@CReBar@@MAEJIIJ@Z 5f466c0a f
 0001:00065c47       ?PrepareEditCtrl@CDataExchange@@QAEPAUHWND__@@H@Z 5f466c47 f
 0001:00065c68       ?Fail@CDataExchange@@QAEXXZ 5f466c68 f
 0001:00065c9d       ?_AfxSimpleScanf@@YGHPBD0PAD@Z 5f466c9d f
 0001:00065d44       ?_Afx_DDX_TextWithFormat@@YAXPAVCDataExchange@@HPBDIZZ 5f466d44 f
 0001:00065db4       ?DDX_Text@@YGXPAVCDataExchange@@HAAE@Z 5f466db4 f
 0001:00065e25       ?DDX_Text@@YGXPAVCDataExchange@@HAAF@Z 5f466e25 f
 0001:00065e60       ?DDX_Text@@YGXPAVCDataExchange@@HAAH@Z 5f466e60 f
 0001:00065e8f       ?DDX_Text@@YGXPAVCDataExchange@@HAAI@Z 5f466e8f f
 0001:00065ebe       ?DDX_Text@@YGXPAVCDataExchange@@HAAJ@Z 5f466ebe f
 0001:00065eed       ?DDX_Text@@YGXPAVCDataExchange@@HAAK@Z 5f466eed f
 0001:00065f1c       ?DDX_Text@@YGXPAVCDataExchange@@HAAVCString@@@Z 5f466f1c f
 0001:00065f6e       ?DDX_Text@@YGXPAVCDataExchange@@HPADH@Z 5f466f6e f
 0001:00065fac       ?DDX_Check@@YGXPAVCDataExchange@@HAAH@Z 5f466fac f
 0001:00065ffe       ?DDX_Radio@@YGXPAVCDataExchange@@HAAH@Z 5f466ffe f
 0001:0006608f       ?DDX_LBString@@YGXPAVCDataExchange@@HAAVCString@@@Z 5f46708f f
 0001:0006610f       ?DDX_LBStringExact@@YGXPAVCDataExchange@@HAAVCString@@@Z 5f46710f f
 0001:00066160       ?DDX_CBString@@YGXPAVCDataExchange@@HAAVCString@@@Z 5f467160 f
 0001:000661df       ?DDX_CBStringExact@@YGXPAVCDataExchange@@HAAVCString@@@Z 5f4671df f
 0001:0006623c       ?DDX_LBIndex@@YGXPAVCDataExchange@@HAAH@Z 5f46723c f
 0001:0006627e       ?DDX_CBIndex@@YGXPAVCDataExchange@@HAAH@Z 5f46727e f
 0001:000662c0       ?DDX_Scroll@@YGXPAVCDataExchange@@HAAH@Z 5f4672c0 f
 0001:000662fb       ?DDX_Slider@@YGXPAVCDataExchange@@HAAH@Z 5f4672fb f
 0001:0006633f       ?_AfxFailMinMaxWithFormat@@YGXPAVCDataExchange@@JJPBDI@Z 5f46733f f
 0001:000663d2       ?DDV_MinMaxByte@@YGXPAVCDataExchange@@EEE@Z 5f4673d2 f
 0001:00066402       ?DDV_MinMaxShort@@YGXPAVCDataExchange@@FFF@Z 5f467402 f
 0001:00066435       ?DDV_MinMaxLong@@YGXPAVCDataExchange@@JJJ@Z 5f467435 f
 0001:00066461       ?DDV_MinMaxUInt@@YGXPAVCDataExchange@@III@Z 5f467461 f
 0001:0006648d       ?DDV_MinMaxSlider@@YGXPAVCDataExchange@@KKK@Z 5f46748d f
 0001:000664d0       ?DDV_MaxChars@@YGXPAVCDataExchange@@ABVCString@@H@Z 5f4674d0 f
 0001:00066593       ?AfxFailMaxChars@@YGXPAVCDataExchange@@H@Z 5f467593 f
 0001:0006660b       ?AfxFailRadio@@YGXPAVCDataExchange@@@Z 5f46760b f
 0001:0006666b       ?_AfxSimpleFloatParse@@YGHPBDAAN@Z 5f46766b f
 0001:000666cd       ?AfxTextFloatFormat@@YGXPAVCDataExchange@@HPAXNH@Z 5f4676cd f
 0001:00066762       ?DDX_Text@@YGXPAVCDataExchange@@HAAM@Z 5f467762 f
 0001:00066780       ?DDX_Text@@YGXPAVCDataExchange@@HAAN@Z 5f467780 f
 0001:0006679e       ?_AfxFailMinMaxReal@@YGXPAVCDataExchange@@NNHI@Z 5f46779e f
 0001:00066846       ?DDV_MinMaxFloat@@YGXPAVCDataExchange@@ABMMM@Z 5f467846 f
 0001:00066883       ?DDV_MinMaxDouble@@YGXPAVCDataExchange@@ABNNN@Z 5f467883 f
 0001:000668c0       ?_AfxAppendFilterSuffix@@YGXAAVCString@@AAUtagOFNA@@PAVCDocTemplate@@PAV1@@Z 5f4678c0 f
 0001:0006699c       ?_GetBaseMessageMap@CNewTypeDlg@@KGPBUAFX_MSGMAP@@XZ 5f46799c f
 0001:000669a2       ?GetMessageMap@CNewTypeDlg@@MBEPBUAFX_MSGMAP@@XZ 5f4679a2 f
 0001:000669a8       ?OnInitDialog@CNewTypeDlg@@MAEHXZ 5f4679a8 f
 0001:00066abd       ?OnOK@CNewTypeDlg@@MAEXXZ  5f467abd f
 0001:00066b07       ?DoPromptFileName@CDocManager@@UAEHAAVCString@@IKHPAVCDocTemplate@@@Z 5f467b07 f
 0001:00066cb2       ?GetDocumentCount@CDocManager@@IAEHXZ 5f467cb2 f
 0001:00066cf4       ?OnDDECommand@CDocManager@@UAEHPAD@Z 5f467cf4 f
 0001:0006736a       ??_GCNewTypeDlg@@UAEPAXI@Z 5f46836a f
 0001:0006736a       ??_ECNewTypeDlg@@UAEPAXI@Z 5f46836a f
 0001:00067386       ?OnFileOpen@CDocManager@@UAEXXZ 5f468386 f
 0001:00067419       ?CreateStatic@CSplitterWnd@@QAEHPAVCWnd@@HHKI@Z 5f468419 f
 0001:000674d8       ?IsChildPane@CSplitterWnd@@QAEHPAVCWnd@@PAH1@Z 5f4684d8 f
 0001:00067554       ?GetRowInfo@CSplitterWnd@@QBEXHAAH0@Z 5f468554 f
 0001:00067584       ?SetRowInfo@CSplitterWnd@@QAEXHHH@Z 5f468584 f
 0001:000675b0       ?GetColumnInfo@CSplitterWnd@@QBEXHAAH0@Z 5f4685b0 f
 0001:000675d8       ?SetColumnInfo@CSplitterWnd@@QAEXHHH@Z 5f4685d8 f
 0001:0006764e       ?DeleteView@CSplitterWnd@@UAEXHH@Z 5f46864e f
 0001:000676c1       ?_AfxCanSplitRowCol@@YGHPAUCRowColInfo@CSplitterWnd@@HH@Z 5f4686c1 f
 0001:000676e1       ?SplitRow@CSplitterWnd@@UAEHH@Z 5f4686e1 f
 0001:000677e9       ?SplitColumn@CSplitterWnd@@UAEHH@Z 5f4687e9 f
 0001:000678eb       ?DeleteRow@CSplitterWnd@@UAEXH@Z 5f4688eb f
 0001:00067a04       ?DeleteColumn@CSplitterWnd@@UAEXH@Z 5f468a04 f
 0001:00067b1d       ?StartTracking@CSplitterWnd@@MAEXH@Z 5f468b1d f
 0001:00067ce9       ?TrackRowSize@CSplitterWnd@@MAEXHH@Z 5f468ce9 f
 0001:00067d7e       ?TrackColumnSize@CSplitterWnd@@MAEXHH@Z 5f468d7e f
 0001:00067e0a       ?StopTracking@CSplitterWnd@@MAEXH@Z 5f468e0a f
 0001:00067fad       ?GetHitRect@CSplitterWnd@@MAEXHAAVCRect@@@Z 5f468fad f
 0001:00068178       ?HitTest@CSplitterWnd@@MBEHVCPoint@@@Z 5f469178 f
 0001:00068332       ?OnInvertTracker@CSplitterWnd@@MAEXABVCRect@@@Z 5f469332 f
 0001:000683a8       ?DoKeyboardSplit@CSplitterWnd@@UAEHXZ 5f4693a8 f
 0001:000684a8       ?OnDisplayChange@CSplitterWnd@@IAEXXZ 5f4694a8 f
 0001:00068727       ?OnSetCursor@CSplitterWnd@@IAEHPAVCWnd@@II@Z 5f469727 f
 0001:00068747       ?SetSplitCursor@CSplitterWnd@@MAEXH@Z 5f469747 f
 0001:00068834       ?OnMouseMove@CSplitterWnd@@IAEXIVCPoint@@@Z 5f469834 f
 0001:000689b0       ?OnLButtonDown@CSplitterWnd@@IAEXIVCPoint@@@Z 5f4699b0 f
 0001:000689db       ?OnLButtonDblClk@CSplitterWnd@@IAEXIVCPoint@@@Z 5f4699db f
 0001:00068b24       ?OnLButtonUp@CSplitterWnd@@IAEXIVCPoint@@@Z 5f469b24 f
 0001:00068b31       ?OnCancelMode@CSplitterWnd@@IAEXXZ 5f469b31 f
 0001:00068b3c       ?OnKeyDown@CSplitterWnd@@IAEXIII@Z 5f469b3c f
 0001:00068c71       ?OnSysCommand@CSplitterWnd@@IAEXIJ@Z 5f469c71 f
 0001:00068cb0       ?OnCommand@CSplitterWnd@@MAEHIJ@Z 5f469cb0 f
 0001:00068cea       ?OnNotify@CSplitterWnd@@MAEHIJPAJ@Z 5f469cea f
 0001:00068d27       ?OnMouseWheel@CSplitterWnd@@IAEHIFVCPoint@@@Z 5f469d27 f
 0001:00068ded       ?OnHScroll@CSplitterWnd@@IAEXIIPAVCScrollBar@@@Z 5f469ded f
 0001:00068e83       ?OnVScroll@CSplitterWnd@@IAEXIIPAVCScrollBar@@@Z 5f469e83 f
 0001:00068f19       ?DoScroll@CSplitterWnd@@UAEHPAVCView@@IH@Z 5f469f19 f
 0001:00069070       ?DoScrollBy@CSplitterWnd@@UAEHPAVCView@@VCSize@@H@Z 5f46a070 f
 0001:000691c7       ?CanActivateNext@CSplitterWnd@@UAEHH@Z 5f46a1c7 f
 0001:000691ed       ?ActivateNext@CSplitterWnd@@UAEXH@Z 5f46a1ed f
 0001:0006925e       ?SetActivePane@CSplitterWnd@@UAEXHHPAVCWnd@@@Z 5f46a25e f
 0001:000692a8       ?GetActivePane@CSplitterWnd@@UAEPAVCWnd@@PAH0@Z 5f46a2a8 f
 0001:00069300       ?OnDDECommand@CWinApp@@UAEHPAD@Z 5f46a300 f
 0001:0006931a       ?OnOpenRecentFile@CWinApp@@IAEHI@Z 5f46a31a f
 0001:00069369       ?DoMessageBox@CWinApp@@UAEHPBDII@Z 5f46a369 f
 0001:0006945f       ?AfxMessageBox@@YGHPBDII@Z 5f46a45f f
 0001:00069497       ?AfxMessageBox@@YGHIII@Z   5f46a497 f
 0001:00069612       ?OnFileOpen@CWinApp@@IAEXXZ 5f46a612 f
 0001:0006961d       ?DoPromptFileName@CWinApp@@QAEHAAVCString@@IKHPAVCDocTemplate@@@Z 5f46a61d f
 0001:0006963e       ?AfxFormatStrings@@YGXAAVCString@@IPBQBDH@Z 5f46a63e f
 0001:000696d7       ?AfxFormatString1@@YGXAAVCString@@IPBD@Z 5f46a6d7 f
 0001:000696ee       ?AfxFormatString2@@YGXAAVCString@@IPBD1@Z 5f46a6ee f
 0001:00069714       ?OnHelp@CWinApp@@IAEXXZ    5f46a714 f
 0001:00069758       ?OnHelpIndex@CWinApp@@IAEXXZ 5f46a758 f
 0001:00069765       ?OnHelpFinder@CWinApp@@IAEXXZ 5f46a765 f
 0001:00069772       ?OnHelpUsing@CWinApp@@IAEXXZ 5f46a772 f
 0001:0006977f       ?OnContextHelp@CWinApp@@IAEXXZ 5f46a77f f
 0001:000697b5       ??0CSharedFile@@QAE@II@Z   5f46a7b5 f
 0001:000697df       ?SetHandle@CSharedFile@@QAEXPAXH@Z 5f46a7df f
 0001:0006980d       ?Alloc@CSharedFile@@MAEPAEK@Z 5f46a80d f
 0001:0006982f       ?Realloc@CSharedFile@@MAEPAEPAEK@Z 5f46a82f f
 0001:00069867       ?Free@CSharedFile@@MAEXPAE@Z 5f46a867 f
 0001:00069880       ?Detach@CSharedFile@@QAEPAXXZ 5f46a880 f
 0001:000698e2       ?OnPaletteChanged@CFrameWnd@@IAEXPAVCWnd@@@Z 5f46a8e2 f
 0001:000698fe       ?OnQueryNewPalette@CFrameWnd@@IAEHXZ 5f46a8fe f
 0001:0006998f       ?OnCommandHelp@CFrameWnd@@IAEJIJ@Z 5f46a98f f
 0001:000699e7       ?OnHelpHitTest@CFrameWnd@@IAEJIJ@Z 5f46a9e7 f
 0001:00069a5c       ?BeginModalState@CFrameWnd@@UAEXXZ 5f46aa5c f
 0001:00069b78       ?EndModalState@CFrameWnd@@UAEXXZ 5f46ab78 f
 0001:00069be7       ?ShowOwnedWindows@CFrameWnd@@QAEXH@Z 5f46abe7 f
 0001:00069c7f       ?OnEnable@CFrameWnd@@IAEXH@Z 5f46ac7f f
 0001:00069d89       ?OnUpdateFrameMenu@CFrameWnd@@UAEXPAUHMENU__@@@Z 5f46ad89 f
 0001:00069e3c       ?OnHScroll@CFrameWnd@@IAEXIIPAVCScrollBar@@@Z 5f46ae3c f
 0001:00069e65       ?OnVScroll@CFrameWnd@@IAEXIIPAVCScrollBar@@@Z 5f46ae65 f
 0001:00069f55       ?OnDropFiles@CFrameWnd@@IAEXPAUHDROP__@@@Z 5f46af55 f
 0001:00069fca       ?OnQueryEndSession@CFrameWnd@@IAEHXZ 5f46afca f
 0001:00069fef       ?OnEndSession@CFrameWnd@@IAEXH@Z 5f46afef f
 0001:0006a027       ?OnDDEInitiate@CFrameWnd@@IAEJIJ@Z 5f46b027 f
 0001:0006a0ea       ?OnDDEExecute@CFrameWnd@@IAEJIJ@Z 5f46b0ea f
 0001:0006a185       ?OnDDETerminate@CFrameWnd@@IAEJIJ@Z 5f46b185 f
 0001:0006a1b3       ?ShowControlBar@CFrameWnd@@QAEXPAVCControlBar@@HH@Z 5f46b1b3 f
 0001:0006a401       ?OnPopMessageString@CFrameWnd@@IAEJIJ@Z 5f46b401 f
 0001:0006a43b       ?OnHelpPromptAddr@CFrameWnd@@IAEJIJ@Z 5f46b43b f
 0001:0006a452       ?OnUpdateControlBarMenu@CFrameWnd@@QAEXPAVCCmdUI@@@Z 5f46b452 f
 0001:0006a487       ?OnBarCheck@CFrameWnd@@QAEHI@Z 5f46b487 f
 0001:0006a4c0       ?OnToolTipText@CFrameWnd@@IAEHIPAUtagNMHDR@@PAJ@Z 5f46b4c0 f
 0001:0006a629       ?OnSetPreviewMode@CFrameWnd@@UAEXHPAUCPrintPreviewState@@@Z 5f46b629 f
 0001:0006a840       ?DelayUpdateFrameMenu@CFrameWnd@@UAEXPAUHMENU__@@@Z 5f46b840 f
 0001:0006a8a1       ?GetActiveFrame@CFrameWnd@@UAEPAV1@XZ 5f46b8a1 f
 0001:0006a921       ?NegotiateBorderSpace@CFrameWnd@@UAEHIPAUtagRECT@@@Z 5f46b921 f
 0001:0006a99b       ?OnRegisteredMouseWheel@CFrameWnd@@IAEJIJ@Z 5f46b99b f
 0001:0006aa74       ?CreateFloatingFrame@CFrameWnd@@QAEPAVCMiniDockFrameWnd@@K@Z 5f46ba74 f
 0001:0006aae0       ?ReDockControlBar@CFrameWnd@@QAEXPAVCControlBar@@PAVCDockBar@@PBUtagRECT@@@Z 5f46bae0 f
 0001:0006ab65       ?FloatControlBar@CFrameWnd@@QAEXPAVCControlBar@@VCPoint@@K@Z 5f46bb65 f
 0001:0006ac62       ?CanDock@CFrameWnd@@QAEKVCRect@@KPAPAVCDockBar@@@Z 5f46bc62 f
 0001:0006ad0e       ?GetMessageMap@CMDIFrameWnd@@MBEPBUAFX_MSGMAP@@XZ 5f46bd0e f
 0001:0006ad54       ?OnCommandHelp@CMDIFrameWnd@@IAEJIJ@Z 5f46bd54 f
 0001:0006ae19       ?DelayUpdateFrameMenu@CMDIFrameWnd@@UAEXPAUHMENU__@@@Z 5f46be19 f
 0001:0006ae64       ?OnMenuChar@CMDIFrameWnd@@IAEJIIPAVCMenu@@@Z 5f46be64 f
 0001:0006aeb5       ?CreateNewChild@CMDIFrameWnd@@QAEPAVCMDIChildWnd@@PAUCRuntimeClass@@IPAUHMENU__@@PAUHACCEL__@@@Z 5f46beb5 f
 0001:0006af99       ??1CMDIChildWnd@@UAE@XZ    5f46bf99 f
 0001:0006b0f1       ?OnMouseActivate@CMDIChildWnd@@IAEHPAVCWnd@@II@Z 5f46c0f1 f
 0001:0006b128       ?OnToolTipText@CMDIChildWnd@@IAEHIPAUtagNMHDR@@PAJ@Z 5f46c128 f
 0001:0006b1c9       ?SetHandles@CMDIChildWnd@@QAEXPAUHMENU__@@PAUHACCEL__@@@Z 5f46c1c9 f
 0001:0006b1e4       ?OnUpdateFrameMenu@CMDIFrameWnd@@UAEXPAUHMENU__@@@Z 5f46c1e4 f
 0001:0006b2de       ?OnUpdateMDIWindowCmd@CMDIFrameWnd@@IAEXPAVCCmdUI@@@Z 5f46c2de f
 0001:0006b2fd       ?OnMDIWindowCmd@CMDIFrameWnd@@IAEHI@Z 5f46c2fd f
 0001:0006b343       ?OnWindowNew@CMDIFrameWnd@@IAEXXZ 5f46c343 f
 0001:0006b392       ?GetMessageMap@CMiniFrameWnd@@MBEPBUAFX_MSGMAP@@XZ 5f46c392 f
 0001:0006b398       ??0CMiniFrameWnd@@QAE@XZ   5f46c398 f
 0001:0006b3e2       ??_ECMiniFrameWnd@@UAEPAXI@Z 5f46c3e2 f
 0001:0006b3e2       ??_GCMiniFrameWnd@@UAEPAXI@Z 5f46c3e2 f
 0001:0006b3fe       ?Initialize@CMiniFrameWnd@@SAXXZ 5f46c3fe f
 0001:0006b572       ?Create@CMiniFrameWnd@@QAEHPBD0KABUtagRECT@@PAVCWnd@@I@Z 5f46c572 f
 0001:0006b592       ?CreateEx@CMiniFrameWnd@@QAEHKPBD0KABUtagRECT@@PAVCWnd@@I@Z 5f46c592 f
 0001:0006b605       ?OnNcCreate@CMiniFrameWnd@@QAEHPAUtagCREATESTRUCTA@@@Z 5f46c605 f
 0001:0006b68d       ?PreCreateWindow@CMiniFrameWnd@@MAEHAAUtagCREATESTRUCTA@@@Z 5f46c68d f
 0001:0006b6c6       ?OnGetMinMaxInfo@CMiniFrameWnd@@QAEXPAUtagMINMAXINFO@@@Z 5f46c6c6 f
 0001:0006b70e       ?OnNcActivate@CMiniFrameWnd@@QAEHH@Z 5f46c70e f
 0001:0006b75f       ?OnNcCalcSize@CMiniFrameWnd@@QAEXHPAUtagNCCALCSIZE_PARAMS@@@Z 5f46c75f f
 0001:0006b7c5       ?OnNcHitTest@CMiniFrameWnd@@QAEIVCPoint@@@Z 5f46c7c5 f
 0001:0006bad4       ?OnNcLButtonDown@CMiniFrameWnd@@QAEXIVCPoint@@@Z 5f46cad4 f
 0001:0006bb19       ?OnMouseMove@CMiniFrameWnd@@QAEXIVCPoint@@@Z 5f46cb19 f
 0001:0006bba0       ?OnLButtonUp@CMiniFrameWnd@@QAEXIVCPoint@@@Z 5f46cba0 f
 0001:0006bc00       ?InvertSysMenu@CMiniFrameWnd@@IAEXXZ 5f46cc00 f
 0001:0006bc98       ?_AfxDrawFrame@@YGXPAVCDC@@PBUtagRECT@@HHAAVCBrush@@@Z 5f46cc98 f
 0001:0006bd55       ?OnNcPaint@CMiniFrameWnd@@QAEXXZ 5f46cd55 f
 0001:0006c2d2       ?OnSysCommand@CMiniFrameWnd@@QAEXIJ@Z 5f46d2d2 f
 0001:0006c33a       ?CalcWindowRect@CMiniFrameWnd@@UAEXPAUtagRECT@@I@Z 5f46d33a f
 0001:0006c3a2       ?CalcBorders@CMiniFrameWnd@@SGXPAUtagRECT@@KK@Z 5f46d3a2 f
 0001:0006c40e       ?OnGetText@CMiniFrameWnd@@QAEJIJ@Z 5f46d40e f
 0001:0006c449       ?OnGetTextLength@CMiniFrameWnd@@QAEJIJ@Z 5f46d449 f
 0001:0006c465       ?OnSetText@CMiniFrameWnd@@QAEJIJ@Z 5f46d465 f
 0001:0006c4ec       ?OnFloatStatus@CMiniFrameWnd@@QAEJIJ@Z 5f46d4ec f
 0001:0006c596       ?OnQueryCenterWnd@CMiniFrameWnd@@QAEJIJ@Z 5f46d596 f
 0001:0006c5bc       ??0CRectTracker@@QAE@PBUtagRECT@@I@Z 5f46d5bc f
 0001:0006c5e5       ?Construct@CRectTracker@@IAEXXZ 5f46d5e5 f
 0001:0006c773       ?Draw@CRectTracker@@QBEXPAVCDC@@@Z 5f46d773 f
 0001:0006c9e0       ?SetCursor@CRectTracker@@QBEHPAVCWnd@@I@Z 5f46d9e0 f
 0001:0006ca60       ?HitTest@CRectTracker@@QBEHVCPoint@@@Z 5f46da60 f
 0001:0006caac       ?NormalizeHit@CRectTracker@@QBEHH@Z 5f46daac f
 0001:0006caea       ?Track@CRectTracker@@QAEHPAVCWnd@@VCPoint@@H0@Z 5f46daea f
 0001:0006cb22       ?TrackRubberBand@CRectTracker@@QAEHPAVCWnd@@VCPoint@@H@Z 5f46db22 f
 0001:0006cb5d       ?DrawTrackerRect@CRectTracker@@UAEXPBUtagRECT@@PAVCWnd@@PAVCDC@@1@Z 5f46db5d f
 0001:0006cc30       ?AdjustRect@CRectTracker@@UAEXHPAUtagRECT@@@Z 5f46dc30 f
 0001:0006cd23       ?GetTrueRect@CRectTracker@@QBEXPAUtagRECT@@@Z 5f46dd23 f
 0001:0006cd75       ?GetHandleRect@CRectTracker@@IBEXHPAVCRect@@@Z 5f46dd75 f
 0001:0006ce41       ?GetHandleSize@CRectTracker@@MBEHPBUtagRECT@@@Z 5f46de41 f
 0001:0006cea1       ?HitTestHandles@CRectTracker@@IBEHVCPoint@@@Z 5f46dea1 f
 0001:0006cf60       ?TrackHandle@CRectTracker@@IAEHHPAVCWnd@@VCPoint@@0@Z 5f46df60 f
 0001:0006d1ea       ?GetModifyPointers@CRectTracker@@IAEXHPAPAH0PAH1@Z 5f46e1ea f
 0001:0006d290       ?GetHandleMask@CRectTracker@@UBEIXZ 5f46e290 f
 0001:0006d2d2       ?Create@CStatic@@QAEHPBDKABUtagRECT@@PAVCWnd@@I@Z 5f46e2d2 f
 0001:0006d2f4       ?Create@CButton@@QAEHPBDKABUtagRECT@@PAVCWnd@@I@Z 5f46e2f4 f
 0001:0006d316       ?GetCheckedRadioButton@CWnd@@QAEHHH@Z 5f46e316 f
 0001:0006d33e       ?Create@CListBox@@QAEHKABUtagRECT@@PAVCWnd@@I@Z 5f46e33e f
 0001:0006d35f       ?CompareItem@CListBox@@UAEHPAUtagCOMPAREITEMSTRUCT@@@Z 5f46e35f f
 0001:0006d364       ?CharToItem@CListBox@@UAEHII@Z 5f46e364 f
 0001:0006d36c       ?OnChildNotify@CListBox@@MAEHIIJPAJ@Z 5f46e36c f
 0001:0006d409       ?GetText@CListBox@@QBEXHAAVCString@@@Z 5f46e409 f
 0001:0006d44c       ?ItemFromPoint@CListBox@@QBEIVCPoint@@AAH@Z 5f46e44c f
 0001:0006d4a9       ?GetLBText@CComboBox@@QBEXHAAVCString@@@Z 5f46e4a9 f
 0001:0006d4ec       ?Create@CEdit@@QAEHKABUtagRECT@@PAVCWnd@@I@Z 5f46e4ec f
 0001:0006d50d       ?Create@CScrollBar@@QAEHKABUtagRECT@@PAVCWnd@@I@Z 5f46e50d f
 0001:0006d52e       ??1CScrollBar@@UAE@XZ      5f46e52e f
 0001:0006d566       ??0_AFX_CHECKLIST_STATE@@QAE@XZ 5f46e566 f
 0001:0006d608       ??_E_AFX_CHECKLIST_STATE@@UAEPAXI@Z 5f46e608 f
 0001:0006d608       ??_G_AFX_CHECKLIST_STATE@@UAEPAXI@Z 5f46e608 f
 0001:0006d623       ??1_AFX_CHECKLIST_STATE@@UAE@XZ 5f46e623 f
 0001:0006d638       ?GetMessageMap@CCheckListBox@@MBEPBUAFX_MSGMAP@@XZ 5f46e638 f
 0001:0006d63e       ?Create@CCheckListBox@@QAEHKABUtagRECT@@PAVCWnd@@I@Z 5f46e63e f
 0001:0006d660       ?SetCheckStyle@CCheckListBox@@QAEXI@Z 5f46e660 f
 0001:0006d66a       ?SetCheck@CCheckListBox@@QAEXHH@Z 5f46e66a f
 0001:0006d6e5       ?GetCheck@CCheckListBox@@QAEHH@Z 5f46e6e5 f
 0001:0006d70a       ?Enable@CCheckListBox@@QAEXHH@Z 5f46e70a f
 0001:0006d771       ?IsEnabled@CCheckListBox@@QAEHH@Z 5f46e771 f
 0001:0006d798       ?OnGetCheckPosition@CCheckListBox@@UAE?AVCRect@@V2@0@Z 5f46e798 f
 0001:0006d7ad       ?DrawItem@CCheckListBox@@UAEXPAUtagDRAWITEMSTRUCT@@@Z 5f46e7ad f
 0001:0006d926       ?PreDrawItem@CCheckListBox@@IAEXPAUtagDRAWITEMSTRUCT@@@Z 5f46e926 f
 0001:0006dba0       ?PreMeasureItem@CCheckListBox@@IAEXPAUtagMEASUREITEMSTRUCT@@@Z 5f46eba0 f
 0001:0006dc2b       ?PreCompareItem@CCheckListBox@@IAEHPAUtagCOMPAREITEMSTRUCT@@@Z 5f46ec2b f
 0001:0006dc7c       ?PreDeleteItem@CCheckListBox@@IAEXPAUtagDELETEITEMSTRUCT@@@Z 5f46ec7c f
 0001:0006dce5       ?OnChildNotify@CCheckListBox@@MAEHIIJPAJ@Z 5f46ece5 f
 0001:0006dd40       ?CalcMinimumItemHeight@CCheckListBox@@IAEHXZ 5f46ed40 f
 0001:0006dddb       ?InvalidateCheck@CCheckListBox@@IAEXH@Z 5f46eddb f
 0001:0006de2d       ?InvalidateItem@CCheckListBox@@IAEXH@Z 5f46ee2d f
 0001:0006de5f       ?CheckFromPoint@CCheckListBox@@IAEHVCPoint@@AAH@Z 5f46ee5f f
 0001:0006df5b       ?SetSelectionCheck@CCheckListBox@@IAEXH@Z 5f46ef5b f
 0001:0006dfd3       ?OnLButtonDown@CCheckListBox@@IAEXIVCPoint@@@Z 5f46efd3 f
 0001:0006e0d0       ?OnLButtonDblClk@CCheckListBox@@IAEXIVCPoint@@@Z 5f46f0d0 f
 0001:0006e10a       ?OnKeyDown@CCheckListBox@@IAEXIII@Z 5f46f10a f
 0001:0006e27a       ?OnCreate@CCheckListBox@@IAEHPAUtagCREATESTRUCTA@@@Z 5f46f27a f
 0001:0006e2ba       ?OnSetFont@CCheckListBox@@IAEJIJ@Z 5f46f2ba f
 0001:0006e2f1       ?OnLBAddString@CCheckListBox@@IAEJIJ@Z 5f46f2f1 f
 0001:0006e359       ?OnLBFindString@CCheckListBox@@IAEJIJ@Z 5f46f359 f
 0001:0006e3da       ?OnLBFindStringExact@CCheckListBox@@IAEJIJ@Z 5f46f3da f
 0001:0006e45b       ?OnLBGetItemData@CCheckListBox@@IAEJIJ@Z 5f46f45b f
 0001:0006e47f       ?OnLBGetText@CCheckListBox@@IAEJIJ@Z 5f46f47f f
 0001:0006e4a8       ?OnLBInsertString@CCheckListBox@@IAEJIJ@Z 5f46f4a8 f
 0001:0006e510       ?OnLBSelectString@CCheckListBox@@IAEJIJ@Z 5f46f510 f
 0001:0006e5a0       ?OnLBSetItemData@CCheckListBox@@IAEJIJ@Z 5f46f5a0 f
 0001:0006e614       ?OnLBSetItemHeight@CCheckListBox@@IAEJIJ@Z 5f46f614 f
 0001:0006e64d       ?AfxPropPageCallback@@YGIPAUHWND__@@IPAU_PROPSHEETPAGEA@@@Z 5f46f64d f
 0001:0006e69b       ?_GetBaseMessageMap@CPropertyPage@@KGPBUAFX_MSGMAP@@XZ 5f46f69b f
 0001:0006e6a1       ?GetMessageMap@CPropertyPage@@MBEPBUAFX_MSGMAP@@XZ 5f46f6a1 f
 0001:0006e6a7       ??0CPropertyPage@@QAE@II@Z 5f46f6a7 f
 0001:0006e6f6       ??_ECPropertyPage@@UAEPAXI@Z 5f46f6f6 f
 0001:0006e6f6       ??_GCPropertyPage@@UAEPAXI@Z 5f46f6f6 f
 0001:0006e712       ??0CPropertyPage@@QAE@PBDI@Z 5f46f712 f
 0001:0006e75f       ?Construct@CPropertyPage@@QAEXII@Z 5f46f75f f
 0001:0006e771       ?Construct@CPropertyPage@@QAEXPBDI@Z 5f46f771 f
 0001:0006e781       ??0CPropertyPage@@QAE@XZ   5f46f781 f
 0001:0006e7ca       ?CommonConstruct@CPropertyPage@@IAEXPBDI@Z 5f46f7ca f
 0001:0006e868       ?Cleanup@CPropertyPage@@IAEXXZ 5f46f868 f
 0001:0006e899       ?_AfxChangePropPageFont@@YGPAUDLGTEMPLATE@@PBU1@H@Z 5f46f899 f
 0001:0006e97e       ?InitDialogInfo@CPropertyPage@@IAEPBUDLGTEMPLATE@@PBU2@@Z 5f46f97e f
 0001:0006e9af       ?PreProcessPageTemplate@CPropertyPage@@IAEXAAU_PROPSHEETPAGEA@@H@Z 5f46f9af f
 0001:0006ea36       ?CancelToClose@CPropertyPage@@QAEXXZ 5f46fa36 f
 0001:0006ea58       ?SetModified@CPropertyPage@@QAEXH@Z 5f46fa58 f
 0001:0006ea94       ?QuerySiblings@CPropertyPage@@QAEJIJ@Z 5f46fa94 f
 0001:0006eabc       ?OnApply@CPropertyPage@@UAEHXZ 5f46fabc f
 0001:0006eac8       ?OnReset@CPropertyPage@@UAEXXZ 5f46fac8 f
 0001:0006ead0       ?OnSetActive@CPropertyPage@@UAEHXZ 5f46fad0 f
 0001:0006eaea       ?OnKillActive@CPropertyPage@@UAEHXZ 5f46faea f
 0001:0006eaf8       ?OnWizardNext@CPropertyPage@@UAEJXZ 5f46faf8 f
 0001:0006eafb       ?OnWizardFinish@CPropertyPage@@UAEHXZ 5f46fafb f
 0001:0006eaff       ?MapWizardResult@CPropertyPage@@IAEJJ@Z 5f46faff f
 0001:0006eb79       ?IsButtonEnabled@CPropertyPage@@IAEHH@Z 5f46fb79 f
 0001:0006eb9b       ?OnNotify@CPropertyPage@@MAEHIJPAJ@Z 5f46fb9b f
 0001:0006ed13       ?PreTranslateMessage@CPropertyPage@@MAEHPAUtagMSG@@@Z 5f46fd13 f
 0001:0006ed21       ?OnCtlColor@CPropertyPage@@IAEPAUHBRUSH__@@PAVCDC@@PAVCWnd@@I@Z 5f46fd21 f
 0001:0006ed92       ?EndDialog@CPropertyPage@@QAEXH@Z 5f46fd92 f
 0001:0006edc0       ?GetMessageMap@CPropertySheet@@MBEPBUAFX_MSGMAP@@XZ 5f46fdc0 f
 0001:0006edc6       ?GetPropSheetHeader@CPropertySheet@@QAEPAU_AFX_OLDPROPSHEETHEADER@@XZ 5f46fdc6 f
 0001:0006ede6       ?OnSetDefID@CPropertySheet@@IAEJIJ@Z 5f46fde6 f
 0001:0006eeb4       ??0CPropertySheet@@QAE@XZ  5f46feb4 f
 0001:0006ef06       ??_ECPropertySheet@@UAEPAXI@Z 5f46ff06 f
 0001:0006ef06       ??_GCPropertySheet@@UAEPAXI@Z 5f46ff06 f
 0001:0006ef22       ??0CPropertySheet@@QAE@IPAVCWnd@@I@Z 5f46ff22 f
 0001:0006ef86       ??0CPropertySheet@@QAE@PBDPAVCWnd@@I@Z 5f46ff86 f
 0001:0006efea       ?Construct@CPropertySheet@@QAEXIPAVCWnd@@I@Z 5f46ffea f
 0001:0006f00c       ?Construct@CPropertySheet@@QAEXPBDPAVCWnd@@I@Z 5f47000c f
 0001:0006f02e       ?CommonConstruct@CPropertySheet@@QAEXPAVCWnd@@I@Z 5f47002e f
 0001:0006f089       ?EnableStackedTabs@CPropertySheet@@QAEXH@Z 5f470089 f
 0001:0006f096       ?SetTitle@CPropertySheet@@QAEXPBDI@Z 5f470096 f
 0001:0006f0e2       ?PreTranslateMessage@CPropertySheet@@UAEHPAUtagMSG@@@Z 5f4700e2 f
 0001:0006f143       ?OnCmdMsg@CPropertySheet@@UAEHIHPAXPAUAFX_CMDHANDLERINFO@@@Z 5f470143 f
 0001:0006f1c8       ?GetActivePage@CPropertySheet@@QBEPAVCPropertyPage@@XZ 5f4701c8 f
 0001:0006f1f9       ?ContinueModal@CPropertySheet@@UAEHXZ 5f4701f9 f
 0001:0006f21b       ?DoModal@CPropertySheet@@UAEHXZ 5f47021b f
 0001:0006f38f       ?AfxPropSheetCallback@@YGHPAUHWND__@@IJ@Z 5f47038f f
 0001:0006f3e6       ?Create@CPropertySheet@@QAEHPAVCWnd@@KK@Z 5f4703e6 f
 0001:0006f4a5       ?BuildPropPageArray@CPropertySheet@@UAEXXZ 5f4704a5 f
 0001:0006f51c       ?GetPageCount@CPropertySheet@@QBEHXZ 5f47051c f
 0001:0006f53e       ?GetActiveIndex@CPropertySheet@@QBEHXZ 5f47053e f
 0001:0006f565       ?SetActivePage@CPropertySheet@@QAEHH@Z 5f470565 f
 0001:0006f592       ?GetPageIndex@CPropertySheet@@QAEHPAVCPropertyPage@@@Z 5f470592 f
 0001:0006f5c5       ?SetActivePage@CPropertySheet@@QAEHPAVCPropertyPage@@@Z 5f4705c5 f
 0001:0006f5dd       ?AddPage@CPropertySheet@@QAEXPAVCPropertyPage@@@Z 5f4705dd f
 0001:0006f69f       ?RemovePage@CPropertySheet@@QAEXPAVCPropertyPage@@@Z 5f47069f f
 0001:0006f6b7       ?RemovePage@CPropertySheet@@QAEXH@Z 5f4706b7 f
 0001:0006f6e5       ?EndDialog@CPropertySheet@@QAEXH@Z 5f4706e5 f
 0001:0006f719       ?OnClose@CPropertySheet@@IAEXXZ 5f470719 f
 0001:0006f732       ?OnSysCommand@CPropertySheet@@IAEXIJ@Z 5f470732 f
 0001:0006f76a       ?OnInitDialog@CPropertySheet@@UAEHXZ 5f47076a f
 0001:0006f945       ?OnNcCreate@CPropertySheet@@IAEHPAUtagCREATESTRUCTA@@@Z 5f470945 f
 0001:0006f961       ?HandleInitDialog@CPropertySheet@@IAEJIJ@Z 5f470961 f
 0001:0006f96c       ?OnCommand@CPropertySheet@@UAEHIJ@Z 5f47096c f
 0001:0006f9dd       ?OnCommandHelp@CPropertySheet@@IAEJIJ@Z 5f4709dd f
 0001:0006f9fb       ?OnCtlColor@CPropertySheet@@IAEPAUHBRUSH__@@PAVCDC@@PAVCWnd@@I@Z 5f4709fb f
 0001:0006fa6c       ??0CPropertyPageEx@@QAE@IIII@Z 5f470a6c f
 0001:0006fad0       ??_GCPropertyPageEx@@UAEPAXI@Z 5f470ad0 f
 0001:0006fad0       ??_ECPropertyPageEx@@UAEPAXI@Z 5f470ad0 f
 0001:0006faec       ??1CPropertyPageEx@@UAE@XZ 5f470aec f
 0001:0006fb36       ??0CPropertyPageEx@@QAE@PBDIII@Z 5f470b36 f
 0001:0006fb98       ?Construct@CPropertyPageEx@@QAEXIIII@Z 5f470b98 f
 0001:0006fbb2       ?Construct@CPropertyPageEx@@QAEXPBDIII@Z 5f470bb2 f
 0001:0006fbca       ??0CPropertyPageEx@@QAE@XZ 5f470bca f
 0001:0006fc25       ?CommonConstruct@CPropertyPageEx@@IAEXPBDIII@Z 5f470c25 f
 0001:0006fcec       ??0CPropertySheetEx@@QAE@XZ 5f470cec f
 0001:0006fd28       ??_GCPropertySheetEx@@UAEPAXI@Z 5f470d28 f
 0001:0006fd28       ??_ECPropertySheetEx@@UAEPAXI@Z 5f470d28 f
 0001:0006fd44       ??0CPropertySheetEx@@QAE@IPAVCWnd@@IPAUHBITMAP__@@PAUHPALETTE__@@1@Z 5f470d44 f
 0001:0006fd96       ??0CPropertySheetEx@@QAE@PBDPAVCWnd@@IPAUHBITMAP__@@PAUHPALETTE__@@2@Z 5f470d96 f
 0001:0006fde8       ?Construct@CPropertySheetEx@@QAEXIPAVCWnd@@IPAUHBITMAP__@@PAUHPALETTE__@@1@Z 5f470de8 f
 0001:0006fe14       ?Construct@CPropertySheetEx@@QAEXPBDPAVCWnd@@IPAUHBITMAP__@@PAUHPALETTE__@@2@Z 5f470e14 f
 0001:0006fe40       ?CommonConstruct@CPropertySheetEx@@QAEXPAVCWnd@@IPAUHBITMAP__@@PAUHPALETTE__@@1@Z 5f470e40 f
 0001:0006feeb       ?BuildPropPageArray@CPropertySheetEx@@UAEXXZ 5f470eeb f
 0001:0006ffbb       ??1CPropertySheetEx@@UAE@XZ 5f470fbb f
 0001:0006fffa       ?AddPage@CPropertySheetEx@@QAEXPAVCPropertyPageEx@@@Z 5f470ffa f
 0001:000700ed       ?DPtoHIMETRIC@CDC@@QBEXPAUtagSIZE@@@Z 5f4710ed f
 0001:0007017b       ?HIMETRICtoDP@CDC@@QBEXPAUtagSIZE@@@Z 5f47117b f
 0001:00070209       ?LPtoHIMETRIC@CDC@@QBEXPAUtagSIZE@@@Z 5f471209 f
 0001:00070224       ?HIMETRICtoLP@CDC@@QBEXPAUtagSIZE@@@Z 5f471224 f
 0001:0007023f       ?GetHalftoneBrush@CDC@@SGPAVCBrush@@XZ 5f47123f f
 0001:000702b2       ?DrawDragRect@CDC@@QAEXPBUtagRECT@@UtagSIZE@@01PAVCBrush@@2@Z 5f4712b2 f
 0001:000705c7       ?CreatePointFont@CFont@@QAEHHPBDPAVCDC@@@Z 5f4715c7 f
 0001:0007060c       ?CreatePointFontIndirect@CFont@@QAEHPBUtagLOGFONTA@@PAVCDC@@@Z 5f47160c f
 0001:000706b1       ?NormalizeRect@CRect@@QAEXXZ 5f4716b1 f
 0001:000706d0       ?InflateRect@CRect@@QAEXPBUtagRECT@@@Z 5f4716d0 f
 0001:000706ed       ?InflateRect@CRect@@QAEXHHHH@Z 5f4716ed f
 0001:0007070b       ?DeflateRect@CRect@@QAEXPBUtagRECT@@@Z 5f47170b f
 0001:00070728       ?DeflateRect@CRect@@QAEXHHHH@Z 5f471728 f
 0001:00070746       ?MulDiv@CRect@@QBE?AV1@HH@Z 5f471746 f
 0001:000707a5       ?GetMessageMap@CEditView@@MBEPBUAFX_MSGMAP@@XZ 5f4717a5 f
 0001:000707ab       ??_G_AFX_EDIT_STATE@@UAEPAXI@Z 5f4717ab f
 0001:000707ab       ??_E_AFX_EDIT_STATE@@UAEPAXI@Z 5f4717ab f
 0001:000707c6       ??0CEditView@@QAE@XZ       5f4717c6 f
 0001:00070819       ??_GCEditView@@UAEPAXI@Z   5f471819 f
 0001:00070819       ??_ECEditView@@UAEPAXI@Z   5f471819 f
 0001:00070835       ??1CEditView@@UAE@XZ       5f471835 f
 0001:0007088f       ?PreCreateWindow@CEditView@@MAEHAAUtagCREATESTRUCTA@@@Z 5f47188f f
 0001:000708a2       ?OnCreate@CEditView@@IAEHPAUtagCREATESTRUCTA@@@Z 5f4718a2 f
 0001:000708e6       ?OnDestroy@CEditView@@IAEXXZ 5f4718e6 f
 0001:00070905       ?CalcWindowRect@CEditView@@MAEXPAUtagRECT@@I@Z 5f471905 f
 0001:00070961       ?DeleteContents@CEditView@@UAEXXZ 5f471961 f
 0001:00070969       ?Serialize@CEditView@@UAEXAAVCArchive@@@Z 5f471969 f
 0001:000709c1       ?ReadFromArchive@CEditView@@QAEXAAVCArchive@@I@Z 5f4719c1 f
 0001:00070aaa       ?WriteToArchive@CEditView@@QAEXAAVCArchive@@@Z 5f471aaa f
 0001:00070b0b       ?SerializeRaw@CEditView@@QAEXAAVCArchive@@@Z 5f471b0b f
 0001:00070b59       ?_AfxEndOfLine@@YGIPBDII@Z 5f471b59 f
 0001:00070b7a       ?_AfxNextLine@@YGIPBDII@Z  5f471b7a f
 0001:00070ba7       ?_AfxClipLine@@YGIPAVCDC@@QAHHHPBDII@Z 5f471ba7 f
 0001:00070cd3       ?OnPreparePrinting@CEditView@@MAEHPAUCPrintInfo@@@Z 5f471cd3 f
 0001:00070cdf       ?OnBeginPrinting@CEditView@@MAEXPAVCDC@@PAUCPrintInfo@@@Z 5f471cdf f
 0001:00070db9       ?PaginateTo@CEditView@@IAEHPAVCDC@@PAUCPrintInfo@@@Z 5f471db9 f
 0001:00070e8c       ?OnPrepareDC@CEditView@@UAEXPAVCDC@@PAUCPrintInfo@@@Z 5f471e8c f
 0001:00070eae       ?PrintInsideRect@CEditView@@QAEIPAVCDC@@AAUtagRECT@@II@Z 5f471eae f
 0001:00071193       ?OnPrint@CEditView@@MAEXPAVCDC@@PAUCPrintInfo@@@Z 5f472193 f
 0001:00071228       ?OnEndPrinting@CEditView@@MAEXPAVCDC@@PAUCPrintInfo@@@Z 5f472228 f
 0001:00071254       ?OnUpdateNeedSel@CEditView@@IAEXPAVCCmdUI@@@Z 5f472254 f
 0001:00071288       ?OnUpdateNeedClip@CEditView@@IAEXPAVCCmdUI@@@Z 5f472288 f
 0001:000712a2       ?OnUpdateNeedText@CEditView@@IAEXPAVCCmdUI@@@Z 5f4722a2 f
 0001:000712bf       ?OnUpdateNeedFind@CEditView@@IAEXPAVCCmdUI@@@Z 5f4722bf f
 0001:000712fd       ?OnEditChange@CEditView@@IAEHXZ 5f4722fd f
 0001:0007130a       ?OnEditPaste@CEditView@@IAEXXZ 5f47230a f
 0001:0007131d       ?OnEditUndo@CEditView@@IAEXXZ 5f47231d f
 0001:00071330       ?OnEditSelectAll@CEditView@@IAEXXZ 5f472330 f
 0001:00071359       ?OnSetFont@CEditView@@IAEJIJ@Z 5f472359 f
 0001:0007137b       ?SetPrinterFont@CEditView@@QAEXPAVCFont@@@Z 5f47237b f
 0001:0007138c       ?GetPrinterFont@CEditView@@QBEPAVCFont@@XZ 5f47238c f
 0001:00071395       ?LockBuffer@CEditView@@QBEPBDXZ 5f472395 f
 0001:00071423       ?UnlockBuffer@CEditView@@QBEXXZ 5f472423 f
 0001:00071445       ?GetBufferLength@CEditView@@QBEIXZ 5f472445 f
 0001:00071463       ?GetSelectedText@CEditView@@QBEXAAVCString@@@Z 5f472463 f
 0001:000714cc       ?OnEditFind@CEditView@@IAEXXZ 5f4724cc f
 0001:000714d4       ?OnEditReplace@CEditView@@IAEXXZ 5f4724d4 f
 0001:000714dc       ?OnEditRepeat@CEditView@@IAEXXZ 5f4724dc f
 0001:00071516       ?OnEditFindReplace@CEditView@@IAEXH@Z 5f472516 f
 0001:0007164e       ?OnFindNext@CEditView@@MAEXPBDHH@Z 5f47264e f
 0001:000716a2       ?OnReplaceSel@CEditView@@MAEXPBDHH0@Z 5f4726a2 f
 0001:00071719       ?OnReplaceAll@CEditView@@MAEXPBD0H@Z 5f472719 f
 0001:000717a3       ?InitializeReplace@CEditView@@IAEHXZ 5f4727a3 f
 0001:0007181f       ?OnFindReplaceCmd@CEditView@@IAEJIJ@Z 5f47281f f
 0001:0007195f       ?SameAsSelected@CEditView@@IAEHPBDH@Z 5f47295f f
 0001:000719f9       ?FindTextA@CEditView@@QAEHPBDHH@Z 5f4729f9 f
 0001:00071ca4       ?OnTextNotFound@CEditView@@MAEXPBD@Z 5f472ca4 f
 0001:00071caf       ?SetTabStops@CEditView@@QAEXH@Z 5f472caf f
 0001:00071cdd       ?GetMessageMap@CListView@@MBEPBUAFX_MSGMAP@@XZ 5f472cdd f
 0001:00071ce3       ?OnChildNotify@CListView@@MAEHIIJPAJ@Z 5f472ce3 f
 0001:00071d11       ?RemoveImageList@CListView@@IAEXH@Z 5f472d11 f
 0001:00071d4a       ?OnNcDestroy@CListView@@QAEXXZ 5f472d4a f
 0001:00071d6f       ?GetMessageMap@CTreeView@@MBEPBUAFX_MSGMAP@@XZ 5f472d6f f
 0001:00071d75       ?PreCreateWindow@CTreeView@@UAEHAAUtagCREATESTRUCTA@@@Z 5f472d75 f
 0001:00071d81       ?RemoveImageList@CTreeView@@IAEXH@Z 5f472d81 f
 0001:00071dba       ?OnDestroy@CTreeView@@QAEXXZ 5f472dba f
 0001:00071e23       ??0CReObject@@QAE@XZ       5f472e23 f
 0001:00071e40       ??0CReObject@@QAE@PAVCRichEditCntrItem@@@Z 5f472e40 f
 0001:00071ea5       ?GetMessageMap@CRichEditView@@MBEPBUAFX_MSGMAP@@XZ 5f472ea5 f
 0001:00071eab       ??1CRichEditView@@UAE@XZ   5f472eab f
 0001:00071fa2       ?OnBeginPrinting@CRichEditView@@MAEXPAVCDC@@PAUCPrintInfo@@@Z 5f472fa2 f
 0001:00071fce       ?PaginateTo@CRichEditView@@IAEHPAVCDC@@PAUCPrintInfo@@@Z 5f472fce f
 0001:000720a7       ?OnPrepareDC@CRichEditView@@UAEXPAVCDC@@PAUCPrintInfo@@@Z 5f4730a7 f
 0001:000720de       ?PrintPage@CRichEditView@@QAEJPAVCDC@@JJ@Z 5f4730de f
 0001:000721ae       ?PrintInsideRect@CRichEditView@@QAEJPAVCDC@@AAUtagRECT@@JJH@Z 5f4731ae f
 0001:0007226d       ?OnPrint@CRichEditView@@MAEXPAVCDC@@PAUCPrintInfo@@@Z 5f47326d f
 0001:000722e5       ?OnEndPrinting@CRichEditView@@MAEXPAVCDC@@PAUCPrintInfo@@@Z 5f4732e5 f
 0001:0007230d       ?_GetBaseInterfaceMap@CRichEditView@@KGPBUAFX_INTERFACEMAP@@XZ 5f47330d f
 0001:00072313       ?GetInterfaceMap@CRichEditView@@MBEPBUAFX_INTERFACEMAP@@XZ 5f473313 f
 0001:00072319       ?QueryInterface@XRichEditOleCallback@CRichEditView@@UAGJABU_GUID@@PAPAX@Z 5f473319 f
 0001:00072333       ?GetNewStorage@XRichEditOleCallback@CRichEditView@@UAGJPAPAUIStorage@@@Z 5f473333 f
 0001:000723a7       ?GetInPlaceContext@XRichEditOleCallback@CRichEditView@@UAGJPAPAUIOleInPlaceFrame@@PAPAUIOleInPlaceUIWindow@@PAUtagOIFI@@@Z 5f4733a7 f
 0001:000723f7       ?ShowContainerUI@XRichEditOleCallback@CRichEditView@@UAGJH@Z 5f4733f7 f
 0001:00072441       ?QueryInsertObject@XRichEditOleCallback@CRichEditView@@UAGJPAU_GUID@@PAUIStorage@@J@Z 5f473441 f
 0001:00072478       ?DeleteObject@XRichEditOleCallback@CRichEditView@@UAGJPAUIOleObject@@@Z 5f473478 f
 0001:00072491       ?QueryAcceptData@XRichEditOleCallback@CRichEditView@@UAGJPAUIDataObject@@PAGKHPAX@Z 5f473491 f
 0001:000724ea       ?ContextSensitiveHelp@XRichEditOleCallback@CRichEditView@@UAGJH@Z 5f4734ea f
 0001:000724f2       ?GetClipboardData@XRichEditOleCallback@CRichEditView@@UAGJPAU_charrange@@KPAPAUIDataObject@@@Z 5f4734f2 f
 0001:00072588       ?GetDragDropEffect@XRichEditOleCallback@CRichEditView@@UAGJHKPAK@Z 5f473588 f
 0001:000725bf       ?GetContextMenu@XRichEditOleCallback@CRichEditView@@UAGJGPAUIOleObject@@PAU_charrange@@PAPAUHMENU__@@@Z 5f4735bf f
 0001:00072624       ?OnCharEffect@CRichEditView@@QAEXKK@Z 5f473624 f
 0001:00072677       ?OnParaAlign@CRichEditView@@QAEXG@Z 5f473677 f
 0001:000726af       ?OnUpdateNeedFind@CRichEditView@@IAEXPAVCCmdUI@@@Z 5f4736af f
 0001:000726f5       ?OnEditCut@CRichEditView@@IAEXXZ 5f4736f5 f
 0001:00072708       ?OnEditCopy@CRichEditView@@IAEXXZ 5f473708 f
 0001:0007271b       ?OnEditPaste@CRichEditView@@IAEXXZ 5f47371b f
 0001:00072731       ?OnEditClear@CRichEditView@@IAEXXZ 5f473731 f
 0001:00072744       ?OnEditUndo@CRichEditView@@IAEXXZ 5f473744 f
 0001:0007276a       ?OnEditSelectAll@CRichEditView@@IAEXXZ 5f47376a f
 0001:00072774       ?OnEditFind@CRichEditView@@IAEXXZ 5f473774 f
 0001:0007277c       ?OnEditReplace@CRichEditView@@IAEXXZ 5f47377c f
 0001:00072784       ?OnEditRepeat@CRichEditView@@IAEXXZ 5f473784 f
 0001:000727b2       ?OnInsertObject@CRichEditView@@IAEXXZ 5f4737b2 f
 0001:000728cf       ?OnEditProperties@CRichEditView@@IAEXXZ 5f4738cf f
 0001:0007295f       ?OnUpdateEditProperties@CRichEditView@@IAEXPAVCCmdUI@@@Z 5f47395f f
 0001:0007297c       ?OnCharBold@CRichEditView@@IAEXXZ 5f47397c f
 0001:00072986       ?OnCharItalic@CRichEditView@@IAEXXZ 5f473986 f
 0001:00072990       ?OnCharUnderline@CRichEditView@@IAEXXZ 5f473990 f
 0001:0007299a       ?OnParaCenter@CRichEditView@@IAEXXZ 5f47399a f
 0001:000729a2       ?OnParaLeft@CRichEditView@@IAEXXZ 5f4739a2 f
 0001:000729aa       ?OnParaRight@CRichEditView@@IAEXXZ 5f4739aa f
 0001:000729b2       ?OnBullet@CRichEditView@@IAEXXZ 5f4739b2 f
 0001:00072a2d       ?OnFormatFont@CRichEditView@@IAEXXZ 5f473a2d f
 0001:00072ab0       ?OnColorPick@CRichEditView@@IAEXK@Z 5f473ab0 f
 0001:00072af2       ?OnColorDefault@CRichEditView@@IAEXXZ 5f473af2 f
 0001:00072b28       ?OnEditPasteSpecial@CRichEditView@@IAEXXZ 5f473b28 f
 0001:00072c90       ?OnDropFiles@CRichEditView@@IAEXPAUHDROP__@@@Z 5f473c90 f
 0001:00072d59       ?OnDevModeChange@CRichEditView@@IAEXPAD@Z 5f473d59 f
 0001:00072db1       ?IsRichEditFormat@CRichEditView@@SAHG@Z 5f473db1 f
 0001:00072e4f       ?SetCharFormat@CRichEditView@@QAEXU_charformat@@@Z 5f473e4f f
 0001:00072ea2       ?SetParaFormat@CRichEditView@@QAEHAAU_paraformat@@@Z 5f473ea2 f
 0001:00072efa       ?GetSelectedItem@CRichEditView@@QBEPAVCRichEditCntrItem@@XZ 5f473efa f
 0001:00072f6e       ?GetInPlaceActiveItem@CRichEditView@@QBEPAVCRichEditCntrItem@@XZ 5f473f6e f
 0001:00072fe8       ?InsertItem@CRichEditView@@QAEJPAVCRichEditCntrItem@@@Z 5f473fe8 f
 0001:00073068       ?InsertFileAsObject@CRichEditView@@QAEXPBD@Z 5f474068 f
 0001:00073138       ?DoPaste@CRichEditView@@QAEXAAVCOleDataObject@@GPAX@Z 5f474138 f
 0001:00073303       ?OnPrinterChanged@CRichEditView@@MAEXABVCDC@@@Z 5f474303 f
 0001:000733ac       ?GetContextMenu@CRichEditView@@MAEPAUHMENU__@@GPAUIOleObject@@PAU_charrange@@@Z 5f4743ac f
 0001:000733b1       ?GetClipboardData@CRichEditView@@MAEJPAU_charrange@@KPAUIDataObject@@PAPAU3@@Z 5f4743b1 f
 0001:000733b9       ?QueryAcceptData@CRichEditView@@MAEJPAUIDataObject@@PAGKHPAX@Z 5f4743b9 f
 0001:00073485       ?GetWindowContext@CRichEditView@@QAEJPAPAUIOleInPlaceFrame@@PAPAUIOleInPlaceUIWindow@@PAUtagOIFI@@@Z 5f474485 f
 0001:000734ba       ?ShowContainerUI@CRichEditView@@QAEJH@Z 5f4744ba f
 0001:000734f6       ?AdjustDialogPosition@CRichEditView@@QAEXPAVCDialog@@@Z 5f4744f6 f
 0001:000735c0       ?OnEditFindReplace@CRichEditView@@IAEXH@Z 5f4745c0 f
 0001:00073712       ?OnFindNext@CRichEditView@@MAEXPBDHHH@Z 5f474712 f
 0001:00073772       ?OnReplaceSel@CRichEditView@@MAEXPBDHHH0@Z 5f474772 f
 0001:00073823       ?OnReplaceAll@CRichEditView@@MAEXPBD0HH@Z 5f474823 f
 0001:00073918       ?OnFindReplaceCmd@CRichEditView@@IAEJIJ@Z 5f474918 f
 0001:00073a78       ?SameAsSelected@CRichEditView@@IAEHPBDHH@Z 5f474a78 f
 0001:00073ae7       ?FindTextA@CRichEditView@@QAEHPAV_AFX_RICHEDIT_STATE@@@Z 5f474ae7 f
 0001:00073afd       ?FindTextA@CRichEditView@@QAEHPBDHH@Z 5f474afd f
 0001:00073b4f       ?FindTextSimple@CRichEditView@@QAEHPAV_AFX_RICHEDIT_STATE@@@Z 5f474b4f f
 0001:00073b65       ?FindTextSimple@CRichEditView@@QAEHPBDHH@Z 5f474b65 f
 0001:00073c58       ?FindAndSelect@CRichEditView@@QAEJKAAU_findtextexa@@@Z 5f474c58 f
 0001:00073c99       ?TextNotFound@CRichEditView@@QAEXPBD@Z 5f474c99 f
 0001:00073caf       ?OnTextNotFound@CRichEditView@@MAEXPBD@Z 5f474caf f
 0001:00073cba       ?IsSelected@CRichEditView@@MBEHPBVCObject@@@Z 5f474cba f
 0001:00073ccd       ??_ECRichEditDoc@@UAEPAXI@Z 5f474ccd f
 0001:00073ccd       ??_GCRichEditDoc@@UAEPAXI@Z 5f474ccd f
 0001:00073ce9       ??1CRichEditDoc@@UAE@XZ    5f474ce9 f
 0001:00073cfc       ?GetInPlaceActiveItem@CRichEditDoc@@UAEPAVCOleClientItem@@PAVCWnd@@@Z 5f474cfc f
 0001:00073d08       ?LookupItem@CRichEditDoc@@QBEPAVCRichEditCntrItem@@PAUIOleObject@@@Z 5f474d08 f
 0001:00073d53       ?CreateClientItem@CRichEditDoc@@UBEPAVCRichEditCntrItem@@PAU_reobject@@@Z 5f474d53 f
 0001:00073d92       ?MarkItemsClear@CRichEditDoc@@IBEXXZ 5f474d92 f
 0001:00073dd8       ?DeleteUnmarkedItems@CRichEditDoc@@IBEXXZ 5f474dd8 f
 0001:00073e39       ?UpdateObjectCache@CRichEditDoc@@IAEXXZ 5f474e39 f
 0001:00073efc       ?GetPrimarySelectedItem@CRichEditDoc@@UAEPAVCOleClientItem@@PAVCView@@@Z 5f474efc f
 0001:00073f57       ??0CRichEditCntrItem@@QAE@PAU_reobject@@PAVCRichEditDoc@@@Z 5f474f57 f
 0001:00073fd4       ??1CRichEditCntrItem@@UAE@XZ 5f474fd4 f
 0001:00074014       ?OnDeactivateUI@CRichEditCntrItem@@UAEXH@Z 5f475014 f
 0001:00074047       ?ShowContainerUI@CRichEditCntrItem@@QAEJH@Z 5f475047 f
 0001:00074094       ?CanActivate@CRichEditCntrItem@@UAEHXZ 5f475094 f
 0001:000740c0       ?GetWindowContext@CRichEditCntrItem@@QAEJPAPAUIOleInPlaceFrame@@PAPAUIOleInPlaceUIWindow@@PAUtagOIFI@@@Z 5f4750c0 f
 0001:000740fc       ?ConvertTo@CRichEditCntrItem@@UAEHABU_GUID@@@Z 5f4750fc f
 0001:00074186       ?ActivateAs@CRichEditCntrItem@@UAEHPBDABU_GUID@@1@Z 5f475186 f
 0001:000741ae       ?SetDrawAspect@CRichEditCntrItem@@UAEXW4tagDVASPECT@@@Z 5f4751ae f
 0001:000741da       ?SyncToRichEditObject@CRichEditCntrItem@@QAEXAAU_reobject@@@Z 5f4751da f
 0001:000741e9       ?GetClientSite@CRichEditCntrItem@@UAEPAUIOleClientSite@@XZ 5f4751e9 f
 0001:00074231       ?OutputString@CDumpContext@@IAEXPBD@Z 5f475231 f
 0001:00074264       ??0CDumpContext@@QAE@PAVCFile@@@Z 5f475264 f
 0001:00074273       ?Flush@CDumpContext@@QAEXXZ 5f475273 f
 0001:00074280       ??6CDumpContext@@QAEAAV0@PBD@Z 5f475280 f
 0001:00074309       ??6CDumpContext@@QAEAAV0@E@Z 5f475309 f
 0001:0007433b       ??6CDumpContext@@QAEAAV0@G@Z 5f47533b f
 0001:0007436d       ??6CDumpContext@@QAEAAV0@I@Z 5f47536d f
 0001:0007439d       ??6CDumpContext@@QAEAAV0@J@Z 5f47539d f
 0001:000743cd       ??6CDumpContext@@QAEAAV0@K@Z 5f4753cd f
 0001:000743fd       ??6CDumpContext@@QAEAAV0@H@Z 5f4753fd f
 0001:0007442d       ??6CDumpContext@@QAEAAV0@PBVCObject@@@Z 5f47542d f
 0001:00074452       ??6CDumpContext@@QAEAAV0@ABVCObject@@@Z 5f475452 f
 0001:0007445e       ??6CDumpContext@@QAEAAV0@PBX@Z 5f47545e f
 0001:0007448e       ?HexDump@CDumpContext@@QAEXPBDPAEHH@Z 5f47548e f
 0001:00074521       ??6CDumpContext@@QAEAAV0@PBG@Z 5f475521 f
 0001:0007456b       ??1CIPAddressCtrl@@UAE@XZ  5f47556b f
 0001:000745a3       ?Create@CIPAddressCtrl@@QAEHKABUtagRECT@@PAVCWnd@@I@Z 5f4755a3 f
 0001:000745d4       ?GetAddress@CIPAddressCtrl@@QAEHAAE000@Z 5f4755d4 f
 0001:00074618       ?_AfxParseURLWorker@@YGHPBDPAUURL_COMPONENTSA@@AAKAAGK@Z 5f475618 f
 0001:00074749       ?AfxParseURLEx@@YGHPBDAAKAAVCString@@2AAG22K@Z 5f475749 f
 0001:00074816       ?AfxParseURL@@YGHPBDAAKAAVCString@@2AAG@Z 5f475816 f
 0001:000748a4       ?AfxGetInternetHandleType@@YGKPAX@Z 5f4758a4 f
 0001:000748d8       ?_AfxQueryCStringInternetOption@@YGHPAXKAAVCString@@@Z 5f4758d8 f
 0001:00074940       ?AfxInternetStatusCallback@@YGXPAXKK0K@Z 5f475940 f
 0001:00074970       ?Lookup@CSessionMapPtrToPtr@@QAEHPAXAAPAVCInternetSession@@@Z 5f475970 f
 0001:0007499e       ??1CInternetSession@@UAE@XZ 5f47599e f
 0001:000749d1       ??0CInternetSession@@QAE@PBDKK00K@Z 5f4759d1 f
 0001:00074a4b       ?SetAt@CSessionMapPtrToPtr@@QAEXPAXPAVCInternetSession@@@Z 5f475a4b f
 0001:00074a76       ?Close@CInternetSession@@UAEXXZ 5f475a76 f
 0001:00074aa7       ?RemoveKey@CSessionMapPtrToPtr@@QAEXPAX@Z 5f475aa7 f
 0001:00074acc       ?GetGopherConnection@CInternetSession@@QAEPAVCGopherConnection@@PBD00G@Z 5f475acc f
 0001:00074b14       ?GetFtpConnection@CInternetSession@@QAEPAVCFtpConnection@@PBD00GH@Z 5f475b14 f
 0001:00074b5f       ?GetHttpConnection@CInternetSession@@QAEPAVCHttpConnection@@PBDG00@Z 5f475b5f f
 0001:00074ba7       ?GetHttpConnection@CInternetSession@@QAEPAVCHttpConnection@@PBDKG00@Z 5f475ba7 f
 0001:00074bf2       ?OpenURL@CInternetSession@@QAEPAVCStdioFile@@PBDKK0K@Z 5f475bf2 f
 0001:00074db8       ?SetOption@CInternetSession@@QAEHKPAXKK@Z 5f475db8 f
 0001:00074dd4       ?QueryOption@CInternetSession@@QBEHKPAXPAK@Z 5f475dd4 f
 0001:00074dec       ?QueryOption@CInternetSession@@QBEHKAAK@Z 5f475dec f
 0001:00074e0e       ?QueryOption@CInternetSession@@QBEHKAAVCString@@@Z 5f475e0e f
 0001:00074e21       ?OnStatusCallback@CInternetSession@@UAEXKKPAXK@Z 5f475e21 f
 0001:00074e40       ?EnableStatusCallback@CInternetSession@@QAEHH@Z 5f475e40 f
 0001:00074e9c       ?SetCookie@CInternetSession@@SAHPBD00@Z 5f475e9c f
 0001:00074eaf       ?GetCookie@CInternetSession@@SAHPBD0PADK@Z 5f475eaf f
 0001:00074ec7       ?GetCookieLength@CInternetSession@@SAKPBD0@Z 5f475ec7 f
 0001:00074ee8       ?GetCookie@CInternetSession@@SAHPBD0AAVCString@@@Z 5f475ee8 f
 0001:00074f36       ??0CInternetFile@@IAE@PAX0PBD1KH@Z 5f475f36 f
 0001:00074fb6       ??_GCInternetFile@@UAEPAXI@Z 5f475fb6 f
 0001:00074fb6       ??_ECInternetFile@@UAEPAXI@Z 5f475fb6 f
 0001:00074fd2       ??0CInternetFile@@IAE@PAXPBDPAVCInternetConnection@@H@Z 5f475fd2 f
 0001:0007507d       ?QueryOption@CInternetFile@@QBEHKPAXPAK@Z 5f47607d f
 0001:00075095       ?QueryOption@CInternetFile@@QBEHKAAK@Z 5f476095 f
 0001:000750b7       ?QueryOption@CInternetFile@@QBEHKAAVCString@@@Z 5f4760b7 f
 0001:000750ca       ?SetOption@CInternetFile@@QAEHKPAXKK@Z 5f4760ca f
 0001:000750e6       ?SetReadBufferSize@CInternetFile@@QAEHI@Z 5f4760e6 f
 0001:00075186       ?SetWriteBufferSize@CInternetFile@@QAEHI@Z 5f476186 f
 0001:000751ee       ?Seek@CInternetFile@@UAEJJI@Z 5f4761ee f
 0001:0007525a       ?Abort@CInternetFile@@UAEXXZ 5f47625a f
 0001:00075272       ?Flush@CInternetFile@@UAEXXZ 5f476272 f
 0001:000752bc       ?Read@CInternetFile@@UAEIPAXI@Z 5f4762bc f
 0001:000753e3       ?Write@CInternetFile@@UAEXPBXI@Z 5f4763e3 f
 0001:000754a0       ?WriteString@CInternetFile@@UAEXPBD@Z 5f4764a0 f
 0001:000754cf       ?ReadString@CInternetFile@@UAEPADPADI@Z 5f4764cf f
 0001:00075591       ?ReadString@CInternetFile@@UAEHAAVCString@@@Z 5f476591 f
 0001:0007563c       ?GetLength@CInternetFile@@UBEKXZ 5f47663c f
 0001:00075666       ?Duplicate@CInternetFile@@UBEPAVCFile@@XZ 5f476666 f
 0001:0007566e       ??0CInternetConnection@@QAE@PAVCInternetSession@@PBDGK@Z 5f47666e f
 0001:000756cb       ??_ECInternetConnection@@UAEPAXI@Z 5f4766cb f
 0001:000756cb       ??_GCInternetConnection@@UAEPAXI@Z 5f4766cb f
 0001:000756e7       ?SetOption@CInternetConnection@@QAEHKPAXKK@Z 5f4766e7 f
 0001:00075703       ?QueryOption@CInternetConnection@@QBEHKPAXPAK@Z 5f476703 f
 0001:0007571b       ?QueryOption@CInternetConnection@@QBEHKAAK@Z 5f47671b f
 0001:0007573d       ?QueryOption@CInternetConnection@@QBEHKAAVCString@@@Z 5f47673d f
 0001:00075750       ??1CFtpConnection@@UAE@XZ  5f476750 f
 0001:0007578b       ??_ECFtpConnection@@UAEPAXI@Z 5f47678b f
 0001:0007578b       ??_GCFtpConnection@@UAEPAXI@Z 5f47678b f
 0001:000757a7       ??0CFtpConnection@@QAE@PAVCInternetSession@@PAXPBDK@Z 5f4767a7 f
 0001:0007583e       ??0CFtpConnection@@QAE@PAVCInternetSession@@PBD11KGH@Z 5f47683e f
 0001:000758e6       ?Close@CFtpConnection@@UAEXXZ 5f4768e6 f
 0001:000758e6       ?Close@CInternetConnection@@MAEXXZ 5f4768e6 f
 0001:0007590a       ?Remove@CFtpConnection@@QAEHPBD@Z 5f47690a f
 0001:0007591a       ?Rename@CFtpConnection@@QAEHPBD0@Z 5f47691a f
 0001:0007592e       ?CreateDirectoryA@CFtpConnection@@QAEHPBD@Z 5f47692e f
 0001:0007593e       ?RemoveDirectoryA@CFtpConnection@@QAEHPBD@Z 5f47693e f
 0001:0007594e       ?SetCurrentDirectoryA@CFtpConnection@@QAEHPBD@Z 5f47694e f
 0001:0007595e       ?GetCurrentDirectoryA@CFtpConnection@@QBEHPADPAK@Z 5f47695e f
 0001:00075972       ?GetCurrentDirectoryAsURL@CFtpConnection@@QBEHAAVCString@@@Z 5f476972 f
 0001:00075a10       ?GetCurrentDirectoryAsURL@CFtpConnection@@QBEHPADPAK@Z 5f476a10 f
 0001:00075a86       ?GetCurrentDirectoryA@CFtpConnection@@QBEHAAVCString@@@Z 5f476a86 f
 0001:00075ac8       ?OpenFile@CFtpConnection@@QAEPAVCInternetFile@@PBDKKK@Z 5f476ac8 f
 0001:00075b43       ?PutFile@CFtpConnection@@QAEHPBD0KK@Z 5f476b43 f
 0001:00075b68       ?GetFile@CFtpConnection@@QAEHPBD0HKKK@Z 5f476b68 f
 0001:00075b93       ??1CGopherConnection@@UAE@XZ 5f476b93 f
 0001:00075b99       ??1CInternetConnection@@UAE@XZ 5f476b99 f
 0001:00075be1       ??_ECGopherConnection@@UAEPAXI@Z 5f476be1 f
 0001:00075be1       ??_GCGopherConnection@@UAEPAXI@Z 5f476be1 f
 0001:00075bfd       ??0CGopherConnection@@QAE@PAVCInternetSession@@PBD11KG@Z 5f476bfd f
 0001:00075c7a       ??0CGopherConnection@@QAE@PAVCInternetSession@@PAXPBDK@Z 5f476c7a f
 0001:00075cf7       ?CreateLocator@CGopherConnection@@SA?AVCGopherLocator@@PBD@Z 5f476cf7 f
 0001:00075d4f       ?CreateLocator@CGopherConnection@@SA?AVCGopherLocator@@PBD00KG@Z 5f476d4f f
 0001:00075dd9       ?CreateLocator@CGopherConnection@@QAE?AVCGopherLocator@@PBD0K@Z 5f476dd9 f
 0001:00075e6c       ?GetAttribute@CGopherConnection@@QAEHAAVCGopherLocator@@VCString@@AAV3@@Z 5f476e6c f
 0001:00075ee2       ?OpenFile@CGopherConnection@@QAEPAVCGopherFile@@AAVCGopherLocator@@KPBDK@Z 5f476ee2 f
 0001:00075f55       ??1CHttpConnection@@UAE@XZ 5f476f55 f
 0001:00075f90       ??_GCHttpConnection@@UAEPAXI@Z 5f476f90 f
 0001:00075f90       ??_ECHttpConnection@@UAEPAXI@Z 5f476f90 f
 0001:00075fac       ??0CHttpConnection@@QAE@PAVCInternetSession@@PAXPBDK@Z 5f476fac f
 0001:0007602e       ??0CHttpConnection@@QAE@PAVCInternetSession@@PBDG11K@Z 5f47702e f
 0001:000760b7       ??0CHttpConnection@@QAE@PAVCInternetSession@@PBDKG11K@Z 5f4770b7 f
 0001:00076141       ?OpenRequest@CHttpConnection@@QAEPAVCHttpFile@@PBD00KPAPBD0K@Z 5f477141 f
 0001:000761bd       ?OpenRequest@CHttpConnection@@QAEPAVCHttpFile@@HPBD0KPAPBD0K@Z 5f4771bd f
 0001:000761f6       ??0CHttpFile@@IAE@PAX0PBD11K@Z 5f4771f6 f
 0001:00076252       ??_GCHttpFile@@UAEPAXI@Z   5f477252 f
 0001:00076252       ??_ECHttpFile@@UAEPAXI@Z   5f477252 f
 0001:0007626e       ??0CHttpFile@@IAE@PAXPBD1PAVCHttpConnection@@@Z 5f47726e f
 0001:000762c4       ??1CHttpFile@@UAE@XZ       5f4772c4 f
 0001:0007630e       ?Close@CInternetFile@@UAEXXZ 5f47730e f
 0001:0007630e       ?Close@CHttpFile@@UAEXXZ   5f47730e f
 0001:0007635c       ?ErrorDlg@CHttpFile@@QAEKPAVCWnd@@KKPAPAX@Z 5f47735c f
 0001:0007639b       ?GetVerb@CHttpFile@@QBE?AVCString@@XZ 5f47739b f
 0001:000763b6       ?GetObjectA@CHttpFile@@QBE?AVCString@@XZ 5f4773b6 f
 0001:000763d1       ?GetFileURL@CHttpFile@@UBE?AVCString@@XZ 5f4773d1 f
 0001:00076461       ?AddRequestHeaders@CHttpFile@@QAEHPBDKH@Z 5f477461 f
 0001:00076494       ?AddRequestHeaders@CHttpFile@@QAEHAAVCString@@K@Z 5f477494 f
 0001:000764aa       ?SendRequest@CHttpFile@@QAEHPBDKPAXK@Z 5f4774aa f
 0001:000764dd       ?EndRequest@CHttpFile@@QAEHKPAU_INTERNET_BUFFERSA@@K@Z 5f4774dd f
 0001:00076515       ?SendRequestEx@CHttpFile@@QAEHKKK@Z 5f477515 f
 0001:0007655c       ?SendRequestEx@CHttpFile@@QAEHPAU_INTERNET_BUFFERSA@@0KK@Z 5f47755c f
 0001:0007659c       ?SendRequest@CHttpFile@@QAEHAAVCString@@PAXK@Z 5f47759c f
 0001:000765b7       ?QueryInfo@CHttpFile@@QBEHKPAXPAK1@Z 5f4775b7 f
 0001:000765d3       ?QueryInfo@CHttpFile@@QBEHKAAKPAK@Z 5f4775d3 f
 0001:000765fa       ?QueryInfo@CHttpFile@@QBEHKPAU_SYSTEMTIME@@PAK@Z 5f4775fa f
 0001:00076621       ?QueryInfoStatusCode@CHttpFile@@QBEHAAK@Z 5f477621 f
 0001:00076661       ?QueryInfo@CHttpFile@@QBEHKAAVCString@@PAK@Z 5f477661 f
 0001:000766cc       ??0CGopherFile@@IAE@PAXAAVCGopherLocator@@PAVCGopherConnection@@@Z 5f4776cc f
 0001:00076715       ??_GCGopherFile@@UAEPAXI@Z 5f477715 f
 0001:00076715       ??_ECGopherFile@@UAEPAXI@Z 5f477715 f
 0001:00076731       ??0CGopherFile@@IAE@PAX0PBDKK@Z 5f477731 f
 0001:00076782       ??1CGopherFile@@UAE@XZ     5f477782 f
 0001:000767bd       ?Write@CGopherFile@@UAEXPBXI@Z 5f4777bd f
 0001:000767c5       ?WriteString@CGopherFile@@UAEXPBD@Z 5f4777c5 f
 0001:000767cd       ??0CFtpFileFind@@QAE@PAVCFtpConnection@@K@Z 5f4777cd f
 0001:000767fb       ??_ECFtpFileFind@@UAEPAXI@Z 5f4777fb f
 0001:000767fb       ??_GCFtpFileFind@@UAEPAXI@Z 5f4777fb f
 0001:00076817       ??1CFtpFileFind@@UAE@XZ    5f477817 f
 0001:0007681d       ??1CFileFind@@UAE@XZ       5f47781d f
 0001:0007685f       ?FindFile@CFtpFileFind@@UAEHPBDK@Z 5f47785f f
 0001:000769bb       ?FindNextFileA@CFtpFileFind@@UAEHXZ 5f4779bb f
 0001:000769f6       ?CloseContext@CFtpFileFind@@MAEXXZ 5f4779f6 f
 0001:00076a12       ?GetFileURL@CFtpFileFind@@UBE?AVCString@@XZ 5f477a12 f
 0001:00076abd       ??0CGopherFileFind@@QAE@PAVCGopherConnection@@K@Z 5f477abd f
 0001:00076ae7       ??_GCGopherFileFind@@UAEPAXI@Z 5f477ae7 f
 0001:00076ae7       ??_ECGopherFileFind@@UAEPAXI@Z 5f477ae7 f
 0001:00076b03       ??1CGopherFileFind@@UAE@XZ 5f477b03 f
 0001:00076b0e       ?FindFile@CGopherFileFind@@UAEHPBDK@Z 5f477b0e f
 0001:00076b5d       ?FindFile@CGopherFileFind@@UAEHAAVCGopherLocator@@PBDK@Z 5f477b5d f
 0001:00076bc1       ?FindNextFileA@CGopherFileFind@@UAEHXZ 5f477bc1 f
 0001:00076bfc       ?GetFileName@CGopherFileFind@@UBE?AVCString@@XZ 5f477bfc f
 0001:00076c18       ?IsDots@CGopherFileFind@@UBEHXZ 5f477c18 f
 0001:00076c1b       ?GetLastWriteTime@CGopherFileFind@@UBEHPAU_FILETIME@@@Z 5f477c1b f
 0001:00076c45       ?GetLastAccessTime@CGopherFileFind@@UBEHPAU_FILETIME@@@Z 5f477c45 f
 0001:00076c51       ?GetLastWriteTime@CGopherFileFind@@UBEHAAVCTime@@@Z 5f477c51 f
 0001:00076c7e       ?GetCreationTime@CGopherFileFind@@UBEHAAVCTime@@@Z 5f477c7e f
 0001:00076c8a       ?GetLocator@CGopherFileFind@@QBE?AVCGopherLocator@@XZ 5f477c8a f
 0001:00076cac       ?GetScreenName@CGopherFileFind@@QBE?AVCString@@XZ 5f477cac f
 0001:00076d0c       ?GetLength@CGopherFileFind@@UBEKXZ 5f477d0c f
 0001:00076d1d       ?GetLength64@CGopherFileFind@@UBE_JXZ 5f477d1d f
 0001:00076d31       ??0CGopherLocator@@AAE@PBDK@Z 5f477d31 f
 0001:00076d98       ?AfxThrowInternetException@@YGXKK@Z 5f477d98 f
 0001:00076dee       ?GetErrorMessage@CInternetException@@UAEHPADIPAI@Z 5f477dee f
 0001:00076edb       ??0CInternetException@@QAE@K@Z 5f477edb f
 0001:00076ef6       ??_ECInternetException@@UAEPAXI@Z 5f477ef6 f
 0001:00076ef6       ??_GCInternetException@@UAEPAXI@Z 5f477ef6 f
 0001:00076f12       ??1CInternetException@@UAE@XZ 5f477f12 f
 0001:00076f19       ??_GCSessionMapPtrToPtr@@UAEPAXI@Z 5f477f19 f
 0001:00076f19       ??_ECSessionMapPtrToPtr@@UAEPAXI@Z 5f477f19 f
 0001:00076f35       ?GetRuntimeClass@CMemoryException@@UBEPAUCRuntimeClass@@XZ 5f477f35 f
 0001:00076f3b       ?GetRuntimeClass@CNotSupportedException@@UBEPAUCRuntimeClass@@XZ 5f477f3b f
 0001:00076f41       ?GetRuntimeClass@CArchiveException@@UBEPAUCRuntimeClass@@XZ 5f477f41 f
 0001:00076f47       ?GetRuntimeClass@CMemFile@@UBEPAUCRuntimeClass@@XZ 5f477f47 f
 0001:00076f4d       ?GetRuntimeClass@CSharedFile@@UBEPAUCRuntimeClass@@XZ 5f477f4d f
 0001:00076f53       ?GetRuntimeClass@CFileException@@UBEPAUCRuntimeClass@@XZ 5f477f53 f
 0001:00076f59       ?CreateObject@CByteArray@@SGPAVCObject@@XZ 5f477f59 f
 0001:00076f70       ?GetRuntimeClass@CByteArray@@UBEPAUCRuntimeClass@@XZ 5f477f70 f
 0001:00076f76       ??5@YGAAVCArchive@@AAV0@AAPAVCByteArray@@@Z 5f477f76 f
 0001:00076f91       ?CreateObject@CDWordArray@@SGPAVCObject@@XZ 5f477f91 f
 0001:00076fa8       ?GetRuntimeClass@CDWordArray@@UBEPAUCRuntimeClass@@XZ 5f477fa8 f
 0001:00076fae       ??5@YGAAVCArchive@@AAV0@AAPAVCDWordArray@@@Z 5f477fae f
 0001:00076fc9       ?GetRuntimeClass@CPtrArray@@UBEPAUCRuntimeClass@@XZ 5f477fc9 f
 0001:00076fcf       ?CreateObject@CObArray@@SGPAVCObject@@XZ 5f477fcf f
 0001:00076fe6       ?GetRuntimeClass@CObArray@@UBEPAUCRuntimeClass@@XZ 5f477fe6 f
 0001:00076fec       ??5@YGAAVCArchive@@AAV0@AAPAVCObArray@@@Z 5f477fec f
 0001:00077007       ?CreateObject@CStringArray@@SGPAVCObject@@XZ 5f478007 f
 0001:0007701e       ?GetRuntimeClass@CStringArray@@UBEPAUCRuntimeClass@@XZ 5f47801e f
 0001:00077024       ??5@YGAAVCArchive@@AAV0@AAPAVCStringArray@@@Z 5f478024 f
 0001:0007703f       ?GetRuntimeClass@CUIntArray@@UBEPAUCRuntimeClass@@XZ 5f47803f f
 0001:00077045       ?CreateObject@CWordArray@@SGPAVCObject@@XZ 5f478045 f
 0001:0007705c       ?GetRuntimeClass@CWordArray@@UBEPAUCRuntimeClass@@XZ 5f47805c f
 0001:00077062       ??5@YGAAVCArchive@@AAV0@AAPAVCWordArray@@@Z 5f478062 f
 0001:0007707d       ?CreateObject@CObList@@SGPAVCObject@@XZ 5f47807d f
 0001:00077096       ?GetRuntimeClass@CObList@@UBEPAUCRuntimeClass@@XZ 5f478096 f
 0001:0007709c       ??5@YGAAVCArchive@@AAV0@AAPAVCObList@@@Z 5f47809c f
 0001:000770b7       ?GetRuntimeClass@CPtrList@@UBEPAUCRuntimeClass@@XZ 5f4780b7 f
 0001:000770bd       ?CreateObject@CStringList@@SGPAVCObject@@XZ 5f4780bd f
 0001:000770d6       ?GetRuntimeClass@CStringList@@UBEPAUCRuntimeClass@@XZ 5f4780d6 f
 0001:000770dc       ??5@YGAAVCArchive@@AAV0@AAPAVCStringList@@@Z 5f4780dc f
 0001:000770f7       ?GetRuntimeClass@CMapPtrToPtr@@UBEPAUCRuntimeClass@@XZ 5f4780f7 f
 0001:000770fd       ?GetRuntimeClass@CMapPtrToWord@@UBEPAUCRuntimeClass@@XZ 5f4780fd f
 0001:00077103       ?CreateObject@CMapStringToOb@@SGPAVCObject@@XZ 5f478103 f
 0001:0007711c       ?GetRuntimeClass@CMapStringToOb@@UBEPAUCRuntimeClass@@XZ 5f47811c f
 0001:00077122       ??5@YGAAVCArchive@@AAV0@AAPAVCMapStringToOb@@@Z 5f478122 f
 0001:0007713d       ?GetRuntimeClass@CMapStringToPtr@@UBEPAUCRuntimeClass@@XZ 5f47813d f
 0001:00077143       ?CreateObject@CMapStringToString@@SGPAVCObject@@XZ 5f478143 f
 0001:0007715c       ?GetRuntimeClass@CMapStringToString@@UBEPAUCRuntimeClass@@XZ 5f47815c f
 0001:00077162       ??5@YGAAVCArchive@@AAV0@AAPAVCMapStringToString@@@Z 5f478162 f
 0001:0007717d       ?CreateObject@CMapWordToOb@@SGPAVCObject@@XZ 5f47817d f
 0001:00077196       ?GetRuntimeClass@CMapWordToOb@@UBEPAUCRuntimeClass@@XZ 5f478196 f
 0001:0007719c       ??5@YGAAVCArchive@@AAV0@AAPAVCMapWordToOb@@@Z 5f47819c f
 0001:000771b7       ?GetRuntimeClass@CMapWordToPtr@@UBEPAUCRuntimeClass@@XZ 5f4781b7 f
 0001:000771bd       ??1AFX_MAINTAIN_STATE@@QAE@XZ 5f4781bd f
 0001:000771f9       ??_EAFX_MODULE_STATE@@UAEPAXI@Z 5f4781f9 f
 0001:000771f9       ??_GAFX_MODULE_STATE@@UAEPAXI@Z 5f4781f9 f
 0001:00077241       ?RemoveAll@CTypeLibCacheMap@@UAEXPAX@Z 5f478241 f
 0001:00077285       ??1?$CEmbeddedButActsLikePtr@VCMapPtrToPtr@@@@QAE@XZ 5f478285 f
 0001:000772b0       ??1?$CEmbeddedButActsLikePtr@VCPtrList@@@@QAE@XZ 5f4782b0 f
 0001:000772b5       ?AfxGetAppModuleState@@YGPAVAFX_MODULE_STATE@@XZ 5f4782b5 f
 0001:000772c5       ?Unlock@CTypeLibCache@@QAEXXZ 5f4782c5 f
 0001:000773be       ?AssignInstance@CThreadSlotData@@QAEXPAUHINSTANCE__@@@Z 5f4783be f
 0001:0007741b       ?AfxInitLocalData@@YGXPAUHINSTANCE__@@@Z 5f47841b f
 0001:00077431       ?_GetBaseClass@CCriticalSection@@KGPAUCRuntimeClass@@XZ 5f478431 f
 0001:00077437       ?GetRuntimeClass@CCriticalSection@@UBEPAUCRuntimeClass@@XZ 5f478437 f
 0001:0007743d       ?GetRuntimeClass@CEvent@@UBEPAUCRuntimeClass@@XZ 5f47843d f
 0001:00077443       ?GetRuntimeClass@CSemaphore@@UBEPAUCRuntimeClass@@XZ 5f478443 f
 0001:00077449       ?GetRuntimeClass@CMutex@@UBEPAUCRuntimeClass@@XZ 5f478449 f
 0001:0007744f       ?CreateObject@CWnd@@SGPAVCObject@@XZ 5f47844f f
 0001:00077481       ??1CTempWnd@@UAE@XZ        5f478481 f
 0001:0007748a       ?CreateObject@CFrameWnd@@SGPAVCObject@@XZ 5f47848a f
 0001:000774bf       ?CreateObject@CMDIFrameWnd@@SGPAVCObject@@XZ 5f4784bf f
 0001:000774f4       ?GetRuntimeClass@CMDIFrameWnd@@UBEPAUCRuntimeClass@@XZ 5f4784f4 f
 0001:000774fa       ?GetRuntimeClass@CToolTipCtrl@@UBEPAUCRuntimeClass@@XZ 5f4784fa f
 0001:00077500       ?CreateObject@CMiniFrameWnd@@SGPAVCObject@@XZ 5f478500 f
 0001:00077535       ??_ECControlBar@@UAEPAXI@Z 5f478535 f
 0001:00077535       ??_GCControlBar@@UAEPAXI@Z 5f478535 f
 0001:00077551       ?OnBarStyleChange@CControlBar@@UAEXKK@Z 5f478551 f
 0001:00077577       ?SetOwner@CToolBar@@QAEXPAVCWnd@@@Z 5f478577 f
 0001:000775de       ?SetHeight@CToolBar@@QAEXH@Z 5f4785de f
 0001:00077641       ?LoadToolBar@CToolBar@@QAEHPBD@Z 5f478641 f
 0001:00077713       ?SetBitmap@CToolBar@@QAEHPAUHBITMAP__@@@Z 5f478713 f
 0001:000777c2       ?GetRuntimeClass@CToolBar@@UBEPAUCRuntimeClass@@XZ 5f4787c2 f
 0001:000777c8       ?GetRuntimeClass@CDialogBar@@UBEPAUCRuntimeClass@@XZ 5f4787c8 f
 0001:000777e8       ?GetRuntimeClass@CStatusBar@@UBEPAUCRuntimeClass@@XZ 5f4787e8 f
 0001:000777ee       ?GetRuntimeClass@CDockBar@@UBEPAUCRuntimeClass@@XZ 5f4787ee f
 0001:000777f4       ?CreateObject@CMiniDockFrameWnd@@SGPAVCObject@@XZ 5f4787f4 f
 0001:00077829       ?_GetBaseClass@CMiniDockFrameWnd@@KGPAUCRuntimeClass@@XZ 5f478829 f
 0001:0007782f       ?GetRuntimeClass@CMiniDockFrameWnd@@UBEPAUCRuntimeClass@@XZ 5f47882f f
 0001:00077835       ?CreateObject@CDockState@@SGPAVCObject@@XZ 5f478835 f
 0001:00077867       ?GetRuntimeClass@CDockState@@UBEPAUCRuntimeClass@@XZ 5f478867 f
 0001:0007786d       ??5@YGAAVCArchive@@AAV0@AAPAVCDockState@@@Z 5f47886d f
 0001:00077888       ?GetRuntimeClass@CPreviewDC@@UBEPAUCRuntimeClass@@XZ 5f478888 f
 0001:0007788e       ?GetRuntimeClass@CMetaFileDC@@UBEPAUCRuntimeClass@@XZ 5f47888e f
 0001:00077894       ?_GetBaseClass@CReBar@@KGPAUCRuntimeClass@@XZ 5f478894 f
 0001:0007789a       ?GetRuntimeClass@CReBar@@UBEPAUCRuntimeClass@@XZ 5f47889a f
 0001:000778a0       ?GetRuntimeClass@CStatic@@UBEPAUCRuntimeClass@@XZ 5f4788a0 f
 0001:000778a6       ?GetRuntimeClass@CComboBox@@UBEPAUCRuntimeClass@@XZ 5f4788a6 f
 0001:000778ac       ?GetRuntimeClass@CEdit@@UBEPAUCRuntimeClass@@XZ 5f4788ac f
 0001:000778b2       ?GetRuntimeClass@CScrollBar@@UBEPAUCRuntimeClass@@XZ 5f4788b2 f
 0001:000778b8       ?GetRuntimeClass@CDragListBox@@UBEPAUCRuntimeClass@@XZ 5f4788b8 f
 0001:000778be       ?GetRuntimeClass@CSpinButtonCtrl@@UBEPAUCRuntimeClass@@XZ 5f4788be f
 0001:000778c4       ?GetRuntimeClass@CSliderCtrl@@UBEPAUCRuntimeClass@@XZ 5f4788c4 f
 0001:000778ca       ?GetRuntimeClass@CProgressCtrl@@UBEPAUCRuntimeClass@@XZ 5f4788ca f
 0001:000778d0       ?GetRuntimeClass@CComboBoxEx@@UBEPAUCRuntimeClass@@XZ 5f4788d0 f
 0001:000778d6       ?GetRuntimeClass@CHeaderCtrl@@UBEPAUCRuntimeClass@@XZ 5f4788d6 f
 0001:000778dc       ?GetRuntimeClass@CHotKeyCtrl@@UBEPAUCRuntimeClass@@XZ 5f4788dc f
 0001:000778e2       ?GetRuntimeClass@CAnimateCtrl@@UBEPAUCRuntimeClass@@XZ 5f4788e2 f
 0001:000778e8       ?GetRuntimeClass@CTabCtrl@@UBEPAUCRuntimeClass@@XZ 5f4788e8 f
 0001:000778ee       ?GetRuntimeClass@CTreeCtrl@@UBEPAUCRuntimeClass@@XZ 5f4788ee f
 0001:000778f4       ?GetRuntimeClass@CListCtrl@@UBEPAUCRuntimeClass@@XZ 5f4788f4 f
 0001:000778fa       ?GetRuntimeClass@CToolBarCtrl@@UBEPAUCRuntimeClass@@XZ 5f4788fa f
 0001:00077900       ?GetRuntimeClass@CStatusBarCtrl@@UBEPAUCRuntimeClass@@XZ 5f478900 f
 0001:00077906       ?CreateObject@CImageList@@SGPAVCObject@@XZ 5f478906 f
 0001:0007791d       ?CreateObject@CTempImageList@@SGPAVCObject@@XZ 5f47891d f
 0001:00077943       ??_GCTempImageList@@UAEPAXI@Z 5f478943 f
 0001:00077943       ??_ECTempImageList@@UAEPAXI@Z 5f478943 f
 0001:00077963       ??1CTempImageList@@UAE@XZ  5f478963 f
 0001:00077963       ??1CImageList@@UAE@XZ      5f478963 f
 0001:00077996       ?_GetBaseClass@CTempImageList@@KGPAUCRuntimeClass@@XZ 5f478996 f
 0001:0007799c       ?GetRuntimeClass@CTempImageList@@UBEPAUCRuntimeClass@@XZ 5f47899c f
 0001:000779a2       ?GetRuntimeClass@CRichEditCtrl@@UBEPAUCRuntimeClass@@XZ 5f4789a2 f
 0001:000779a9       ?_GetBaseClass@CCheckListBox@@KGPAUCRuntimeClass@@XZ 5f4789a9 f
 0001:000779af       ?GetRuntimeClass@CCheckListBox@@UBEPAUCRuntimeClass@@XZ 5f4789af f
 0001:000779b5       ?CreateObject@?$CProcessLocal@V_AFX_CHECKLIST_STATE@@@@SGPAVCNoTrackObject@@XZ 5f4789b5 f
 0001:000779e6       ?_GetBaseClass@CBitmapButton@@KGPAUCRuntimeClass@@XZ 5f4789e6 f
 0001:000779ec       ?GetRuntimeClass@CBitmapButton@@UBEPAUCRuntimeClass@@XZ 5f4789ec f
 0001:000779f2       ?_GetBaseClass@CPropertyPageEx@@KGPAUCRuntimeClass@@XZ 5f4789f2 f
 0001:000779f8       ?GetRuntimeClass@CPropertyPageEx@@UBEPAUCRuntimeClass@@XZ 5f4789f8 f
 0001:000779fe       ?_GetBaseClass@CPropertySheetEx@@KGPAUCRuntimeClass@@XZ 5f4789fe f
 0001:00077a04       ?GetRuntimeClass@CPropertySheetEx@@UBEPAUCRuntimeClass@@XZ 5f478a04 f
 0001:00077a0a       ?GetRuntimeClass@CFileDialog@@UBEPAUCRuntimeClass@@XZ 5f478a0a f
 0001:00077a10       ?GetRuntimeClass@CPrintDialog@@UBEPAUCRuntimeClass@@XZ 5f478a10 f
 0001:00077a16       ?GetRuntimeClass@CPageSetupDialog@@UBEPAUCRuntimeClass@@XZ 5f478a16 f
 0001:00077a1c       ?GetRuntimeClass@CColorDialog@@UBEPAUCRuntimeClass@@XZ 5f478a1c f
 0001:00077a22       ?CreateObject@?$CProcessLocal@V_AFX_COLOR_STATE@@@@SGPAVCNoTrackObject@@XZ 5f478a22 f
 0001:00077a38       ?GetRuntimeClass@CFontDialog@@UBEPAUCRuntimeClass@@XZ 5f478a38 f
 0001:00077a3e       ?GetRuntimeClass@CFindReplaceDialog@@UBEPAUCRuntimeClass@@XZ 5f478a3e f
 0001:00077a44       ?AfxGetPropSheetFont@@YGHAAVCString@@AAGH@Z 5f478a44 f
 0001:00077bd0       ?CreateObject@?$CProcessLocal@U_AFX_PROPPAGEFONTINFO@@@@SGPAVCNoTrackObject@@XZ 5f478bd0 f
 0001:00077bee       ??_E_AFX_PROPPAGEFONTINFO@@UAEPAXI@Z 5f478bee f
 0001:00077bee       ??_G_AFX_PROPPAGEFONTINFO@@UAEPAXI@Z 5f478bee f
 0001:00077c09       ??1_AFX_PROPPAGEFONTINFO@@UAE@XZ 5f478c09 f
 0001:00077c19       ?GetRuntimeClass@CIPAddressCtrl@@UBEPAUCRuntimeClass@@XZ 5f478c19 f
 0001:00077c1f       ?GetRuntimeClass@CReBarCtrl@@UBEPAUCRuntimeClass@@XZ 5f478c1f f
 0001:00077c25       ?GetRuntimeClass@CResourceException@@UBEPAUCRuntimeClass@@XZ 5f478c25 f
 0001:00077c2b       ?GetRuntimeClass@CUserException@@UBEPAUCRuntimeClass@@XZ 5f478c2b f
 0001:00077c31       ?CreateObject@CDC@@SGPAVCObject@@XZ 5f478c31 f
 0001:00077c48       ?GetRuntimeClass@CClientDC@@UBEPAUCRuntimeClass@@XZ 5f478c48 f
 0001:00077c4e       ?GetRuntimeClass@CWindowDC@@UBEPAUCRuntimeClass@@XZ 5f478c4e f
 0001:00077c54       ?GetRuntimeClass@CPaintDC@@UBEPAUCRuntimeClass@@XZ 5f478c54 f
 0001:00077c5a       ?CreateObject@CGdiObject@@SGPAVCObject@@XZ 5f478c5a f
 0001:00077c74       ?GetRuntimeClass@CPen@@UBEPAUCRuntimeClass@@XZ 5f478c74 f
 0001:00077c7a       ?GetRuntimeClass@CBrush@@UBEPAUCRuntimeClass@@XZ 5f478c7a f
 0001:00077c80       ?GetRuntimeClass@CFont@@UBEPAUCRuntimeClass@@XZ 5f478c80 f
 0001:00077c86       ?_GetBaseClass@CBitmap@@KGPAUCRuntimeClass@@XZ 5f478c86 f
 0001:00077c8c       ?GetRuntimeClass@CBitmap@@UBEPAUCRuntimeClass@@XZ 5f478c8c f
 0001:00077c92       ?GetRuntimeClass@CPalette@@UBEPAUCRuntimeClass@@XZ 5f478c92 f
 0001:00077c98       ?GetRuntimeClass@CRgn@@UBEPAUCRuntimeClass@@XZ 5f478c98 f
 0001:00077ca2       ??1CTempDC@@UAE@XZ         5f478ca2 f
 0001:00077ca7       ?_GetBaseClass@CTempDC@@KGPAUCRuntimeClass@@XZ 5f478ca7 f
 0001:00077cad       ?GetRuntimeClass@CTempDC@@UBEPAUCRuntimeClass@@XZ 5f478cad f
 0001:00077cb6       ?GetRuntimeClass@CTempGdiObject@@UBEPAUCRuntimeClass@@XZ 5f478cb6 f
 0001:00077cbe       ?CreateObject@CMenu@@SGPAVCObject@@XZ 5f478cbe f
 0001:00077cdb       ?_GetBaseClass@CTempMenu@@KGPAUCRuntimeClass@@XZ 5f478cdb f
 0001:00077ce1       ?GetRuntimeClass@CTempMenu@@UBEPAUCRuntimeClass@@XZ 5f478ce1 f
 0001:00077ce8       ?AfxEnableWin31Compatibility@@YGXXZ 5f478ce8 f
 0001:00077d2a       ?_AfxLoadDotBitmap@@YGXXZ  5f478d2a f
 0001:00077e0a       ?GetRuntimeClass@CDocument@@UBEPAUCRuntimeClass@@XZ 5f478e0a f
 0001:00077e10       ?GetRuntimeClass@CDocTemplate@@UBEPAUCRuntimeClass@@XZ 5f478e10 f
 0001:00077e16       ?GetRuntimeClass@CSingleDocTemplate@@UBEPAUCRuntimeClass@@XZ 5f478e16 f
 0001:00077e1c       ?GetRuntimeClass@CMultiDocTemplate@@UBEPAUCRuntimeClass@@XZ 5f478e1c f
 0001:00077e22       ?_AfxDeleteRegKey@@YGHPBD@Z 5f478e22 f
 0001:00077f2d       ?GetRuntimeClass@CDocManager@@UBEPAUCRuntimeClass@@XZ 5f478f2d f
 0001:00077f33       ?GetRuntimeClass@CScrollView@@UBEPAUCRuntimeClass@@XZ 5f478f33 f
 0001:00077f39       ?CreateObject@CEditView@@SGPAVCObject@@XZ 5f478f39 f
 0001:00077f6b       ?GetRuntimeClass@CEditView@@UBEPAUCRuntimeClass@@XZ 5f478f6b f
 0001:00077f71       ?CreateObject@?$CProcessLocal@V_AFX_EDIT_STATE@@@@SGPAVCNoTrackObject@@XZ 5f478f71 f
 0001:00077fa2       ?CreateObject@CPreviewView@@SGPAVCObject@@XZ 5f478fa2 f
 0001:00077fd7       ?GetRuntimeClass@CPreviewView@@UBEPAUCRuntimeClass@@XZ 5f478fd7 f
 0001:00077fdd       ?CreateObject@CListView@@SGPAVCObject@@XZ 5f478fdd f
 0001:00078025       ?GetRuntimeClass@CListView@@UBEPAUCRuntimeClass@@XZ 5f479025 f
 0001:0007802b       ?CreateObject@CTreeView@@SGPAVCObject@@XZ 5f47902b f
 0001:00078073       ?GetRuntimeClass@CTreeView@@UBEPAUCRuntimeClass@@XZ 5f479073 f
 0001:00078079       ?CreateObject@?$CProcessLocal@V_AFX_MAIL_STATE@@@@SGPAVCNoTrackObject@@XZ 5f479079 f
 0001:000780a3       ??_GCWinApp@@UAEPAXI@Z     5f4790a3 f
 0001:000780a3       ??_ECWinApp@@UAEPAXI@Z     5f4790a3 f
 0001:000780bf       ?InitInstance@CWinApp@@UAEHXZ 5f4790bf f
 0001:000780dd       ?ParseParamFlag@CCommandLineInfo@@IAEXPBD@Z 5f4790dd f
 0001:00078249       ?_GetBaseClass@CWinApp@@KGPAUCRuntimeClass@@XZ 5f479249 f
 0001:0007824f       ?GetRuntimeClass@CWinApp@@UBEPAUCRuntimeClass@@XZ 5f47924f f
 0001:0007833b       ?Unregister@CWinApp@@QAEHXZ 5f47933b f
 0001:00078472       ?DelRegTree@CWinApp@@QAEJPAUHKEY__@@ABVCString@@@Z 5f479472 f
 0001:00078482       ?AfxDelRegTreeHelper@@YGJPAUHKEY__@@ABVCString@@@Z 5f479482 f
 0001:00078554       ?RegisterShellFileTypesCompat@CWinApp@@IAEXXZ 5f479554 f
 0001:00078562       ?UnregisterShellFileTypes@CWinApp@@IAEXXZ 5f479562 f
 0001:00078568       ?UnregisterShellFileTypes@CDocManager@@QAEXXZ 5f479568 f
 0001:000787e7       ?SetRegistryKey@CWinApp@@IAEXI@Z 5f4797e7 f
 0001:000788d0       ?SetDialogBkColor@CWinApp@@IAEXKK@Z 5f4798d0 f
 0001:00078a66       ?AfxGetCtl3dState@@YGPAV_AFX_CTL3D_STATE@@XZ 5f479a66 f
 0001:00078a76       ??1?$CThreadLocal@V_AFX_CTL3D_THREAD@@@@QAE@XZ 5f479a76 f
 0001:00078a7b       ?GetRuntimeClass@CInternetException@@UBEPAUCRuntimeClass@@XZ 5f479a7b f
 0001:00078a81       ?_GetBaseClass@CInternetFile@@KGPAUCRuntimeClass@@XZ 5f479a81 f
 0001:00078a87       ?GetRuntimeClass@CHttpFile@@UBEPAUCRuntimeClass@@XZ 5f479a87 f
 0001:00078a8d       ?_GetBaseClass@CGopherFile@@KGPAUCRuntimeClass@@XZ 5f479a8d f
 0001:00078a93       ?GetRuntimeClass@CGopherFile@@UBEPAUCRuntimeClass@@XZ 5f479a93 f
 0001:00078a99       ?GetRuntimeClass@CInternetSession@@UBEPAUCRuntimeClass@@XZ 5f479a99 f
 0001:00078a9f       ?GetRuntimeClass@CFtpConnection@@UBEPAUCRuntimeClass@@XZ 5f479a9f f
 0001:00078aa5       ?GetRuntimeClass@CHttpConnection@@UBEPAUCRuntimeClass@@XZ 5f479aa5 f
 0001:00078aab       ?_GetBaseClass@CGopherConnection@@KGPAUCRuntimeClass@@XZ 5f479aab f
 0001:00078ab1       ?GetRuntimeClass@CGopherConnection@@UBEPAUCRuntimeClass@@XZ 5f479ab1 f
 0001:00078ab7       ?GetRuntimeClass@CFtpFileFind@@UBEPAUCRuntimeClass@@XZ 5f479ab7 f
 0001:00078abd       ?GetRuntimeClass@CGopherFileFind@@UBEPAUCRuntimeClass@@XZ 5f479abd f
 0001:00078ac3       ?GetRuntimeClass@CFileFind@@UBEPAUCRuntimeClass@@XZ 5f479ac3 f
 0001:00078ac9       ?_GetBaseClass@CSocket@@KGPAUCRuntimeClass@@XZ 5f479ac9 f
 0001:00078acf       ?GetRuntimeClass@CSocket@@UBEPAUCRuntimeClass@@XZ 5f479acf f
 0001:00078ad5       ?GetRuntimeClass@CSocketFile@@UBEPAUCRuntimeClass@@XZ 5f479ad5 f
 0001:00078adb       ?CreateObject@?$CProcessLocal@V_AFX_SOCK_STATE@@@@SGPAVCNoTrackObject@@XZ 5f479adb f
 0001:00078b49       ?_GetBaseClass@COleLinkingDoc@@KGPAUCRuntimeClass@@XZ 5f479b49 f
 0001:00078b4f       ?AfxBSTR2CString@@YGXPAVCString@@PAG@Z 5f479b4f f
 0001:00078b94       ?AfxTaskStringA2W@@YGPAGPBD@Z 5f479b94 f
 0001:00078bb0       ?AfxDevModeA2W@@YGPAU_devicemodeW@@PAU1@PAU_devicemodeA@@@Z 5f479bb0 f
 0001:00078c31       ?AfxDevModeW2A@@YGPAU_devicemodeA@@PAU1@PAU_devicemodeW@@@Z 5f479c31 f
 0001:00078cb2       ?AfxTextMetricA2W@@YGPAUtagTEXTMETRICW@@PAU1@PAUtagTEXTMETRICA@@@Z 5f479cb2 f
 0001:00078d33       ?AfxTextMetricW2A@@YGPAUtagTEXTMETRICA@@PAU1@PAUtagTEXTMETRICW@@@Z 5f479d33 f
 0001:00078dbb       ?AfxAllocTaskWideString@@YGPAGPBG@Z 5f479dbb f
 0001:00078df6       ?AfxAllocTaskWideString@@YGPAGPBD@Z 5f479df6 f
 0001:00078e3d       ?AfxAllocTaskAnsiString@@YGPADPBD@Z 5f479e3d f
 0001:00078e76       ?GetRuntimeClass@COleDispatchException@@UBEPAUCRuntimeClass@@XZ 5f479e76 f
 0001:00078e7c       ?GetRuntimeClass@COleInsertDialog@@UBEPAUCRuntimeClass@@XZ 5f479e7c f
 0001:00078e82       ?GetRuntimeClass@COleConvertDialog@@UBEPAUCRuntimeClass@@XZ 5f479e82 f
 0001:00078e88       ?GetRuntimeClass@COleChangeIconDialog@@UBEPAUCRuntimeClass@@XZ 5f479e88 f
 0001:00078e8e       ?GetRuntimeClass@COleLinksDialog@@UBEPAUCRuntimeClass@@XZ 5f479e8e f
 0001:00078e94       ?GetRuntimeClass@COleUpdateDialog@@UBEPAUCRuntimeClass@@XZ 5f479e94 f
 0001:00078e9a       ?GetRuntimeClass@COlePasteSpecialDialog@@UBEPAUCRuntimeClass@@XZ 5f479e9a f
 0001:00078ea0       ?GetRuntimeClass@COleBusyDialog@@UBEPAUCRuntimeClass@@XZ 5f479ea0 f
 0001:00078ea6       ?GetRuntimeClass@COlePropertiesDialog@@UBEPAUCRuntimeClass@@XZ 5f479ea6 f
 0001:00078eac       ?_GetBaseClass@COleChangeSourceDialog@@KGPAUCRuntimeClass@@XZ 5f479eac f
 0001:00078eb2       ?GetRuntimeClass@COleChangeSourceDialog@@UBEPAUCRuntimeClass@@XZ 5f479eb2 f
 0001:00078eb8       ?CreateObject@CDocItem@@SGPAVCObject@@XZ 5f479eb8 f
 0001:00078eea       ??5@YGAAVCArchive@@AAV0@AAPAVCDocItem@@@Z 5f479eea f
 0001:00078f05       ?_GetBaseClass@COleServerItem@@KGPAUCRuntimeClass@@XZ 5f479f05 f
 0001:00078f0b       ?GetRuntimeClass@COleServerItem@@UBEPAUCRuntimeClass@@XZ 5f479f0b f
 0001:00078f15       ??_ECOleObjectFactory@@UAEPAXI@Z 5f479f15 f
 0001:00078f15       ??_GCOleObjectFactory@@UAEPAXI@Z 5f479f15 f
 0001:00078f35       ?UnregisterAll@COleObjectFactory@@SGHXZ 5f479f35 f
 0001:00078fb6       ?CreateObject@COleIPFrameWnd@@SGPAVCObject@@XZ 5f479fb6 f
 0001:00078feb       ?GetRuntimeClass@COleIPFrameWnd@@UBEPAUCRuntimeClass@@XZ 5f479feb f
 0001:00078ff1       ?_GetBaseClass@COleException@@KGPAUCRuntimeClass@@XZ 5f479ff1 f
 0001:00078ff7       ?GetRuntimeClass@COleException@@UBEPAUCRuntimeClass@@XZ 5f479ff7 f
 0001:00078ffd       ?_GetBaseClass@COleStreamFile@@KGPAUCRuntimeClass@@XZ 5f479ffd f
 0001:00079003       ?GetRuntimeClass@COleStreamFile@@UBEPAUCRuntimeClass@@XZ 5f47a003 f
 0001:00079009       ?_GetBaseClass@COleServerDoc@@KGPAUCRuntimeClass@@XZ 5f47a009 f
 0001:0007900f       ?GetRuntimeClass@COleServerDoc@@UBEPAUCRuntimeClass@@XZ 5f47a00f f
 0001:00079015       ?CreateObject@CRichEditCntrItem@@SGPAVCObject@@XZ 5f47a015 f
 0001:0007904c       ?_GetBaseClass@CRichEditCntrItem@@KGPAUCRuntimeClass@@XZ 5f47a04c f
 0001:00079052       ?GetRuntimeClass@CRichEditCntrItem@@UBEPAUCRuntimeClass@@XZ 5f47a052 f
 0001:00079058       ??5@YGAAVCArchive@@AAV0@AAPAVCRichEditCntrItem@@@Z 5f47a058 f
 0001:00079073       ?GetRuntimeClass@CRichEditDoc@@UBEPAUCRuntimeClass@@XZ 5f47a073 f
 0001:00079079       ?CreateObject@CRichEditView@@SGPAVCObject@@XZ 5f47a079 f
 0001:000790ae       ?GetRuntimeClass@CRichEditView@@UBEPAUCRuntimeClass@@XZ 5f47a0ae f
 0001:000790b4       ?GetRuntimeClass@CMonikerFile@@UBEPAUCRuntimeClass@@XZ 5f47a0b4 f
 0001:000790ba       ??I?$_CIP@UIMoniker@@$1?IID_IMoniker@@3U_GUID@@B@@QAEPAPAUIMoniker@@XZ 5f47a0ba f
 0001:000790c9       ?Release@?$_CIP@UIMoniker@@$1?IID_IMoniker@@3U_GUID@@B@@QAEXXZ 5f47a0c9 f
 0001:000790d9       ??0?$CIP@UIBindCtx@@$1?IID_IBindCtx@@3U_GUID@@B@@QAE@XZ 5f47a0d9 f
 0001:000790e5       ??4?$CIP@UIBindCtx@@$1?IID_IBindCtx@@3U_GUID@@B@@QAEAAV0@PAUIBindCtx@@@Z 5f47a0e5 f
 0001:000790f7       ??7?$_CIP@UIBindCtx@@$1?IID_IBindCtx@@3U_GUID@@B@@QAEHXZ 5f47a0f7 f
 0001:000790ff       ??0?$CIP@UIBindHost@@$1?IID_IBindHost@@3U_GUID@@B@@QAE@PAUIBindHost@@H@Z 5f47a0ff f
 0001:00079115       ?Detach@?$_CIP@UIStream@@$1?IID_IStream@@3U_GUID@@B@@QAEXXZ 5f47a115 f
 0001:00079119       ??0?$_CIP@UIBindHost@@$1?IID_IBindHost@@3U_GUID@@B@@QAE@PAUIBindHost@@H@Z 5f47a119 f
 0001:00079134       ?_AddRef@?$_CIP@UIBindHost@@$1?IID_IBindHost@@3U_GUID@@B@@AAEXXZ 5f47a134 f
 0001:00079141       ?GetRuntimeClass@CDateTimeCtrl@@UBEPAUCRuntimeClass@@XZ 5f47a141 f
 0001:00079147       ?GetRuntimeClass@CMonthCalCtrl@@UBEPAUCRuntimeClass@@XZ 5f47a147 f
 0001:0007914d       ?CreateObject@CHtmlView@@SGPAVCObject@@XZ 5f47a14d f
 0001:00079182       ?GetRuntimeClass@CHtmlView@@UBEPAUCRuntimeClass@@XZ 5f47a182 f
 0001:00079188       ?GetInterfacePtr@?$_CIP@UIBinding@@$1?IID_IBinding@@3U_GUID@@B@@QBEPAUIBinding@@XZ 5f47a188 f
 0001:0007918b       ?QueryInterface@?$_CIP@UIBindHost@@$1?IID_IBindHost@@3U_GUID@@B@@QAEJPAUIUnknown@@@Z 5f47a18b f
 0001:000791d3       ?QueryInterface@?$_CIP@UIBindStatusCallback@@$1?IID_IBindStatusCallback@@3U_GUID@@B@@QAEJPAUIUnknown@@@Z 5f47a1d3 f
 0001:0007921b       ?QueryInterface@?$_CIP@UIServiceProvider@@$1?IID_IServiceProvider@@3U_GUID@@B@@QAEJPAUIUnknown@@@Z 5f47a21b f
 0001:00079263       ?GetIID@?$_CIP@UIBindHost@@$1?IID_IBindHost@@3U_GUID@@B@@SAABU_GUID@@XZ 5f47a263 f
 0001:00079269       ?GetIID@?$_CIP@UIBindStatusCallback@@$1?IID_IBindStatusCallback@@3U_GUID@@B@@SAABU_GUID@@XZ 5f47a269 f
 0001:0007926f       ??4?$_CIP@UIBindStatusCallback@@$1?IID_IBindStatusCallback@@3U_GUID@@B@@QAEAAV0@PAUIBindStatusCallback@@@Z 5f47a26f f
 0001:00079295       ?GetIID@?$_CIP@UIServiceProvider@@$1?IID_IServiceProvider@@3U_GUID@@B@@SAABU_GUID@@XZ 5f47a295 f
 0001:0007929b       ?Attach@?$_CIP@UIServiceProvider@@$1?IID_IServiceProvider@@3U_GUID@@B@@QAEXPAUIServiceProvider@@@Z 5f47a29b f
 0001:000792ad       ?_Release@?$_CIP@UIBindCtx@@$1?IID_IBindCtx@@3U_GUID@@B@@AAEXXZ 5f47a2ad f
 0001:000792ad       ??1?$CIP@UIBindStatusCallback@@$1?IID_IBindStatusCallback@@3U_GUID@@B@@QAE@XZ 5f47a2ad f
 0001:000792ba       ??0?$_CIP@UIServiceProvider@@$1?IID_IServiceProvider@@3U_GUID@@B@@QAE@XZ 5f47a2ba f
 0001:000792c0       ??1?$_CIP@UIServiceProvider@@$1?IID_IServiceProvider@@3U_GUID@@B@@QAE@XZ 5f47a2c0 f
 0001:000792c2       ?GetRuntimeClass@COleResizeBar@@UBEPAUCRuntimeClass@@XZ 5f47a2c2 f
 0001:000792c8       ?GetRuntimeClass@COleControl@@UBEPAUCRuntimeClass@@XZ 5f47a2c8 f
 0001:000792ce       ?CreateObject@?$CThreadLocal@V_AFXCTL_AMBIENT_CACHE@@@@SGPAVCNoTrackObject@@XZ 5f47a2ce f
 0001:000792ff       ?_GetBaseClass@CDataPathProperty@@KGPAUCRuntimeClass@@XZ 5f47a2ff f
 0001:00079305       ?_GetBaseClass@CCachedDataPathProperty@@KGPAUCRuntimeClass@@XZ 5f47a305 f
 0001:0007930b       ?GetRuntimeClass@CCachedDataPathProperty@@UBEPAUCRuntimeClass@@XZ 5f47a30b f
 0001:00079311       ?CreateObject@CColorPropPage@@SGPAVCObject@@XZ 5f47a311 f
 0001:00079346       ?GetRuntimeClass@CColorPropPage@@UBEPAUCRuntimeClass@@XZ 5f47a346 f
 0001:0007934c       ?CreateObject@CFontPropPage@@SGPAVCObject@@XZ 5f47a34c f
 0001:00079381       ?_GetBaseClass@CFontPropPage@@KGPAUCRuntimeClass@@XZ 5f47a381 f
 0001:00079387       ?GetRuntimeClass@CFontPropPage@@UBEPAUCRuntimeClass@@XZ 5f47a387 f
 0001:0007938d       ?CreateObject@CPicturePropPage@@SGPAVCObject@@XZ 5f47a38d f
 0001:000793c2       ?GetRuntimeClass@CPicturePropPage@@UBEPAUCRuntimeClass@@XZ 5f47a3c2 f
 0001:000793c8       ?_GetBaseClass@CStockPropPage@@KGPAUCRuntimeClass@@XZ 5f47a3c8 f
 0001:000793ce       ?GetRuntimeClass@CDBException@@UBEPAUCRuntimeClass@@XZ 5f47a3ce f
 0001:000793d4       ?GetRuntimeClass@CDatabase@@UBEPAUCRuntimeClass@@XZ 5f47a3d4 f
 0001:000793da       ?GetRuntimeClass@CRecordset@@UBEPAUCRuntimeClass@@XZ 5f47a3da f
 0001:000793e0       ?CreateObject@?$CProcessLocal@V_AFX_DB_STATE@@@@SGPAVCNoTrackObject@@XZ 5f47a3e0 f
 0001:000793f5       ?_GetBaseClass@CRecordView@@KGPAUCRuntimeClass@@XZ 5f47a3f5 f
 0001:000793fb       ?GetRuntimeClass@CRecordView@@UBEPAUCRuntimeClass@@XZ 5f47a3fb f
 0001:00079401       ?GetRuntimeClass@CLongBinary@@UBEPAUCRuntimeClass@@XZ 5f47a401 f
 0001:00079407       ?GetRuntimeClass@COleDBRecordView@@UBEPAUCRuntimeClass@@XZ 5f47a407 f
 0001:0007940d       ?GetRuntimeClass@CDynLinkLibrary@@UBEPAUCRuntimeClass@@XZ 5f47a40d f
 0001:00079413       ??0CDynLinkLibrary@@QAE@PAUHINSTANCE__@@0@Z 5f47a413 f
 0001:000794cd       ?AfxCoreInitModule@@YGXXZ  5f47a4cd f
 0001:00079536       _DllGetClassObject@12      5f47a536 f
 0001:00079564       _DllCanUnloadNow@0         5f47a564 f
 0001:00079587       _DllRegisterServer@0       5f47a587 f
 0001:000795b9       _DllUnregisterServer@0     5f47a5b9 f
 0001:000795eb       ?AfxWndProcDllOle@@YGJPAUHWND__@@IIJ@Z 5f47a5eb f
 0001:00079631       ??1_AFX_MAIL_STATE@@UAE@XZ 5f47a631 f
 0001:00079646       ??_G_AFX_MAIL_STATE@@UAEPAXI@Z 5f47a646 f
 0001:00079646       ??_E_AFX_MAIL_STATE@@UAEPAXI@Z 5f47a646 f
 0001:00079661       ?OnFileSendMail@CDocument@@IAEXXZ 5f47a661 f
 0001:000799be       ?OnFileSendMail@COleDocument@@IAEXXZ 5f47a9be f
 0001:00079a25       ??0COleClientItem@@QAE@PAVCOleDocument@@@Z 5f47aa25 f
 0001:00079ac1       ??_GCOleClientItem@@UAEPAXI@Z 5f47aac1 f
 0001:00079ac1       ??_ECOleClientItem@@UAEPAXI@Z 5f47aac1 f
 0001:00079add       ?Delete@COleClientItem@@QAEXH@Z 5f47aadd f
 0001:00079b7b       ?Release@COleClientItem@@UAEXW4tagOLECLOSE@@@Z 5f47ab7b f
 0001:00079c2d       ?Close@COleClientItem@@QAEXW4tagOLECLOSE@@@Z 5f47ac2d f
 0001:00079ca6       ?GetNewItemNumber@COleClientItem@@QAEKXZ 5f47aca6 f
 0001:00079cf5       ?GetItemName@COleClientItem@@QBEXPAD@Z 5f47acf5 f
 0001:00079d0d       ?GetIconFromRegistry@COleClientItem@@QBEPAUHICON__@@XZ 5f47ad0d f
 0001:00079d41       ?GetIconFromRegistry@COleClientItem@@SAPAUHICON__@@AAU_GUID@@@Z 5f47ad41 f
 0001:00079f9f       ?UpdateItemType@COleClientItem@@QAEXXZ 5f47af9f f
 0001:00079ff2       ?FinishCreate@COleClientItem@@MAEHJ@Z 5f47aff2 f
 0001:0007a17c       ?CreateFromClipboard@COleClientItem@@QAEHW4tagOLERENDER@@GPAUtagFORMATETC@@@Z 5f47b17c f
 0001:0007a1db       ?CreateLinkFromClipboard@COleClientItem@@QAEHW4tagOLERENDER@@GPAUtagFORMATETC@@@Z 5f47b1db f
 0001:0007a23a       ?CreateStaticFromClipboard@COleClientItem@@QAEHW4tagOLERENDER@@GPAUtagFORMATETC@@@Z 5f47b23a f
 0001:0007a299       ?CreateFromData@COleClientItem@@QAEHPAVCOleDataObject@@W4tagOLERENDER@@GPAUtagFORMATETC@@@Z 5f47b299 f
 0001:0007a307       ?CreateLinkFromData@COleClientItem@@QAEHPAVCOleDataObject@@W4tagOLERENDER@@GPAUtagFORMATETC@@@Z 5f47b307 f
 0001:0007a375       ?CreateStaticFromData@COleClientItem@@QAEHPAVCOleDataObject@@W4tagOLERENDER@@GPAUtagFORMATETC@@@Z 5f47b375 f
 0001:0007a3e3       ?CreateFromFile@COleClientItem@@QAEHPBDABU_GUID@@W4tagOLERENDER@@GPAUtagFORMATETC@@@Z 5f47b3e3 f
 0001:0007a489       ?CreateLinkFromFile@COleClientItem@@QAEHPBDW4tagOLERENDER@@GPAUtagFORMATETC@@@Z 5f47b489 f
 0001:0007a52c       ?CreateNewItem@COleClientItem@@QAEHABU_GUID@@W4tagOLERENDER@@GPAUtagFORMATETC@@@Z 5f47b52c f
 0001:0007a58e       ?CreateCloneFrom@COleClientItem@@QAEHPBV1@@Z 5f47b58e f
 0001:0007a63b       ?IsModified@COleClientItem@@QBEHXZ 5f47b63b f
 0001:0007a6ac       ?GetItemStorageFlat@COleClientItem@@QAEXXZ 5f47b6ac f
 0001:0007a6f5       ?ReadItemFlat@COleClientItem@@QAEXAAVCArchive@@@Z 5f47b6f5 f
 0001:0007a800       ?WriteItemFlat@COleClientItem@@QAEXAAVCArchive@@@Z 5f47b800 f
 0001:0007a8b9       ?ReadItemCompound@COleClientItem@@QAEXAAVCArchive@@@Z 5f47b8b9 f
 0001:0007aa23       ?WriteItemCompound@COleClientItem@@QAEXAAVCArchive@@@Z 5f47ba23 f
 0001:0007ab66       ?GetItemStorage@COleClientItem@@UAEXXZ 5f47bb66 f
 0001:0007ab73       ?GetItemStorageCompound@COleClientItem@@QAEXXZ 5f47bb73 f
 0001:0007ac15       ?ReadItem@COleClientItem@@UAEXAAVCArchive@@@Z 5f47bc15 f
 0001:0007ac31       ?WriteItem@COleClientItem@@UAEXAAVCArchive@@@Z 5f47bc31 f
 0001:0007ac4d       ?CommitItem@COleClientItem@@UAEXH@Z 5f47bc4d f
 0001:0007acab       ?Serialize@COleClientItem@@UAEXAAVCArchive@@@Z 5f47bcab f
 0001:0007adeb       ?OnChange@COleClientItem@@UAEXW4OLE_NOTIFICATION@@K@Z 5f47bdeb f
 0001:0007ae06       ?OnGetClipRect@COleClientItem@@MAEXAAVCRect@@@Z 5f47be06 f
 0001:0007ae19       ?OnShowItem@COleClientItem@@MAEXXZ 5f47be19 f
 0001:0007aea4       ?GetClassID@COleClientItem@@QBEXPAU_GUID@@@Z 5f47bea4 f
 0001:0007aec6       ?GetExtent@COleClientItem@@QAEHPAUtagSIZE@@W4tagDVASPECT@@@Z 5f47bec6 f
 0001:0007aef3       ?GetCachedExtent@COleClientItem@@QAEHPAUtagSIZE@@W4tagDVASPECT@@@Z 5f47bef3 f
 0001:0007af2d       ?SetIconicMetafile@COleClientItem@@QAEHPAX@Z 5f47bf2d f
 0001:0007afb8       ?GetIconicMetafile@COleClientItem@@QAEPAXXZ 5f47bfb8 f
 0001:0007b153       ?SetDrawAspect@COleClientItem@@UAEXW4tagDVASPECT@@@Z 5f47c153 f
 0001:0007b186       ?GetPrintDeviceInfo@COleClientItem@@IAEHPAPAUIOleCache@@PAPAUtagDVTARGETDEVICE@@PAK@Z 5f47c186 f
 0001:0007b217       ?AttachDataObject@COleClientItem@@QBEXAAVCOleDataObject@@@Z 5f47c217 f
 0001:0007b233       ?Draw@COleClientItem@@QAEHPAVCDC@@PBUtagRECT@@W4tagDVASPECT@@@Z 5f47c233 f
 0001:0007b34c       ?GetEmbeddedItemData@COleClientItem@@IAEXPAUtagSTGMEDIUM@@@Z 5f47c34c f
 0001:0007b3f5       ?AddCachedData@COleClientItem@@IAEXPAVCOleDataSource@@@Z 5f47c3f5 f
 0001:0007b4c2       ?GetLinkSourceData@COleClientItem@@IAEHPAUtagSTGMEDIUM@@@Z 5f47c4c2 f
 0001:0007b5c8       ?GetObjectDescriptorData@COleClientItem@@IAEXPAUtagPOINT@@PAUtagSIZE@@PAUtagSTGMEDIUM@@@Z 5f47c5c8 f
 0001:0007b6bf       ?SetHostNames@COleClientItem@@QAEXPBD0@Z 5f47c6bf f
 0001:0007b768       ?SetExtent@COleClientItem@@QAEXABVCSize@@W4tagDVASPECT@@@Z 5f47c768 f
 0001:0007b78d       ?_GetBaseInterfaceMap@COleClientItem@@KGPBUAFX_INTERFACEMAP@@XZ 5f47c78d f
 0001:0007b793       ?GetInterfaceMap@COleClientItem@@MBEPBUAFX_INTERFACEMAP@@XZ 5f47c793 f
 0001:0007b799       ?AddRef@XOleClientSite@COleClientItem@@UAGKXZ 5f47c799 f
 0001:0007b7a8       ?Release@XOleClientSite@COleClientItem@@UAGKXZ 5f47c7a8 f
 0001:0007b7b7       ?QueryInterface@XOleClientSite@COleClientItem@@UAGJABU_GUID@@PAPAX@Z 5f47c7b7 f
 0001:0007b7ce       ?SaveObject@XOleClientSite@COleClientItem@@UAGJXZ 5f47c7ce f
 0001:0007b850       ?GetMoniker@XOleClientSite@COleClientItem@@UAGJKKPAPAUIMoniker@@@Z 5f47c850 f
 0001:0007ba08       ?GetContainer@XOleClientSite@COleClientItem@@UAGJPAPAUIOleContainer@@@Z 5f47ca08 f
 0001:0007ba2e       ?ShowObject@XOleClientSite@COleClientItem@@UAGJXZ 5f47ca2e f
 0001:0007ba8e       ?OnShowWindow@XOleClientSite@COleClientItem@@UAGJH@Z 5f47ca8e f
 0001:0007bb0e       ?RequestNewObjectLayout@XOleClientSite@COleClientItem@@UAGJXZ 5f47cb0e f
 0001:0007bb16       ?AddRef@XAdviseSink@COleClientItem@@UAGKXZ 5f47cb16 f
 0001:0007bb25       ?Release@XAdviseSink@COleClientItem@@UAGKXZ 5f47cb25 f
 0001:0007bb34       ?QueryInterface@XAdviseSink@COleClientItem@@UAGJABU_GUID@@PAPAX@Z 5f47cb34 f
 0001:0007bb4b       ?OnDataChange@XAdviseSink@COleClientItem@@UAGXPAUtagFORMATETC@@PAUtagSTGMEDIUM@@@Z 5f47cb4b f
 0001:0007bb95       ?OnViewChange@XAdviseSink@COleClientItem@@UAGXKJ@Z 5f47cb95 f
 0001:0007bbdb       ?OnSave@XAdviseSink@COleClientItem@@UAGXXZ 5f47cbdb f
 0001:0007bc20       ?OnClose@XAdviseSink@COleClientItem@@UAGXXZ 5f47cc20 f
 0001:0007bc65       ?GetClientSite@COleClientItem@@MAEPAUIOleClientSite@@XZ 5f47cc65 f
 0001:0007bc70       ?Activate@COleClientItem@@QAEXJPAVCView@@PAUtagMSG@@@Z 5f47cc70 f
 0001:0007bd3e       ?CheckGeneral@COleClientItem@@MAEXJ@Z 5f47cd3e f
 0001:0007bd58       ?CopyToClipboard@COleClientItem@@QAEXH@Z 5f47cd58 f
 0001:0007bdab       ?OnGetClipboardData@COleClientItem@@UAEPAVCOleDataSource@@HPAUtagPOINT@@PAUtagSIZE@@@Z 5f47cdab f
 0001:0007be28       ?DoDragDrop@COleClientItem@@QAEKPBUtagRECT@@VCPoint@@HK0@Z 5f47ce28 f
 0001:0007bf01       ?GetClipboardData@COleClientItem@@QAEXPAVCOleDataSource@@HPAUtagPOINT@@PAUtagSIZE@@@Z 5f47cf01 f
 0001:0007bfc0       ?CanPasteLink@COleClientItem@@SGHXZ 5f47cfc0 f
 0001:0007c02a       ?CanCreateLinkFromData@COleClientItem@@SGHPBVCOleDataObject@@@Z 5f47d02a f
 0001:0007c064       ?ConvertTo@COleClientItem@@UAEHABU_GUID@@@Z 5f47d064 f
 0001:0007c106       ?Reload@COleClientItem@@QAEHXZ 5f47d106 f
 0001:0007c144       ?ActivateAs@COleClientItem@@UAEHPBDABU_GUID@@1@Z 5f47d144 f
 0001:0007c193       ?SetPrintDevice@COleClientItem@@QAEHPBUtagDVTARGETDEVICE@@@Z 5f47d193 f
 0001:0007c283       ?SetPrintDevice@COleClientItem@@QAEHPBUtagPDA@@@Z 5f47d283 f
 0001:0007c2b2       ?GetUserType@COleClientItem@@QAEXW4tagUSERCLASSTYPE@@AAVCString@@@Z 5f47d2b2 f
 0001:0007c2ee       ?Run@COleClientItem@@QAEXXZ 5f47d2ee f
 0001:0007c314       ?UpdateLink@COleClientItem@@QAEHXZ 5f47d314 f
 0001:0007c348       ?FreezeLink@COleClientItem@@UAEHXZ 5f47d348 f
 0001:0007c493       ?GetLinkUpdateOptions@COleClientItem@@QAE?AW4tagOLEUPDATE@@XZ 5f47d493 f
 0001:0007c4d0       ?SetLinkUpdateOptions@COleClientItem@@QAEXW4tagOLEUPDATE@@@Z 5f47d4d0 f
 0001:0007c507       ??_GCOleDocument@@UAEPAXI@Z 5f47d507 f
 0001:0007c507       ??_ECOleDocument@@UAEPAXI@Z 5f47d507 f
 0001:0007c547       ?AddItem@COleDocument@@UAEXPAVCDocItem@@@Z 5f47d547 f
 0001:0007c560       ?RemoveItem@COleDocument@@UAEXPAVCDocItem@@@Z 5f47d560 f
 0001:0007c584       ?GetNextItem@COleDocument@@UBEPAVCDocItem@@AAPAU__POSITION@@@Z 5f47d584 f
 0001:0007c5e9       ?SetPathName@COleDocument@@UAEXPBDH@Z 5f47d5e9 f
 0001:0007c6e3       ?Serialize@COleDocument@@UAEXAAVCArchive@@@Z 5f47d6e3 f
 0001:0007c793       ?CommitItems@COleDocument@@QAEXH@Z 5f47d793 f
 0001:0007c7c8       ?HasBlankItems@COleDocument@@QBEHXZ 5f47d7c8 f
 0001:0007c8e5       ?OnShowViews@COleDocument@@UAEXH@Z 5f47d8e5 f
 0001:0007c8f6       ?GetFirstFrame@COleDocument@@QAEPAVCFrameWnd@@XZ 5f47d8f6 f
 0001:0007c920       ?GetMoniker@COleDocument@@UAEPAUIMoniker@@W4tagOLEGETMONIKER@@@Z 5f47d920 f
 0001:0007caff       ?OnSaveDocument@COleDocument@@UAEHPBD@Z 5f47daff f
 0001:0007ccd0       ?SaveToStorage@COleDocument@@MAEXPAVCObject@@@Z 5f47dcd0 f
 0001:0007ce3b       ?LoadFromStorage@COleDocument@@MAEXXZ 5f47de3b f
 0001:0007cf99       ??0CDocItem@@IAE@XZ        5f47df99 f
 0001:0007cfaf       ??_GCDocItem@@UAEPAXI@Z    5f47dfaf f
 0001:0007cfaf       ??_ECDocItem@@UAEPAXI@Z    5f47dfaf f
 0001:0007cfcb       ?Serialize@CDocItem@@UAEXAAVCArchive@@@Z 5f47dfcb f
 0001:0007cfef       ?ApplyPrintDevice@COleDocument@@QAEHPBUtagDVTARGETDEVICE@@@Z 5f47dfef f
 0001:0007d055       ?ApplyPrintDevice@COleDocument@@QAEHPBUtagPDA@@@Z 5f47e055 f
 0001:0007d084       ?AfxThrowOleException@@YGXJ@Z 5f47e084 f
 0001:0007d0d2       ?GetErrorMessage@COleException@@UAEHPADIPAI@Z 5f47e0d2 f
 0001:0007d12c       ?Process@COleException@@SGJPBVCException@@@Z 5f47e12c f
 0001:0007d17a       ?AfxMergeMenus@@YGPAUHMENU__@@PAU1@0PAJHH@Z 5f47e17a f
 0001:0007d34d       ?AfxUnmergeMenus@@YGXPAUHMENU__@@00@Z 5f47e34d f
 0001:0007d3f5       ?_AfxFillFormatEtc@@YGPAUtagFORMATETC@@PAU1@G0@Z 5f47e3f5 f
 0001:0007d424       ?_AfxCopyGlobalMemory@@YGPAXPAX0@Z 5f47e424 f
 0001:0007d490       ?_AfxCopyStgMedium@@YGHGPAUtagSTGMEDIUM@@0@Z 5f47e490 f
 0001:0007d74d       ?_AfxOleGetObjectDescriptorData@@YGPAXU_GUID@@KUtagSIZE@@U_POINTL@@KPBG3@Z 5f47e74d f
 0001:0007d868       ?_AfxOleGetObjectDescriptorData@@YGPAXPAUIOleObject@@PBGKU_POINTL@@PAUtagSIZE@@@Z 5f47e868 f
 0001:0007dab0       ?_AfxOleDoConvert@@YGJPAUIStorage@@ABU_GUID@@@Z 5f47eab0 f
 0001:0007db6d       ?_AfxOleDoTreatAsClass@@YGJPBDABU_GUID@@1@Z 5f47eb6d f
 0001:0007dbf8       ?_AfxOleCreateTargetDevice@@YGPAUtagDVTARGETDEVICE@@PAUtagDEVNAMES@@PAU_devicemodeA@@@Z 5f47ebf8 f
 0001:0007de86       ?_AfxOleCreateTargetDevice@@YGPAUtagDVTARGETDEVICE@@PAUtagPDA@@@Z 5f47ee86 f
 0001:0007ded5       ?_AfxOleGetFirstMoniker@@YGPAUIMoniker@@PAU1@@Z 5f47eed5 f
 0001:0007df3d       ?_AfxOleGetLenFilePrefixOfMoniker@@YGKPAUIMoniker@@@Z 5f47ef3d f
 0001:0007e013       ?_AfxOleCopyTargetDevice@@YGPAUtagDVTARGETDEVICE@@PAU1@@Z 5f47f013 f
 0001:0007e042       ?_AfxOleCopyFormatEtc@@YGXPAUtagFORMATETC@@0@Z 5f47f042 f
 0001:0007e074       ?_AfxOleCreateDC@@YGPAUHDC__@@PAUtagDVTARGETDEVICE@@@Z 5f47f074 f
 0001:0007e1bb       ?_AfxDeleteMetafilePict@@YGXPAX@Z 5f47f1bb f
 0001:0007e1e4       ?_AfxXformSizeInPixelsToHimetric@@YGXPAUHDC__@@PAUtagSIZE@@1@Z 5f47f1e4 f
 0001:0007e24b       ?_AfxXformSizeInHimetricToPixels@@YGXPAUHDC__@@PAUtagSIZE@@1@Z 5f47f24b f
 0001:0007e2b8       ??0COleStreamFile@@QAE@PAUIStream@@@Z 5f47f2b8 f
 0001:0007e388       ?Detach@COleStreamFile@@QAEPAUIStream@@XZ 5f47f388 f
 0001:0007e390       ?Attach@COleStreamFile@@QAEXPAUIStream@@@Z 5f47f390 f
 0001:0007e39e       ?_AfxReadFromStream@@YGJPAUIStream@@PAXIAAK@Z 5f47f39e f
 0001:0007e3c7       ?_AfxFillOleFileException@@YGXPAVCFileException@@J@Z 5f47f3c7 f
 0001:0007e430       ?_AfxThrowOleFileException@@YGXJ@Z 5f47f430 f
 0001:0007e4b6       ?GetStatus@COleStreamFile@@QBEHAAUCFileStatus@@@Z 5f47f4b6 f
 0001:0007e57f       ?GetStorageName@COleStreamFile@@UBE?BVCString@@XZ 5f47f57f f
 0001:0007e59a       ?GetPosition@COleStreamFile@@UBEKXZ 5f47f59a f
 0001:0007e5c7       ?OpenStream@COleStreamFile@@QAEHPAUIStorage@@PBDKPAVCFileException@@@Z 5f47f5c7 f
 0001:0007e644       ?CreateStream@COleStreamFile@@QAEHPAUIStorage@@PBDKPAVCFileException@@@Z 5f47f644 f
 0001:0007e739       ?CreateMemoryStream@COleStreamFile@@QAEHPAVCFileException@@@Z 5f47f739 f
 0001:0007e76a       ?Duplicate@COleStreamFile@@UBEPAVCFile@@XZ 5f47f76a f
 0001:0007e7e2       ?Seek@COleStreamFile@@UAEJJI@Z 5f47f7e2 f
 0001:0007e817       ?SetLength@COleStreamFile@@UAEXK@Z 5f47f817 f
 0001:0007e837       ?GetLength@COleStreamFile@@UBEKXZ 5f47f837 f
 0001:0007e85b       ?Read@COleStreamFile@@UAEIPAXI@Z 5f47f85b f
 0001:0007e881       ?Write@COleStreamFile@@UAEXPBXI@Z 5f47f881 f
 0001:0007e8ab       ?LockRange@COleStreamFile@@UAEXKK@Z 5f47f8ab f
 0001:0007e8d9       ?UnlockRange@COleStreamFile@@UAEXKK@Z 5f47f8d9 f
 0001:0007e907       ?Abort@COleStreamFile@@UAEXXZ 5f47f907 f
 0001:0007e92c       ?Flush@COleStreamFile@@UAEXXZ 5f47f92c f
 0001:0007e942       ?Close@COleStreamFile@@UAEXXZ 5f47f942 f
 0001:0007e965       ?GetStream@COleStreamFile@@QBEPAUIStream@@XZ 5f47f965 f
 0001:0007e969       ?EnableAggregation@CCmdTarget@@QAEXXZ 5f47f969 f
 0001:0007e9e2       ?AddRef@CInnerUnknown@@UAGKXZ 5f47f9e2 f
 0001:0007e9f3       ?Release@CInnerUnknown@@UAGKXZ 5f47f9f3 f
 0001:0007ea34       ?QueryInterface@CInnerUnknown@@UAGJABU_GUID@@PAPAX@Z 5f47fa34 f
 0001:0007ea7b       ?GetControllingUnknown@CCmdTarget@@QAEPAUIUnknown@@XZ 5f47fa7b f
 0001:0007ea8d       ?Flush@CMonikerFile@@UAEXXZ 5f47fa8d f
 0001:0007ea9b       ?Open@CMonikerFile@@MAEHPBDPAUIBindHost@@PAUIBindStatusCallback@@PAUIBindCtx@@PAVCFileException@@@Z 5f47fa9b f
 0001:0007eac1       ?Attach@CMonikerFile@@IAEHPBDPAUIBindHost@@PAUIBindStatusCallback@@PAUIBindCtx@@PAVCFileException@@@Z 5f47fac1 f
 0001:0007eba6       ?Open@CMonikerFile@@UAEHPBDPAVCFileException@@@Z 5f47fba6 f
 0001:0007ec2f       ?Open@CMonikerFile@@UAEHPAUIMoniker@@PAVCFileException@@@Z 5f47fc2f f
 0001:0007ecbb       ?Open@CMonikerFile@@MAEHPAUIMoniker@@PAUIBindHost@@PAUIBindStatusCallback@@PAUIBindCtx@@PAVCFileException@@@Z 5f47fcbb f
 0001:0007ece1       ?Attach@CMonikerFile@@IAEHPAUIMoniker@@PAUIBindHost@@PAUIBindStatusCallback@@PAUIBindCtx@@PAVCFileException@@@Z 5f47fce1 f
 0001:0007ed99       ?Close@CMonikerFile@@UAEXXZ 5f47fd99 f
 0001:0007edbc       ?Detach@CMonikerFile@@QAEHPAVCFileException@@@Z 5f47fdbc f
 0001:0007ee1e       ?CreateBindHost@CMonikerFile@@KAPAUIBindHost@@XZ 5f47fe1e f
 0001:0007ee60       ??0_AfxBindHost@@QAE@XZ    5f47fe60 f
 0001:0007ee76       ?AddRef@_AfxBindHost@@UAGKXZ 5f47fe76 f
 0001:0007ee87       ?Release@_AfxBindHost@@UAGKXZ 5f47fe87 f
 0001:0007eeb1       ?QueryInterface@_AfxBindHost@@UAGJABU_GUID@@PAPAX@Z 5f47feb1 f
 0001:0007ef06       ?CreateMoniker@_AfxBindHost@@UAGJPAGPAUIBindCtx@@PAPAUIMoniker@@K@Z 5f47ff06 f
 0001:0007ef49       ?MonikerBindToStorage@_AfxBindHost@@UAGJPAUIMoniker@@PAUIBindCtx@@PAUIBindStatusCallback@@ABU_GUID@@PAPAX@Z 5f47ff49 f
 0001:0007f02e       ?MonikerBindToObject@_AfxBindHost@@EAGJPAUIMoniker@@PAUIBindCtx@@PAUIBindStatusCallback@@ABU_GUID@@PAPAX@Z 5f48002e f
 0001:0007f036       ??0IBindHost@@QAE@XZ       5f480036 f
 0001:0007f048       ??_G_AfxBindHost@@QAEPAXI@Z 5f480048 f
 0001:0007f064       ??1_AfxBindHost@@QAE@XZ    5f480064 f
 0001:0007f06b       ??0IUnknown@@QAE@XZ        5f48006b f
 0001:0007f06e       ?CreateBindContext@CMonikerFile@@IAEPAUIBindCtx@@PAVCFileException@@@Z 5f48006e f
 0001:0007f073       ?PostBindToStream@CMonikerFile@@MAEHPAVCFileException@@@Z 5f480073 f
 0001:0007f0d2       ?_AfxTrySPForBindHost@@YGPAUIBindHost@@PAUIServiceProvider@@@Z 5f4800d2 f
 0001:0007f0f8       ?_AfxTryQIForBindHost@@YGPAUIBindHost@@PAUIUnknown@@@Z 5f4800f8 f
 0001:0007f147       ??0CAsyncMonikerFile@@QAE@XZ 5f480147 f
 0001:0007f186       ?EndCallbacks@CAsyncMonikerFile@@IAEXXZ 5f480186 f
 0001:0007f1a9       ?Orphan@_AfxBindStatusCallback@@QAEXXZ 5f4801a9 f
 0001:0007f1ae       ?GetInnerUnknown@_AfxBindStatusCallback@@QAEPAUIUnknown@@XZ 5f4801ae f
 0001:0007f1b2       ?Read@CAsyncMonikerFile@@UAEIPAXI@Z 5f4801b2 f
 0001:0007f1e6       ?Close@CAsyncMonikerFile@@UAEXXZ 5f4801e6 f
 0001:0007f223       ?Open@CAsyncMonikerFile@@UAEHPAUIMoniker@@PAUIBindHost@@PAVCFileException@@@Z 5f480223 f
 0001:0007f309       ??1?$CIP@UIUnknown@@$1?IID_IUnknown@@3U_GUID@@B@@QAE@XZ 5f480309 f
 0001:0007f30e       ?Open@CAsyncMonikerFile@@UAEHPBDPAUIBindHost@@PAVCFileException@@@Z 5f48030e f
 0001:0007f3f4       ?Open@CAsyncMonikerFile@@UAEHPBDPAVCFileException@@@Z 5f4803f4 f
 0001:0007f450       ?Open@CAsyncMonikerFile@@UAEHPAUIMoniker@@PAVCFileException@@@Z 5f480450 f
 0001:0007f4ac       ?Open@CAsyncMonikerFile@@UAEHPBDPAUIServiceProvider@@PAVCFileException@@@Z 5f4804ac f
 0001:0007f561       ?Open@CAsyncMonikerFile@@UAEHPBDPAUIUnknown@@PAVCFileException@@@Z 5f480561 f
 0001:0007f650       ?Open@CAsyncMonikerFile@@UAEHPAUIMoniker@@PAUIServiceProvider@@PAVCFileException@@@Z 5f480650 f
 0001:0007f705       ?Open@CAsyncMonikerFile@@UAEHPAUIMoniker@@PAUIUnknown@@PAVCFileException@@@Z 5f480705 f
 0001:0007f7fa       ?PostBindToStream@CAsyncMonikerFile@@MAEHPAVCFileException@@@Z 5f4807fa f
 0001:0007f820       ?CreateBindStatusCallback@CAsyncMonikerFile@@MAEPAUIUnknown@@PAU2@@Z 5f480820 f
 0001:0007f87a       ??0_AfxBindStatusCallback@@QAE@PAVCAsyncMonikerFile@@PAUIUnknown@@@Z 5f48087a f
 0001:0007f8c8       ??0CInnerUnknown@_AfxBindStatusCallback@@QAE@XZ 5f4808c8 f
 0001:0007f8da       ?SetpThis@CInnerUnknown@_AfxBindStatusCallback@@QAEXPAV2@@Z 5f4808da f
 0001:0007f8e4       ?AddRef@CInnerUnknown@_AfxBindStatusCallback@@UAGKXZ 5f4808e4 f
 0001:0007f8f8       ?Release@CInnerUnknown@_AfxBindStatusCallback@@UAGKXZ 5f4808f8 f
 0001:0007f926       ?QueryInterface@CInnerUnknown@_AfxBindStatusCallback@@UAGJABU_GUID@@PAPAX@Z 5f480926 f
 0001:0007f984       ?AddRef@_AfxBindStatusCallback@@UAGKXZ 5f480984 f
 0001:0007f994       ?Release@_AfxBindStatusCallback@@UAGKXZ 5f480994 f
 0001:0007f9a4       ?QueryInterface@_AfxBindStatusCallback@@UAGJABU_GUID@@PAPAX@Z 5f4809a4 f
 0001:0007f9bb       ?GetBindInfo@_AfxBindStatusCallback@@EAGJPAKPAU_tagBINDINFO@@@Z 5f4809bb f
 0001:0007fa64       ?OnStartBinding@_AfxBindStatusCallback@@EAGJKPAUIBinding@@@Z 5f480a64 f
 0001:0007fafb       ?GetPriority@_AfxBindStatusCallback@@EAGJPAJ@Z 5f480afb f
 0001:0007fb8b       ?OnProgress@_AfxBindStatusCallback@@EAGJKKKPBG@Z 5f480b8b f
 0001:0007fc46       ?OnDataAvailable@_AfxBindStatusCallback@@EAGJKKPAUtagFORMATETC@@PAUtagSTGMEDIUM@@@Z 5f480c46 f
 0001:0007fd4f       ?OnLowResource@_AfxBindStatusCallback@@EAGJK@Z 5f480d4f f
 0001:0007fdcf       ?OnStopBinding@_AfxBindStatusCallback@@EAGJJPBG@Z 5f480dcf f
 0001:0007fe9a       ?OnObjectAvailable@_AfxBindStatusCallback@@EAGJABU_GUID@@PAUIUnknown@@@Z 5f480e9a f
 0001:0007fea2       ??_G_AfxBindStatusCallback@@QAEPAXI@Z 5f480ea2 f
 0001:0007febe       ??1_AfxBindStatusCallback@@QAE@XZ 5f480ebe f
 0001:0007fefc       ??0IBindStatusCallback@@QAE@XZ 5f480efc f
 0001:0007ff0e       ?GetBindInfo@CAsyncMonikerFile@@MBEKXZ 5f480f0e f
 0001:0007ff12       ?GetPriority@CAsyncMonikerFile@@MBEJXZ 5f480f12 f
 0001:0007ff15       ?OnDataAvailable@CAsyncMonikerFile@@MAEXKK@Z 5f480f15 f
 0001:0007ff18       ?OnLowResource@CAsyncMonikerFile@@MAEXXZ 5f480f18 f
 0001:0007ff19       ?OnProgress@CAsyncMonikerFile@@MAEXKKKPBD@Z 5f480f19 f
 0001:0007ff1c       ??0COleFrameHook@@QAE@PAVCFrameWnd@@PAVCOleClientItem@@@Z 5f480f1c f
 0001:0007ff8a       ??_ECOleFrameHook@@UAEPAXI@Z 5f480f8a f
 0001:0007ff8a       ??_GCOleFrameHook@@UAEPAXI@Z 5f480f8a f
 0001:0007ffa6       ??1COleFrameHook@@UAE@XZ   5f480fa6 f
 0001:0007fff1       ?OnRecalcLayout@COleFrameHook@@UAEXXZ 5f480ff1 f
 0001:00080033       ?OnDocActivate@COleFrameHook@@UAEHH@Z 5f481033 f
 0001:000800af       ?OnContextHelp@COleFrameHook@@UAEHH@Z 5f4810af f
 0001:000800d3       ?OnMenuSelect@COleFrameHook@@UAEHIIPAUHMENU__@@@Z 5f4810d3 f
 0001:00080152       ?OnInitMenu@COleFrameHook@@UAEXPAVCMenu@@@Z 5f481152 f
 0001:0008016f       ?OnInitMenuPopup@COleFrameHook@@UAEHPAVCMenu@@HH@Z 5f48116f f
 0001:000801c2       ?OnPreTranslateMessage@COleFrameHook@@UAEHPAUtagMSG@@@Z 5f4811c2 f
 0001:00080248       ?OnActivate@COleFrameHook@@UAEXH@Z 5f481248 f
 0001:00080276       ?OnEnableModeless@COleFrameHook@@UAEXH@Z 5f481276 f
 0001:00080295       ?OnUpdateFrameTitle@COleFrameHook@@UAEHXZ 5f481295 f
 0001:000802b0       ?OnPaletteChanged@COleFrameHook@@UAEXPAVCWnd@@@Z 5f4812b0 f
 0001:000802db       ?OnQueryNewPalette@COleFrameHook@@UAEHXZ 5f4812db f
 0001:000802fd       ?NotifyAllInPlace@COleFrameHook@@QAEHHP81@AEHH@Z@Z 5f4812fd f
 0001:000803e6       ?DoContextSensitiveHelp@COleFrameHook@@QAEHH@Z 5f4813e6 f
 0001:000803ff       ?DoEnableModeless@COleFrameHook@@QAEHH@Z 5f4813ff f
 0001:00080439       ?CanActivate@COleClientItem@@MAEHXZ 5f481439 f
 0001:000804e0       ?OnActivate@COleClientItem@@UAEXXZ 5f4814e0 f
 0001:00080514       ?OnActivateUI@COleClientItem@@UAEXXZ 5f481514 f
 0001:00080595       ?OnShowControlBars@COleClientItem@@UAEHPAVCFrameWnd@@H@Z 5f481595 f
 0001:00080620       ?OnGetWindowContext@COleClientItem@@MAEHPAPAVCFrameWnd@@0PAUtagOIFI@@@Z 5f481620 f
 0001:0008069c       ?OnScrollBy@COleClientItem@@MAEHVCSize@@@Z 5f48169c f
 0001:000806df       ?OnDeactivateUI@COleClientItem@@UAEXH@Z 5f4816df f
 0001:00080839       ?OnDeactivate@COleClientItem@@UAEXXZ 5f481839 f
 0001:00080892       ?OnDiscardUndoState@COleClientItem@@MAEXXZ 5f481892 f
 0001:00080893       ?DeactivateUI@COleClientItem@@QAEXXZ 5f481893 f
 0001:00080893       ?OnDeactivateAndUndo@COleClientItem@@MAEXXZ 5f481893 f
 0001:000808cf       ?OnChangeItemPosition@COleClientItem@@MAEHABVCRect@@@Z 5f4818cf f
 0001:00080929       ?OnInsertMenus@COleClientItem@@UAEXPAVCMenu@@PAUtagOleMenuGroupWidths@@@Z 5f481929 f
 0001:00080962       ?OnSetMenu@COleClientItem@@UAEXPAVCMenu@@PAXPAUHWND__@@@Z 5f481962 f
 0001:000809d3       ?OnRemoveMenus@COleClientItem@@UAEXPAVCMenu@@@Z 5f4819d3 f
 0001:000809f7       ?OnUpdateFrameTitle@COleClientItem@@UAEHXZ 5f4819f7 f
 0001:000809fa       ?Deactivate@COleClientItem@@QAEXXZ 5f4819fa f
 0001:00080a51       ?SetItemRects@COleClientItem@@QAEHPBUtagRECT@@0@Z 5f481a51 f
 0001:00080abc       ?ReactivateAndUndo@COleClientItem@@QAEHXZ 5f481abc f
 0001:00080afb       ?GetInPlaceWindow@COleClientItem@@QAEPAVCWnd@@XZ 5f481afb f
 0001:00080b2c       ?_GetBaseInterfaceMap@COleFrameHook@@KGPBUAFX_INTERFACEMAP@@XZ 5f481b2c f
 0001:00080b32       ?GetInterfaceMap@COleFrameHook@@MBEPBUAFX_INTERFACEMAP@@XZ 5f481b32 f
 0001:00080b38       ?GetInterfaceHook@COleFrameHook@@UAEPAUIUnknown@@PBX@Z 5f481b38 f
 0001:00080b6c       ?AddRef@XOleCommandTarget@COleFrameHook@@UAGKXZ 5f481b6c f
 0001:00080b7b       ?Release@XOleCommandTarget@COleFrameHook@@UAGKXZ 5f481b7b f
 0001:00080b8a       ?QueryInterface@XOleCommandTarget@COleFrameHook@@UAGJABU_GUID@@PAPAX@Z 5f481b8a f
 0001:00080ba1       ?Exec@XOleCommandTarget@COleFrameHook@@UAGJPBU_GUID@@KKPAUtagVARIANT@@1@Z 5f481ba1 f
 0001:00080bde       ?QueryStatus@XOleCommandTarget@COleFrameHook@@UAGJPBU_GUID@@KQAU_tagOLECMD@@PAU_tagOLECMDTEXT@@@Z 5f481bde f
 0001:00080c18       ?AddRef@XOleInPlaceFrame@COleFrameHook@@UAGKXZ 5f481c18 f
 0001:00080c27       ?Release@XOleInPlaceFrame@COleFrameHook@@UAGKXZ 5f481c27 f
 0001:00080c36       ?QueryInterface@XOleInPlaceFrame@COleFrameHook@@UAGJABU_GUID@@PAPAX@Z 5f481c36 f
 0001:00080c4d       ?GetWindow@XOleInPlaceFrame@COleFrameHook@@UAGJPAPAUHWND__@@@Z 5f481c4d f
 0001:00080c6b       ?ContextSensitiveHelp@XOleInPlaceFrame@COleFrameHook@@UAGJH@Z 5f481c6b f
 0001:00080d03       ?GetBorder@XOleInPlaceFrame@COleFrameHook@@UAGJPAUtagRECT@@@Z 5f481d03 f
 0001:00080da3       ?RequestBorderSpace@XOleInPlaceFrame@COleFrameHook@@UAGJPBUtagRECT@@@Z 5f481da3 f
 0001:00080df7       ?SetBorderSpace@XOleInPlaceFrame@COleFrameHook@@UAGJPBUtagRECT@@@Z 5f481df7 f
 0001:00080e76       ?SetActiveObject@XOleInPlaceFrame@COleFrameHook@@UAGJPAUIOleInPlaceActiveObject@@PBG@Z 5f481e76 f
 0001:00080f16       ?InsertMenus@XOleInPlaceFrame@COleFrameHook@@UAGJPAUHMENU__@@PAUtagOleMenuGroupWidths@@@Z 5f481f16 f
 0001:00080f8e       ?SetMenu@XOleInPlaceFrame@COleFrameHook@@UAGJPAUHMENU__@@PAXPAUHWND__@@@Z 5f481f8e f
 0001:00081009       ?RemoveMenus@XOleInPlaceFrame@COleFrameHook@@UAGJPAUHMENU__@@@Z 5f482009 f
 0001:0008107e       ?SetStatusText@XOleInPlaceFrame@COleFrameHook@@UAGJPBG@Z 5f48207e f
 0001:000810df       ?EnableModeless@XOleInPlaceFrame@COleFrameHook@@UAGJH@Z 5f4820df f
 0001:00081156       ?TranslateAcceleratorA@XOleInPlaceFrame@COleFrameHook@@UAGJPAUtagMSG@@G@Z 5f482156 f
 0001:000811f4       ?AddRef@XOleIPSite@COleClientItem@@UAGKXZ 5f4821f4 f
 0001:00081203       ?Release@XOleIPSite@COleClientItem@@UAGKXZ 5f482203 f
 0001:00081212       ?QueryInterface@XOleIPSite@COleClientItem@@UAGJABU_GUID@@PAPAX@Z 5f482212 f
 0001:00081229       ?GetWindow@XOleIPSite@COleClientItem@@UAGJPAPAUHWND__@@@Z 5f482229 f
 0001:0008124e       ?ContextSensitiveHelp@XOleIPSite@COleClientItem@@UAGJH@Z 5f48224e f
 0001:00081271       ?CanInPlaceActivate@XOleIPSite@COleClientItem@@UAGJXZ 5f482271 f
 0001:000812ba       ?OnInPlaceActivate@XOleIPSite@COleClientItem@@UAGJXZ 5f4822ba f
 0001:00081326       ?OnUIActivate@XOleIPSite@COleClientItem@@UAGJXZ 5f482326 f
 0001:00081392       ?GetWindowContext@XOleIPSite@COleClientItem@@UAGJPAPAUIOleInPlaceFrame@@PAPAUIOleInPlaceUIWindow@@PAUtagRECT@@2PAUtagOIFI@@@Z 5f482392 f
 0001:0008150d       ?Scroll@XOleIPSite@COleClientItem@@UAGJUtagSIZE@@@Z 5f48250d f
 0001:00081582       ?OnUIDeactivate@XOleIPSite@COleClientItem@@UAGJH@Z 5f482582 f
 0001:000815f1       ?OnInPlaceDeactivate@XOleIPSite@COleClientItem@@UAGJXZ 5f4825f1 f
 0001:0008165d       ?DiscardUndoState@XOleIPSite@COleClientItem@@UAGJXZ 5f48265d f
 0001:000816c9       ?DeactivateAndUndo@XOleIPSite@COleClientItem@@UAGJXZ 5f4826c9 f
 0001:00081735       ?OnPosRectChange@XOleIPSite@COleClientItem@@UAGJPBUtagRECT@@@Z 5f482735 f
 0001:000817b2       ?_AfxOlePropertiesEnabled@@YGHXZ 5f4827b2 f
 0001:000817fa       ?_AfxParseDisplayName@@YAJPAUIMoniker@@PAUIBindCtx@@PADPAKPAPAU1@@Z 5f4827fa f
 0001:0008194c       ?AddRef@COleUILinkInfo@@UAGKXZ 5f48294c f
 0001:0008197b       ?SetLinkUpdateOptions@COleUILinkInfo@@UAGJKK@Z 5f48297b f
 0001:000819cd       ?GetLinkUpdateOptions@COleUILinkInfo@@UAGJKPAK@Z 5f4829cd f
 0001:00081a32       ?SetLinkSource@COleUILinkInfo@@UAGJKPADKPAKH@Z 5f482a32 f
 0001:00081c43       ?GetLinkSource@COleUILinkInfo@@UAGJKPAPADPAK00PAH2@Z 5f482c43 f
 0001:00081d9a       ?OpenLinkSource@COleUILinkInfo@@UAGJK@Z 5f482d9a f
 0001:00081ded       ?UpdateLink@COleUILinkInfo@@UAGJKHH@Z 5f482ded f
 0001:00081e5f       ?CancelLink@COleUILinkInfo@@UAGJK@Z 5f482e5f f
 0001:00081ed5       ?GetLastUpdate@COleUILinkInfo@@UAGJKPAU_FILETIME@@@Z 5f482ed5 f
 0001:00081eda       ??0COleInsertDialog@@QAE@KPAVCWnd@@@Z 5f482eda f
 0001:00081f7a       ??_ECOleInsertDialog@@UAEPAXI@Z 5f482f7a f
 0001:00081f7a       ??_GCOleInsertDialog@@UAEPAXI@Z 5f482f7a f
 0001:00081f96       ??1COleDialog@@UAE@XZ      5f482f96 f
 0001:00081f9b       ?AddClassIDToList@COleInsertDialog@@IAEXAAPAU_GUID@@AAH1PAU2@@Z 5f482f9b f
 0001:00082011       ?DoModal@COleInsertDialog@@QAEHK@Z 5f483011 f
 0001:00082346       ?DoModal@COleInsertDialog@@UAEHXZ 5f483346 f
 0001:00082371       ?GetSelectionType@COleInsertDialog@@QBEIXZ 5f483371 f
 0001:00082385       ?CreateItem@COleInsertDialog@@QAEHPAVCOleClientItem@@@Z 5f483385 f
 0001:00082411       ??0COleConvertDialog@@QAE@PAVCOleClientItem@@KPAU_GUID@@PAVCWnd@@@Z 5f483411 f
 0001:0008258e       ??_ECOleConvertDialog@@UAEPAXI@Z 5f48358e f
 0001:0008258e       ??_GCOleConvertDialog@@UAEPAXI@Z 5f48358e f
 0001:000825aa       ?DoModal@COleConvertDialog@@UAEHXZ 5f4835aa f
 0001:000825d5       ?DoConvert@COleConvertDialog@@QAEHPAVCOleClientItem@@@Z 5f4835d5 f
 0001:000826df       ?GetSelectionType@COleConvertDialog@@QBEIXZ 5f4836df f
 0001:00082716       ??0COleChangeIconDialog@@QAE@PAVCOleClientItem@@KPAVCWnd@@@Z 5f483716 f
 0001:000827b2       ??_GCOleChangeIconDialog@@UAEPAXI@Z 5f4837b2 f
 0001:000827b2       ??_ECOleChangeIconDialog@@UAEPAXI@Z 5f4837b2 f
 0001:000827ce       ?DoModal@COleChangeIconDialog@@UAEHXZ 5f4837ce f
 0001:000827f9       ?DoChangeIcon@COleChangeIconDialog@@QAEHPAVCOleClientItem@@@Z 5f4837f9 f
 0001:00082856       ??_ECOleLinksDialog@@UAEPAXI@Z 5f483856 f
 0001:00082856       ??_GCOleLinksDialog@@UAEPAXI@Z 5f483856 f
 0001:00082872       ?DoModal@COleLinksDialog@@UAEHXZ 5f483872 f
 0001:000828a7       ??_ECOleUpdateDialog@@UAEPAXI@Z 5f4838a7 f
 0001:000828a7       ??_GCOleUpdateDialog@@UAEPAXI@Z 5f4838a7 f
 0001:00082910       ??0COlePasteSpecialDialog@@QAE@KPAVCOleDataObject@@PAVCWnd@@@Z 5f483910 f
 0001:000829ec       ??_ECOlePasteSpecialDialog@@UAEPAXI@Z 5f4839ec f
 0001:000829ec       ??_GCOlePasteSpecialDialog@@UAEPAXI@Z 5f4839ec f
 0001:00082a08       ?DoModal@COlePasteSpecialDialog@@UAEHXZ 5f483a08 f
 0001:00082a43       ?GetSelectionType@COlePasteSpecialDialog@@QBEIXZ 5f483a43 f
 0001:00082a91       ?AddLinkEntry@COlePasteSpecialDialog@@QAE?AW4tagOLEUIPASTEFLAG@@I@Z 5f483a91 f
 0001:00082ae4       ?AddFormat@COlePasteSpecialDialog@@QAEXIKIHH@Z 5f483ae4 f
 0001:00082bcd       ?AddFormat@COlePasteSpecialDialog@@QAEXABUtagFORMATETC@@PAD1K@Z 5f483bcd f
 0001:00082c40       ?AddStandardFormats@COlePasteSpecialDialog@@QAEXH@Z 5f483c40 f
 0001:00082cb4       ?CreateItem@COlePasteSpecialDialog@@QAEHPAVCOleClientItem@@@Z 5f483cb4 f
 0001:00082d87       ?AfxOleHookProc@@YGIPAUHWND__@@IIJ@Z 5f483d87 f
 0001:00082dd2       ?MapResult@COleDialog@@QAEHI@Z 5f483dd2 f
 0001:00082df0       ??0COleBusyDialog@@QAE@PAUHTASK__@@HKPAVCWnd@@@Z 5f483df0 f
 0001:00082e44       ??_GCOleBusyDialog@@UAEPAXI@Z 5f483e44 f
 0001:00082e44       ??_ECOleBusyDialog@@UAEPAXI@Z 5f483e44 f
 0001:00082e60       ?DoModal@COleBusyDialog@@UAEHXZ 5f483e60 f
 0001:00082ef0       ??0COlePropertiesDialog@@QAE@PAVCOleClientItem@@IIPAVCWnd@@@Z 5f483ef0 f
 0001:0008304a       ??_GCOlePropertiesDialog@@UAEPAXI@Z 5f48404a f
 0001:0008304a       ??_ECOlePropertiesDialog@@UAEPAXI@Z 5f48404a f
 0001:00083066       ?DoModal@COlePropertiesDialog@@UAEHXZ 5f484066 f
 0001:000830b2       ?OnInitDialog@COlePropertiesDialog@@UAEHXZ 5f4840b2 f
 0001:000830d9       ?QueryInterface@XOleUIObjInfo@COlePropertiesDialog@@UAGJABU_GUID@@PAPAX@Z 5f4840d9 f
 0001:000830e1       ?GetObjectInfo@XOleUIObjInfo@COlePropertiesDialog@@UAGJKPAKPAPAD111@Z 5f4840e1 f
 0001:000832ce       ?GetConvertInfo@XOleUIObjInfo@COlePropertiesDialog@@UAGJKPAU_GUID@@PAG0PAPAU3@PAI@Z 5f4842ce f
 0001:00083329       ?ConvertObject@XOleUIObjInfo@COlePropertiesDialog@@UAGJKABU_GUID@@@Z 5f484329 f
 0001:00083354       ?GetViewInfo@XOleUIObjInfo@COlePropertiesDialog@@UAGJKPAPAXPAKPAH@Z 5f484354 f
 0001:0008338d       ?SetViewInfo@XOleUIObjInfo@COlePropertiesDialog@@UAGJKPAXKHH@Z 5f48438d f
 0001:00083420       ??0COleChangeSourceDialog@@QAE@PAVCOleClientItem@@PAVCWnd@@@Z 5f484420 f
 0001:000834ab       ??_ECOleChangeSourceDialog@@UAEPAXI@Z 5f4844ab f
 0001:000834ab       ??_GCOleChangeSourceDialog@@UAEPAXI@Z 5f4844ab f
 0001:000834c7       ?DoModal@COleChangeSourceDialog@@UAEHXZ 5f4844c7 f
 0001:000834f2       ?PreInitDialog@COleChangeSourceDialog@@UAEXXZ 5f4844f2 f
 0001:0008350c       ??1COleChangeSourceDialog@@UAE@XZ 5f48450c f
 0001:0008353e       ?ReportError@COleClientItem@@UBEHJ@Z 5f48453e f
 0001:0008358c       ?DoVerb@COleClientItem@@UAEHJPAVCView@@PAUtagMSG@@@Z 5f48458c f
 0001:00083688       ?GetPrimarySelectedItem@COleDocument@@UAEPAVCOleClientItem@@PAVCView@@@Z 5f484688 f
 0001:00083708       ?AfxOleSetEditMenu@@YGXPAVCOleClientItem@@PAVCMenu@@IIII@Z 5f484708 f
 0001:0008379e       ?OnUpdatePasteMenu@COleDocument@@IAEXPAVCCmdUI@@@Z 5f48479e f
 0001:000837b5       ?OnUpdatePasteLinkMenu@COleDocument@@IAEXPAVCCmdUI@@@Z 5f4847b5 f
 0001:000837cc       ?OnUpdateEditLinksMenu@COleDocument@@IAEXPAVCCmdUI@@@Z 5f4847cc f
 0001:0008380a       ?OnEditLinks@COleDocument@@IAEXXZ 5f48480a f
 0001:0008385e       ?OnEditConvert@COleDocument@@IAEXXZ 5f48485e f
 0001:000838d6       ?OnUpdateEditChangeIcon@COleDocument@@IAEXPAVCCmdUI@@@Z 5f4848d6 f
 0001:00083904       ?OnEditChangeIcon@COleDocument@@IAEXXZ 5f484904 f
 0001:0008397b       ?OnUpdateObjectVerbMenu@COleDocument@@IAEXPAVCCmdUI@@@Z 5f48497b f
 0001:00083a0a       ?Attach@COleDataObject@@QAEXPAUIDataObject@@H@Z 5f484a0a f
 0001:00083a37       ?Detach@COleDataObject@@QAEPAUIDataObject@@XZ 5f484a37 f
 0001:00083a4a       ?GetIDataObject@COleDataObject@@QAEPAUIDataObject@@H@Z 5f484a4a f
 0001:00083a6b       ?BeginEnumFormats@COleDataObject@@QAEXXZ 5f484a6b f
 0001:00083a8f       ?GetNextFormat@COleDataObject@@QAEHPAUtagFORMATETC@@@Z 5f484a8f f
 0001:00083abd       ?GetFileData@COleDataObject@@QAEPAVCFile@@GPAUtagFORMATETC@@@Z 5f484abd f
 0001:00083c86       ?GetGlobalData@COleDataObject@@QAEPAXGPAUtagFORMATETC@@@Z 5f484c86 f
 0001:00083d24       ?GetData@COleDataObject@@QAEHGPAUtagSTGMEDIUM@@PAUtagFORMATETC@@@Z 5f484d24 f
 0001:00083d86       ?EnsureClipboardObject@COleDataObject@@QAEXXZ 5f484d86 f
 0001:00083db5       ??0COleDataSource@@QAE@XZ  5f484db5 f
 0001:00083de0       ?Empty@COleDataSource@@QAEXXZ 5f484de0 f
 0001:00083e31       ?SetClipboard@COleDataSource@@QAEXXZ 5f484e31 f
 0001:00083e93       ?GetCacheEntry@COleDataSource@@IAEPAUAFX_DATACACHE_ENTRY@@PAUtagFORMATETC@@W4tagDATADIR@@@Z 5f484e93 f
 0001:00083f36       ?CacheGlobalData@COleDataSource@@QAEXGPAXPAUtagFORMATETC@@@Z 5f484f36 f
 0001:00083f71       ?CacheData@COleDataSource@@QAEXGPAUtagSTGMEDIUM@@PAUtagFORMATETC@@@Z 5f484f71 f
 0001:00083fa8       ?DelayRenderFileData@COleDataSource@@QAEXGPAUtagFORMATETC@@@Z 5f484fa8 f
 0001:00083fde       ?DelayRenderData@COleDataSource@@QAEXGPAUtagFORMATETC@@@Z 5f484fde f
 0001:0008402d       ?DelaySetData@COleDataSource@@QAEXGPAUtagFORMATETC@@@Z 5f48502d f
 0001:0008405f       ?Lookup@COleDataSource@@IBEPAUAFX_DATACACHE_ENTRY@@PAUtagFORMATETC@@W4tagDATADIR@@@Z 5f48505f f
 0001:000840eb       ?OnRenderGlobalData@COleDataSource@@UAEHPAUtagFORMATETC@@PAPAX@Z 5f4850eb f
 0001:000840f0       ?OnRenderData@COleDataSource@@UAEHPAUtagFORMATETC@@PAUtagSTGMEDIUM@@@Z 5f4850f0 f
 0001:00084244       ?OnSetData@COleDataSource@@UAEHPAUtagFORMATETC@@PAUtagSTGMEDIUM@@H@Z 5f485244 f
 0001:00084249       ?GetInterfaceMap@CEnumFormatEtc@@MBEPBUAFX_INTERFACEMAP@@XZ 5f485249 f
 0001:0008424f       ??0CEnumFormatEtc@@QAE@XZ  5f48524f f
 0001:0008426d       ??_ECEnumFormatEtc@@UAEPAXI@Z 5f48526d f
 0001:0008426d       ??_GCEnumFormatEtc@@UAEPAXI@Z 5f48526d f
 0001:00084289       ??1CEnumFormatEtc@@UAE@XZ  5f485289 f
 0001:000842c2       ?OnNext@CEnumFormatEtc@@MAEHPAX@Z 5f4852c2 f
 0001:000842f1       ?AddFormat@CEnumFormatEtc@@QAEXPBUtagFORMATETC@@@Z 5f4852f1 f
 0001:00084367       ?GetInterfaceMap@COleDataSource@@MBEPBUAFX_INTERFACEMAP@@XZ 5f485367 f
 0001:0008436d       ?AddRef@XDataObject@COleDataSource@@UAGKXZ 5f48536d f
 0001:0008437c       ?Release@XDataObject@COleDataSource@@UAGKXZ 5f48537c f
 0001:0008438b       ?QueryInterface@XDataObject@COleDataSource@@UAGJABU_GUID@@PAPAX@Z 5f48538b f
 0001:000843a2       ?GetData@XDataObject@COleDataSource@@UAGJPAUtagFORMATETC@@PAUtagSTGMEDIUM@@@Z 5f4853a2 f
 0001:00084464       ?GetDataHere@XDataObject@COleDataSource@@UAGJPAUtagFORMATETC@@PAUtagSTGMEDIUM@@@Z 5f485464 f
 0001:00084519       ?QueryGetData@XDataObject@COleDataSource@@UAGJPAUtagFORMATETC@@@Z 5f485519 f
 0001:0008453c       ?GetCanonicalFormatEtc@XDataObject@COleDataSource@@UAGJPAUtagFORMATETC@@0@Z 5f48553c f
 0001:00084544       ?SetData@XDataObject@COleDataSource@@UAGJPAUtagFORMATETC@@PAUtagSTGMEDIUM@@H@Z 5f485544 f
 0001:000845dc       ?EnumFormatEtc@XDataObject@COleDataSource@@UAGJKPAPAUIEnumFORMATETC@@@Z 5f4855dc f
 0001:00084683       ?DAdvise@XDataObject@COleDataSource@@UAGJPAUtagFORMATETC@@KPAUIAdviseSink@@PAK@Z 5f485683 f
 0001:00084692       ?DUnadvise@XDataObject@COleDataSource@@UAGJK@Z 5f485692 f
 0001:0008469a       ?EnumDAdvise@XDataObject@COleDataSource@@UAGJPAPAUIEnumSTATDATA@@@Z 5f48569a f
 0001:000846a9       ??0CEnumArray@@QAE@IPBXIH@Z 5f4856a9 f
 0001:000846e8       ??_GCEnumArray@@UAEPAXI@Z  5f4856e8 f
 0001:000846e8       ??_ECEnumArray@@UAEPAXI@Z  5f4856e8 f
 0001:00084704       ?OnNext@CEnumArray@@MAEHPAX@Z 5f485704 f
 0001:00084734       ?OnSkip@CEnumArray@@MAEHXZ 5f485734 f
 0001:0008474c       ?OnReset@CEnumArray@@MAEXXZ 5f48574c f
 0001:00084751       ?OnClone@CEnumArray@@MAEPAV1@XZ 5f485751 f
 0001:00084797       ?AddRef@XEnumVOID@CEnumArray@@UAGKXZ 5f485797 f
 0001:000847a6       ?Release@XEnumVOID@CEnumArray@@UAGKXZ 5f4857a6 f
 0001:000847b5       ?QueryInterface@XEnumVOID@CEnumArray@@UAGJABU_GUID@@PAPAX@Z 5f4857b5 f
 0001:000847cc       ?Next@XEnumVOID@CEnumArray@@UAGJKPAXPAK@Z 5f4857cc f
 0001:0008486e       ?Skip@XEnumVOID@CEnumArray@@UAGJK@Z 5f48586e f
 0001:000848e6       ?Reset@XEnumVOID@CEnumArray@@UAGJXZ 5f4858e6 f
 0001:00084929       ?Clone@XEnumVOID@CEnumArray@@UAGJPAPAUIEnumVOID@@@Z 5f485929 f
 0001:000849e3       ?VerifyLicenseKey@COleObjectFactory@@MAEHPAG@Z 5f4859e3 f
 0001:00084a40       ?LockServer@XClassFactory@COleObjectFactory@@UAGJH@Z 5f485a40 f
 0001:00084ab0       ?GetLicInfo@XClassFactory@COleObjectFactory@@UAGJPAUtagLICINFO@@@Z 5f485ab0 f
 0001:00084b1e       ?RequestLicKey@XClassFactory@COleObjectFactory@@UAGJKPAPAG@Z 5f485b1e f
 0001:00084bf6       ??0COleCntrFrameWnd@@QAE@PAVCOleIPFrameWnd@@@Z 5f485bf6 f
 0001:00084c37       ??_ECOleCntrFrameWnd@@UAEPAXI@Z 5f485c37 f
 0001:00084c37       ??_GCOleCntrFrameWnd@@UAEPAXI@Z 5f485c37 f
 0001:00084c53       ??1COleCntrFrameWnd@@UAE@XZ 5f485c53 f
 0001:00084c92       ?RecalcLayout@COleCntrFrameWnd@@UAEXH@Z 5f485c92 f
 0001:00084d22       ?OnCmdMsg@COleCntrFrameWnd@@UAEHIHPAXPAUAFX_CMDHANDLERINFO@@@Z 5f485d22 f
 0001:00084d7e       ?PostNcDestroy@COleCntrFrameWnd@@MAEXXZ 5f485d7e f
 0001:00084d7f       ?_GetBaseMessageMap@COleIPFrameWnd@@KGPBUAFX_MSGMAP@@XZ 5f485d7f f
 0001:00084d85       ?GetMessageMap@COleIPFrameWnd@@MBEPBUAFX_MSGMAP@@XZ 5f485d85 f
 0001:00084d8b       ??0COleIPFrameWnd@@QAE@XZ  5f485d8b f
 0001:00084e03       ?OnCreate@COleIPFrameWnd@@IAEHPAUtagCREATESTRUCTA@@@Z 5f485e03 f
 0001:00084e4a       ?OnDestroy@COleIPFrameWnd@@IAEXXZ 5f485e4a f
 0001:00084e95       ?OnCreateControlBars@COleIPFrameWnd@@UAEHPAVCWnd@@0@Z 5f485e95 f
 0001:00084e9b       ?OnCreateControlBars@COleIPFrameWnd@@UAEHPAVCFrameWnd@@0@Z 5f485e9b f
 0001:00084eae       ?OnIdleUpdateCmdUI@COleIPFrameWnd@@IAEXXZ 5f485eae f
 0001:00084ecb       ?OnIdleUpdateCmdUI@COleCntrFrameWnd@@QAEXXZ 5f485ecb f
 0001:00084f0b       ?OnWindowPosChanging@COleIPFrameWnd@@IAEXPAUtagWINDOWPOS@@@Z 5f485f0b f
 0001:00084f4b       ?OnSetMessageString@COleIPFrameWnd@@UAEJIJ@Z 5f485f4b f
 0001:0008501a       ?LoadFrame@COleIPFrameWnd@@UAEHIKPAVCWnd@@PAUCCreateContext@@@Z 5f48601a f
 0001:0008506a       ?OnSize@COleIPFrameWnd@@IAEXIHH@Z 5f48606a f
 0001:0008506d       ?OnResizeChild@COleIPFrameWnd@@IAEJIJ@Z 5f48606d f
 0001:00085129       ?OnRequestPositionChange@COleIPFrameWnd@@MAEXPBUtagRECT@@@Z 5f486129 f
 0001:00085148       ?OnRecalcParent@COleIPFrameWnd@@IAEJIJ@Z 5f486148 f
 0001:00085174       ?RecalcLayout@COleIPFrameWnd@@UAEXH@Z 5f486174 f
 0001:000852d2       ?RepositionFrame@COleIPFrameWnd@@UAEXPBUtagRECT@@0@Z 5f4862d2 f
 0001:00085321       ?PreTranslateMessage@COleIPFrameWnd@@UAEHPAUtagMSG@@@Z 5f486321 f
 0001:000853a6       ?OnUpdateControlBarMenu@COleIPFrameWnd@@IAEXPAVCCmdUI@@@Z 5f4863a6 f
 0001:00085410       ?OnBarCheck@COleIPFrameWnd@@IAEHI@Z 5f486410 f
 0001:0008546f       ?OnContextHelp@COleIPFrameWnd@@IAEXXZ 5f48646f f
 0001:00085509       ?GetInPlaceMenu@COleIPFrameWnd@@MAEPAUHMENU__@@XZ 5f486509 f
 0001:00085518       ?BuildSharedMenu@COleIPFrameWnd@@MAEHXZ 5f486518 f
 0001:000855b2       ?DestroySharedMenu@COleIPFrameWnd@@MAEXXZ 5f4865b2 f
 0001:00085619       ??_ECOleLinkingDoc@@UAEPAXI@Z 5f486619 f
 0001:00085619       ??_GCOleLinkingDoc@@UAEPAXI@Z 5f486619 f
 0001:00085635       ?GetMoniker@COleLinkingDoc@@UAEPAUIMoniker@@W4tagOLEGETMONIKER@@@Z 5f486635 f
 0001:00085706       ?OnSaveDocument@COleLinkingDoc@@UAEHPBD@Z 5f486706 f
 0001:00085764       ?SaveToStorage@COleLinkingDoc@@MAEXPAVCObject@@@Z 5f486764 f
 0001:000857b1       ?GetContainer@COleLinkingDoc@@UAEPAUIOleItemContainer@@XZ 5f4867b1 f
 0001:000857c8       ?OnGetLinkedItem@COleLinkingDoc@@MAEPAVCOleServerItem@@PBD@Z 5f4867c8 f
 0001:000857cd       ?OnFindEmbeddedItem@COleLinkingDoc@@MAEPAVCOleClientItem@@PBD@Z 5f4867cd f
 0001:0008581b       ?ReportSaveLoadException@COleLinkingDoc@@UAEXPBDPAVCException@@HI@Z 5f48681b f
 0001:0008584a       ?EndDeferErrors@COleLinkingDoc@@QAEJJ@Z 5f48684a f
 0001:00085891       ?GetClassID@XPersistFile@COleLinkingDoc@@UAGJPAU_GUID@@@Z 5f486891 f
 0001:000858c4       ?IsDirty@XPersistFile@COleLinkingDoc@@UAGJXZ 5f4868c4 f
 0001:00085910       ?Load@XPersistFile@COleLinkingDoc@@UAGJPBGK@Z 5f486910 f
 0001:00085a30       ?Save@XPersistFile@COleLinkingDoc@@UAGJPBGH@Z 5f486a30 f
 0001:00085b1e       ?SaveCompleted@XPersistFile@COleLinkingDoc@@UAGJPBG@Z 5f486b1e f
 0001:00085bbe       ?GetCurFile@XPersistFile@COleLinkingDoc@@UAGJPAPAG@Z 5f486bbe f
 0001:00085bf6       ?AddRef@XOleItemContainer@COleLinkingDoc@@UAGKXZ 5f486bf6 f
 0001:00085c08       ?Release@XOleItemContainer@COleLinkingDoc@@UAGKXZ 5f486c08 f
 0001:00085c1a       ?QueryInterface@XOleItemContainer@COleLinkingDoc@@UAGJABU_GUID@@PAPAX@Z 5f486c1a f
 0001:00085c34       ?EnumObjects@XOleItemContainer@COleLinkingDoc@@UAGJKPAPAUIEnumUnknown@@@Z 5f486c34 f
 0001:00085c43       ?ParseDisplayName@XOleItemContainer@COleLinkingDoc@@UAGJPAUIBindCtx@@PAGPAKPAPAUIMoniker@@@Z 5f486c43 f
 0001:00085dfe       ?LockContainer@XOleItemContainer@COleLinkingDoc@@UAGJH@Z 5f486dfe f
 0001:00085e18       ?GetObjectA@XOleItemContainer@COleLinkingDoc@@UAGJPAGKPAUIBindCtx@@ABU_GUID@@PAPAX@Z 5f486e18 f
 0001:00085f54       ?GetObjectStorage@XOleItemContainer@COleLinkingDoc@@UAGJPAGPAUIBindCtx@@ABU_GUID@@PAPAX@Z 5f486f54 f
 0001:00086028       ?IsRunning@XOleItemContainer@COleLinkingDoc@@UAGJPAG@Z 5f487028 f
 0001:000860fb       ??1COleTemplateServer@@UAE@XZ 5f4870fb f
 0001:00086100       ?OnCmdMsg@COleTemplateServer@@MAEHIHPAXPAUAFX_CMDHANDLERINFO@@@Z 5f487100 f
 0001:00086125       ?Unregister@COleTemplateServer@@QAEHXZ 5f487125 f
 0001:00086259       ?OnCreateObject@COleTemplateServer@@MAEPAVCCmdTarget@@XZ 5f487259 f
 0001:0008628d       ?AfxDllGetClassObject@@YGJABU_GUID@@0PAPAX@Z 5f48728d f
 0001:0008634b       ?AfxDllCanUnloadNow@@YGJXZ 5f48734b f
 0001:000863ba       ??0COleDropSource@@QAE@XZ  5f4873ba f
 0001:0008644a       ??1COleDropSource@@UAE@XZ  5f48744a f
 0001:0008644f       ?QueryContinueDrag@COleDropSource@@UAEJHK@Z 5f48744f f
 0001:00086482       ?GiveFeedback@COleDropSource@@UAEJK@Z 5f487482 f
 0001:00086491       ?OnBeginDrag@COleDropSource@@UAEHPAVCWnd@@@Z 5f487491 f
 0001:000865c7       ?GetInterfaceMap@COleDropSource@@MBEPBUAFX_INTERFACEMAP@@XZ 5f4875c7 f
 0001:000865cd       ?AddRef@XDropSource@COleDropSource@@UAGKXZ 5f4875cd f
 0001:000865dc       ?Release@XDropSource@COleDropSource@@UAGKXZ 5f4875dc f
 0001:000865eb       ?QueryInterface@XDropSource@COleDropSource@@UAGJABU_GUID@@PAPAX@Z 5f4875eb f
 0001:00086602       ?QueryContinueDrag@XDropSource@COleDropSource@@UAGJHK@Z 5f487602 f
 0001:0008661a       ?GiveFeedback@XDropSource@COleDropSource@@UAGJK@Z 5f48761a f
 0001:0008665e       ?DoDragDrop@COleDataSource@@QAEKKPBUtagRECT@@PAVCOleDropSource@@@Z 5f48765e f
 0001:00086773       ?OnDragScroll@COleDropTarget@@UAEKPAVCWnd@@KVCPoint@@@Z 5f487773 f
 0001:000869b5       ?OnDragEnter@COleDropTarget@@UAEKPAVCWnd@@PAVCOleDataObject@@KVCPoint@@@Z 5f4879b5 f
 0001:000869e7       ?OnDragOver@COleDropTarget@@UAEKPAVCWnd@@PAVCOleDataObject@@KVCPoint@@@Z 5f4879e7 f
 0001:00086a19       ?OnDrop@COleDropTarget@@UAEHPAVCWnd@@PAVCOleDataObject@@KVCPoint@@@Z 5f487a19 f
 0001:00086a4b       ?OnDropEx@COleDropTarget@@UAEKPAVCWnd@@PAVCOleDataObject@@KKVCPoint@@@Z 5f487a4b f
 0001:00086a85       ?OnDragLeave@COleDropTarget@@UAEXPAVCWnd@@@Z 5f487a85 f
 0001:00086aa8       ?_AfxFilterDropEffect@@YGKKK@Z 5f487aa8 f
 0001:00086adc       ?DragEnter@XDropTarget@COleDropTarget@@UAGJPAUIDataObject@@KU_POINTL@@PAK@Z 5f487adc f
 0001:00086bda       ?DragOver@XDropTarget@COleDropTarget@@UAGJKU_POINTL@@PAK@Z 5f487bda f
 0001:00086cc3       ?DragLeave@XDropTarget@COleDropTarget@@UAGJXZ 5f487cc3 f
 0001:00086d4b       ?Drop@XDropTarget@COleDropTarget@@UAGJPAUIDataObject@@KU_POINTL@@PAK@Z 5f487d4b f
 0001:00086e75       ?BeginBusyState@COleMessageFilter@@UAEXXZ 5f487e75 f
 0001:00086e79       ?EndBusyState@COleMessageFilter@@UAEXXZ 5f487e79 f
 0001:00086e85       ?IsSignificantMessage@COleMessageFilter@@UAEHPAUtagMSG@@@Z 5f487e85 f
 0001:00086edb       ?OnBusyDialog@COleMessageFilter@@UAEHPAUHTASK__@@@Z 5f487edb f
 0001:00086f56       ?OnNotRespondingDialog@COleMessageFilter@@UAEHPAUHTASK__@@@Z 5f487f56 f
 0001:00086fd2       ?GetInterfaceMap@COleMessageFilter@@MBEPBUAFX_INTERFACEMAP@@XZ 5f487fd2 f
 0001:00086fd8       ?QueryInterface@XMessageFilter@COleMessageFilter@@UAGJABU_GUID@@PAPAX@Z 5f487fd8 f
 0001:00087019       ?RetryRejectedCall@XMessageFilter@COleMessageFilter@@UAGKPAUHTASK__@@KK@Z 5f488019 f
 0001:00087120       ??_GCOleServerDoc@@UAEPAXI@Z 5f488120 f
 0001:00087120       ??_ECOleServerDoc@@UAEPAXI@Z 5f488120 f
 0001:000871a0       ?GetEmbeddedItem@COleServerDoc@@QAEPAVCOleServerItem@@XZ 5f4881a0 f
 0001:000871c5       ?OnExecOleCmd@COleServerDoc@@MAEJPBU_GUID@@KKPAUtagVARIANT@@1@Z 5f4881c5 f
 0001:00087212       ?NotifyRename@COleServerDoc@@QAEXPBD@Z 5f488212 f
 0001:000872b2       ?OnUpdate@COleServerItem@@UAEXPAV1@JPAVCObject@@W4tagDVASPECT@@@Z 5f4882b2 f
 0001:000872c0       ?GetZoomFactor@COleServerDoc@@QBEHPAUtagSIZE@@0PBUtagRECT@@@Z 5f4882c0 f
 0001:000873a5       ?GetItemPosition@COleServerDoc@@QBEXPAUtagRECT@@@Z 5f4883a5 f
 0001:000873c0       ?GetItemClipRect@COleServerDoc@@QBEXPAUtagRECT@@@Z 5f4883c0 f
 0001:000873db       ?OnGetLinkedItem@COleServerDoc@@UAEPAVCOleServerItem@@PBD@Z 5f4883db f
 0001:0008741c       ?OnClose@COleServerDoc@@MAEXW4tagOLECLOSE@@@Z 5f48841c f
 0001:000874dd       ?SaveModifiedPrompt@COleServerDoc@@IAEHXZ 5f4884dd f
 0001:0008757b       ?GetFileTypeString@COleServerDoc@@MAEHAAVCString@@@Z 5f48857b f
 0001:000875a3       ?OnSetHostNames@COleServerDoc@@MAEXPBD0@Z 5f4885a3 f
 0001:0008764e       ?SaveEmbedding@COleServerDoc@@QAEXXZ 5f48864e f
 0001:0008767c       ?OnUpdateDocument@COleServerDoc@@UAEHXZ 5f48867c f
 0001:000876d6       ?GetMoniker@COleServerDoc@@UAEPAUIMoniker@@W4tagOLEGETMONIKER@@@Z 5f4886d6 f
 0001:00087738       ?GetMessageMap@COleServerDoc@@MBEPBUAFX_MSGMAP@@XZ 5f488738 f
 0001:0008773e       ?OnFileUpdate@COleServerDoc@@IAEXXZ 5f48873e f
 0001:00087755       ?OnFileSaveCopyAs@COleServerDoc@@IAEXXZ 5f488755 f
 0001:000877fe       ?OnUpdateFileUpdate@COleServerDoc@@IAEXPAVCCmdUI@@@Z 5f4887fe f
 0001:0008780f       ?OnSaveDocument@COleServerDoc@@UAEHPBD@Z 5f48880f f
 0001:0008789e       ?OnShowDocument@COleServerDoc@@MAEXH@Z 5f48889e f
 0001:00087b5d       ?OnNewEmbedding@COleServerDoc@@MAEXPAUIStorage@@@Z 5f488b5d f
 0001:00087bf4       ?OnOpenEmbedding@COleServerDoc@@MAEXPAUIStorage@@@Z 5f488bf4 f
 0001:00087c8f       ?OnSaveEmbedding@COleServerDoc@@MAEXPAUIStorage@@@Z 5f488c8f f
 0001:00087d16       ?_AfxGetWindow32@@YGPAUHWND__@@PAU1@@Z 5f488d16 f
 0001:00087d57       ?ActivateInPlace@COleServerDoc@@QAEHXZ 5f488d57 f
 0001:000881a1       ?CreateInPlaceFrame@COleServerDoc@@MAEPAVCOleIPFrameWnd@@PAVCWnd@@@Z 5f4891a1 f
 0001:00088256       ?DestroyInPlaceFrame@COleServerDoc@@MAEXPAVCOleIPFrameWnd@@@Z 5f489256 f
 0001:00088340       ?ConnectView@COleServerDoc@@IAEXPAVCWnd@@PAVCView@@@Z 5f489340 f
 0001:00088397       ?OnFrameWindowActivate@COleServerDoc@@MAEXH@Z 5f489397 f
 0001:0008840e       ?OnDocWindowActivate@COleServerDoc@@MAEXH@Z 5f48940e f
 0001:0008854d       ?OnShowControlBars@COleServerDoc@@MAEXPAVCFrameWnd@@H@Z 5f48954d f
 0001:000885af       ?OnResizeBorder@COleServerDoc@@UAEXPBUtagRECT@@PAUIOleInPlaceUIWindow@@H@Z 5f4895af f
 0001:0008873d       ?OnDeactivate@COleServerDoc@@UAEXXZ 5f48973d f
 0001:000887ca       ?OnDeactivateUI@COleServerDoc@@UAEXH@Z 5f4897ca f
 0001:000888cd       ?OnSetItemRects@COleServerDoc@@MAEXPBUtagRECT@@0@Z 5f4898cd f
 0001:000888ea       ?OnReactivateAndUndo@COleServerDoc@@MAEHXZ 5f4898ea f
 0001:000888ed       ?RequestPositionChange@COleServerDoc@@QAEXPBUtagRECT@@@Z 5f4898ed f
 0001:00088918       ?ScrollContainerBy@COleServerDoc@@QAEHVCSize@@@Z 5f489918 f
 0001:00088952       ?DeactivateAndUndo@COleServerDoc@@QAEHXZ 5f489952 f
 0001:00088984       ?DiscardUndoState@COleServerDoc@@QAEHXZ 5f489984 f
 0001:000889b6       ?GetClassID@XPersistStorage@COleServerDoc@@UAGJPAU_GUID@@@Z 5f4899b6 f
 0001:000889d7       ?IsDirty@XPersistStorage@COleServerDoc@@UAGJXZ 5f4899d7 f
 0001:000889f4       ?InitNew@XPersistStorage@COleServerDoc@@UAGJPAUIStorage@@@Z 5f4899f4 f
 0001:00088a6a       ?Load@XPersistStorage@COleServerDoc@@UAGJPAUIStorage@@@Z 5f489a6a f
 0001:00088af9       ?Save@XPersistStorage@COleServerDoc@@UAGJPAUIStorage@@H@Z 5f489af9 f
 0001:00088bc7       ?SaveCompleted@XPersistStorage@COleServerDoc@@UAGJPAUIStorage@@@Z 5f489bc7 f
 0001:00088c55       ?HandsOffStorage@XPersistStorage@COleServerDoc@@UAGJXZ 5f489c55 f
 0001:00088cc2       ?AddRef@XOleObject@COleServerDoc@@UAGKXZ 5f489cc2 f
 0001:00088cd4       ?Release@XOleObject@COleServerDoc@@UAGKXZ 5f489cd4 f
 0001:00088ce6       ?QueryInterface@XOleObject@COleServerDoc@@UAGJABU_GUID@@PAPAX@Z 5f489ce6 f
 0001:00088d00       ?SetClientSite@XOleObject@COleServerDoc@@UAGJPAUIOleClientSite@@@Z 5f489d00 f
 0001:00088d7f       ?GetClientSite@XOleObject@COleServerDoc@@UAGJPAPAUIOleClientSite@@@Z 5f489d7f f
 0001:00088dac       ?SetHostNames@XOleObject@COleServerDoc@@UAGJPBG0@Z 5f489dac f
 0001:00088e95       ?Close@XOleObject@COleServerDoc@@UAGJK@Z 5f489e95 f
 0001:00088f28       ?SetMoniker@XOleObject@COleServerDoc@@UAGJKPAUIMoniker@@@Z 5f489f28 f
 0001:00088fac       ?GetMoniker@XOleObject@COleServerDoc@@UAGJKKPAPAUIMoniker@@@Z 5f489fac f
 0001:00088fdd       ?InitFromData@XOleObject@COleServerDoc@@UAGJPAUIDataObject@@HK@Z 5f489fdd f
 0001:0008908b       ?GetClipboardData@XOleObject@COleServerDoc@@UAGJKPAPAUIDataObject@@@Z 5f48a08b f
 0001:00089119       ?DoVerb@XOleObject@COleServerDoc@@UAGJJPAUtagMSG@@PAUIOleClientSite@@JPAUHWND__@@PBUtagRECT@@@Z 5f48a119 f
 0001:000891b0       ?EnumVerbs@XOleObject@COleServerDoc@@UAGJPAPAUIEnumOLEVERB@@@Z 5f48a1b0 f
 0001:000891ea       ?Update@XOleObject@COleServerDoc@@UAGJXZ 5f48a1ea f
 0001:00089264       ?IsUpToDate@XOleObject@COleServerDoc@@UAGJXZ 5f48a264 f
 0001:000892e1       ?GetUserClassID@XOleObject@COleServerDoc@@UAGJPAU_GUID@@@Z 5f48a2e1 f
 0001:00089302       ?GetUserType@XOleObject@COleServerDoc@@UAGJKPAPAG@Z 5f48a302 f
 0001:0008933f       ?SetExtent@XOleObject@COleServerDoc@@UAGJKPAUtagSIZE@@@Z 5f48a33f f
 0001:000893d6       ?GetExtent@XOleObject@COleServerDoc@@UAGJKPAUtagSIZE@@@Z 5f48a3d6 f
 0001:00089473       ?Advise@XOleObject@COleServerDoc@@UAGJPAUIAdviseSink@@PAK@Z 5f48a473 f
 0001:00089501       ?Unadvise@XOleObject@COleServerDoc@@UAGJK@Z 5f48a501 f
 0001:0008958c       ?EnumAdvise@XOleObject@COleServerDoc@@UAGJPAPAUIEnumSTATDATA@@@Z 5f48a58c f
 0001:00089617       ?GetMiscStatus@XOleObject@COleServerDoc@@UAGJKPAK@Z 5f48a617 f
 0001:00089654       ?SetColorScheme@XOleObject@COleServerDoc@@UAGJPAUtagLOGPALETTE@@@Z 5f48a654 f
 0001:000896ce       ?AddRef@XDataObject@COleServerDoc@@UAGKXZ 5f48a6ce f
 0001:000896e0       ?Release@XDataObject@COleServerDoc@@UAGKXZ 5f48a6e0 f
 0001:000896f2       ?QueryInterface@XDataObject@COleServerDoc@@UAGJABU_GUID@@PAPAX@Z 5f48a6f2 f
 0001:0008970c       ?GetData@XDataObject@COleServerDoc@@UAGJPAUtagFORMATETC@@PAUtagSTGMEDIUM@@@Z 5f48a70c f
 0001:0008979a       ?GetDataHere@XDataObject@COleServerDoc@@UAGJPAUtagFORMATETC@@PAUtagSTGMEDIUM@@@Z 5f48a79a f
 0001:00089828       ?QueryGetData@XDataObject@COleServerDoc@@UAGJPAUtagFORMATETC@@@Z 5f48a828 f
 0001:000898b3       ?GetCanonicalFormatEtc@XDataObject@COleServerDoc@@UAGJPAUtagFORMATETC@@0@Z 5f48a8b3 f
 0001:000898bb       ?SetData@XDataObject@COleServerDoc@@UAGJPAUtagFORMATETC@@PAUtagSTGMEDIUM@@H@Z 5f48a8bb f
 0001:0008994c       ?EnumFormatEtc@XDataObject@COleServerDoc@@UAGJKPAPAUIEnumFORMATETC@@@Z 5f48a94c f
 0001:000899da       ?DAdvise@XDataObject@COleServerDoc@@UAGJPAUtagFORMATETC@@KPAUIAdviseSink@@PAK@Z 5f48a9da f
 0001:00089a6e       ?DUnadvise@XDataObject@COleServerDoc@@UAGJK@Z 5f48aa6e f
 0001:00089af9       ?EnumDAdvise@XDataObject@COleServerDoc@@UAGJPAPAUIEnumSTATDATA@@@Z 5f48aaf9 f
 0001:00089b84       ?AddRef@XOleInPlaceObject@COleServerDoc@@UAGKXZ 5f48ab84 f
 0001:00089b96       ?Release@XOleInPlaceObject@COleServerDoc@@UAGKXZ 5f48ab96 f
 0001:00089ba8       ?QueryInterface@XOleInPlaceObject@COleServerDoc@@UAGJABU_GUID@@PAPAX@Z 5f48aba8 f
 0001:00089bc2       ?GetWindow@XOleInPlaceObject@COleServerDoc@@UAGJPAPAUHWND__@@@Z 5f48abc2 f
 0001:00089be3       ?ContextSensitiveHelp@XOleInPlaceObject@COleServerDoc@@UAGJH@Z 5f48abe3 f
 0001:00089c04       ?InPlaceDeactivate@XOleInPlaceObject@COleServerDoc@@UAGJXZ 5f48ac04 f
 0001:00089c98       ?UIDeactivate@XOleInPlaceObject@COleServerDoc@@UAGJXZ 5f48ac98 f
 0001:00089d38       ?SetObjectRects@XOleInPlaceObject@COleServerDoc@@UAGJPBUtagRECT@@0@Z 5f48ad38 f
 0001:00089dad       ?ReactivateAndUndo@XOleInPlaceObject@COleServerDoc@@UAGJXZ 5f48adad f
 0001:00089e29       ?AddRef@XOleInPlaceActiveObject@COleServerDoc@@UAGKXZ 5f48ae29 f
 0001:00089e3b       ?Release@XOleInPlaceActiveObject@COleServerDoc@@UAGKXZ 5f48ae3b f
 0001:00089e4d       ?QueryInterface@XOleInPlaceActiveObject@COleServerDoc@@UAGJABU_GUID@@PAPAX@Z 5f48ae4d f
 0001:00089e67       ?GetWindow@XOleInPlaceActiveObject@COleServerDoc@@UAGJPAPAUHWND__@@@Z 5f48ae67 f
 0001:00089e8c       ?ContextSensitiveHelp@XOleInPlaceActiveObject@COleServerDoc@@UAGJH@Z 5f48ae8c f
 0001:00089f0d       ?TranslateAcceleratorA@XOleInPlaceActiveObject@COleServerDoc@@UAGJPAUtagMSG@@@Z 5f48af0d f
 0001:00089fbf       ?OnFrameWindowActivate@XOleInPlaceActiveObject@COleServerDoc@@UAGJH@Z 5f48afbf f
 0001:0008a031       ?OnDocWindowActivate@XOleInPlaceActiveObject@COleServerDoc@@UAGJH@Z 5f48b031 f
 0001:0008a0a3       ?ResizeBorder@XOleInPlaceActiveObject@COleServerDoc@@UAGJPBUtagRECT@@PAUIOleInPlaceUIWindow@@H@Z 5f48b0a3 f
 0001:0008a11b       ?EnableModeless@XOleInPlaceActiveObject@COleServerDoc@@UAGJH@Z 5f48b11b f
 0001:0008a1c4       ??0COleServerItem@@IAE@PAVCOleServerDoc@@H@Z 5f48b1c4 f
 0001:0008a283       ??_GCOleServerItem@@UAEPAXI@Z 5f48b283 f
 0001:0008a283       ??_ECOleServerItem@@UAEPAXI@Z 5f48b283 f
 0001:0008a29f       ??1CItemDataSource@COleServerItem@@UAE@XZ 5f48b29f f
 0001:0008a2a4       ??_ECItemDataSource@COleServerItem@@UAEPAXI@Z 5f48b2a4 f
 0001:0008a2a4       ??_GCItemDataSource@COleServerItem@@UAEPAXI@Z 5f48b2a4 f
 0001:0008a2c0       ?IsBlank@COleServerItem@@MBEHXZ 5f48b2c0 f
 0001:0008a2c4       ?IsConnected@COleServerItem@@QBEHXZ 5f48b2c4 f
 0001:0008a2e5       ?NotifyClient@COleServerItem@@QAEXW4OLE_NOTIFICATION@@K@Z 5f48b2e5 f
 0001:0008a34e       ?GetDataObject@COleServerItem@@QAEPAUIDataObject@@XZ 5f48b34e f
 0001:0008a359       ?GetOleObject@COleServerItem@@QAEPAUIOleObject@@XZ 5f48b359 f
 0001:0008a364       ?OnQueryUpdateItems@COleServerItem@@UAEHXZ 5f48b364 f
 0001:0008a39f       ?OnUpdateItems@COleServerItem@@UAEXXZ 5f48b39f f
 0001:0008a3e2       ?OnSetExtent@COleServerItem@@UAEHW4tagDVASPECT@@ABVCSize@@@Z 5f48b3e2 f
 0001:0008a402       ?OnGetExtent@COleServerItem@@UAEHW4tagDVASPECT@@AAVCSize@@@Z 5f48b402 f
 0001:0008a412       ?OnDoVerb@COleServerItem@@UAEXJ@Z 5f48b412 f
 0001:0008a47c       ?OnDrawEx@COleServerItem@@UAEHPAVCDC@@W4tagDVASPECT@@AAVCSize@@@Z 5f48b47c f
 0001:0008a497       ?OnShow@COleServerItem@@MAEXXZ 5f48b497 f
 0001:0008a4b2       ?OnOpen@COleServerItem@@MAEXXZ 5f48b4b2 f
 0001:0008a4c0       ?OnHide@COleServerItem@@MAEXXZ 5f48b4c0 f
 0001:0008a4ce       ?GetMetafileData@COleServerItem@@MAEHPAUtagFORMATETC@@PAUtagSTGMEDIUM@@@Z 5f48b4ce f
 0001:0008a642       ?OnSetColorScheme@COleServerItem@@UAEHPBUtagLOGPALETTE@@@Z 5f48b642 f
 0001:0008a647       ?OnInitFromData@COleServerItem@@UAEHPAVCOleDataObject@@H@Z 5f48b647 f
 0001:0008a656       ?CopyToClipboard@COleServerItem@@QAEXH@Z 5f48b656 f
 0001:0008a66d       ?OnGetClipboardData@COleServerItem@@UAEPAVCOleDataSource@@HPAUtagPOINT@@PAUtagSIZE@@@Z 5f48b66d f
 0001:0008a6ea       ?DoDragDrop@COleServerItem@@QAEKPBUtagRECT@@VCPoint@@HK0@Z 5f48b6ea f
 0001:0008a7c3       ?GetClipboardData@COleServerItem@@QAEXPAVCOleDataSource@@HPAUtagPOINT@@PAUtagSIZE@@@Z 5f48b7c3 f
 0001:0008a86d       ?GetEmbedSourceData@COleServerItem@@QAEXPAUtagSTGMEDIUM@@@Z 5f48b86d f
 0001:0008a95f       ?AddOtherClipboardData@COleServerItem@@QAEXPAVCOleDataSource@@@Z 5f48b95f f
 0001:0008a9fa       ?GetMoniker@COleServerItem@@QAEPAUIMoniker@@W4tagOLEGETMONIKER@@@Z 5f48b9fa f
 0001:0008aa1d       ?GetLinkSourceData@COleServerItem@@QAEHPAUtagSTGMEDIUM@@@Z 5f48ba1d f
 0001:0008aad5       ?GetObjectDescriptorData@COleServerItem@@QAEXPAUtagPOINT@@PAUtagSIZE@@PAUtagSTGMEDIUM@@@Z 5f48bad5 f
 0001:0008ab79       ?OnSaveEmbedding@COleServerItem@@MAEXPAUIStorage@@@Z 5f48bb79 f
 0001:0008abd3       ?OnRenderFileData@COleServerItem@@UAEHPAUtagFORMATETC@@PAVCFile@@@Z 5f48bbd3 f
 0001:0008abd8       ?OnRenderData@COleServerItem@@UAEHPAUtagFORMATETC@@PAUtagSTGMEDIUM@@@Z 5f48bbd8 f
 0001:0008abfc       ?OnSetData@COleServerItem@@UAEHPAUtagFORMATETC@@PAUtagSTGMEDIUM@@H@Z 5f48bbfc f
 0001:0008ac01       ?GetInterfaceMap@COleServerItem@@MBEPBUAFX_INTERFACEMAP@@XZ 5f48bc01 f
 0001:0008ac07       ?AddRef@XOleObject@COleServerItem@@UAGKXZ 5f48bc07 f
 0001:0008ac16       ?Release@XOleObject@COleServerItem@@UAGKXZ 5f48bc16 f
 0001:0008ac25       ?QueryInterface@XOleObject@COleServerItem@@UAGJABU_GUID@@PAPAX@Z 5f48bc25 f
 0001:0008ac3c       ?OnFinalRelease@COleServerItem@@UAEXXZ 5f48bc3c f
 0001:0008ac7f       ?GetClientSite@XOleObject@COleServerItem@@UAGJPAPAUIOleClientSite@@@Z 5f48bc7f f
 0001:0008ac8e       ?Close@XOleObject@COleServerItem@@UAGJK@Z 5f48bc8e f
 0001:0008ac96       ?SetMoniker@XOleObject@COleServerItem@@UAGJKPAUIMoniker@@@Z 5f48bc96 f
 0001:0008ac9e       ?GetMoniker@XOleObject@COleServerItem@@UAGJKKPAPAUIMoniker@@@Z 5f48bc9e f
 0001:0008adde       ?InitFromData@XOleObject@COleServerItem@@UAGJPAUIDataObject@@HK@Z 5f48bdde f
 0001:0008ade6       ?GetClipboardData@XOleObject@COleServerItem@@UAGJKPAPAUIDataObject@@@Z 5f48bde6 f
 0001:0008ae6a       ?DoVerb@XOleObject@COleServerItem@@UAGJJPAUtagMSG@@PAUIOleClientSite@@JPAUHWND__@@PBUtagRECT@@@Z 5f48be6a f
 0001:0008aef7       ?EnumVerbs@XOleObject@COleServerItem@@UAGJPAPAUIEnumOLEVERB@@@Z 5f48bef7 f
 0001:0008af29       ?Update@XOleObject@COleServerItem@@UAGJXZ 5f48bf29 f
 0001:0008af99       ?IsUpToDate@XOleObject@COleServerItem@@UAGJXZ 5f48bf99 f
 0001:0008b00c       ?GetUserClassID@XOleObject@COleServerItem@@UAGJPAU_GUID@@@Z 5f48c00c f
 0001:0008b025       ?GetUserType@XOleObject@COleServerItem@@UAGJKPAPAG@Z 5f48c025 f
 0001:0008b05a       ?SetExtent@XOleObject@COleServerItem@@UAGJKPAUtagSIZE@@@Z 5f48c05a f
 0001:0008b062       ?GetExtent@XOleObject@COleServerItem@@UAGJKPAUtagSIZE@@@Z 5f48c062 f
 0001:0008b0f5       ?Advise@XOleObject@COleServerItem@@UAGJPAUIAdviseSink@@PAK@Z 5f48c0f5 f
 0001:0008b12e       ?GetMiscStatus@XOleObject@COleServerItem@@UAGJKPAK@Z 5f48c12e f
 0001:0008b163       ?SetColorScheme@XOleObject@COleServerItem@@UAGJPAUtagLOGPALETTE@@@Z 5f48c163 f
 0001:0008b1d3       ?AddRef@XDataObject@COleServerItem@@UAGKXZ 5f48c1d3 f
 0001:0008b1e2       ?Release@XDataObject@COleServerItem@@UAGKXZ 5f48c1e2 f
 0001:0008b1f1       ?QueryInterface@XDataObject@COleServerItem@@UAGJABU_GUID@@PAPAX@Z 5f48c1f1 f
 0001:0008b208       ?GetData@XDataObject@COleServerItem@@UAGJPAUtagFORMATETC@@PAUtagSTGMEDIUM@@@Z 5f48c208 f
 0001:0008b220       ?GetDataHere@XDataObject@COleServerItem@@UAGJPAUtagFORMATETC@@PAUtagSTGMEDIUM@@@Z 5f48c220 f
 0001:0008b238       ?QueryGetData@XDataObject@COleServerItem@@UAGJPAUtagFORMATETC@@@Z 5f48c238 f
 0001:0008b24c       ?SetData@XDataObject@COleServerItem@@UAGJPAUtagFORMATETC@@PAUtagSTGMEDIUM@@H@Z 5f48c24c f
 0001:0008b268       ?EnumFormatEtc@XDataObject@COleServerItem@@UAGJKPAPAUIEnumFORMATETC@@@Z 5f48c268 f
 0001:0008b280       ?DAdvise@XDataObject@COleServerItem@@UAGJPAUtagFORMATETC@@KPAUIAdviseSink@@PAK@Z 5f48c280 f
 0001:0008b32b       ?DUnadvise@XDataObject@COleServerItem@@UAGJK@Z 5f48c32b f
 0001:0008b34a       ?EnumDAdvise@XDataObject@COleServerItem@@UAGJPAPAUIEnumSTATDATA@@@Z 5f48c34a f
 0001:0008b36d       ?OnRenderGlobalData@CItemDataSource@COleServerItem@@MAEHPAUtagFORMATETC@@PAPAX@Z 5f48c36d f
 0001:0008b384       ?OnRenderFileData@CItemDataSource@COleServerItem@@MAEHPAUtagFORMATETC@@PAVCFile@@@Z 5f48c384 f
 0001:0008b39b       ?OnRenderData@CItemDataSource@COleServerItem@@MAEHPAUtagFORMATETC@@PAUtagSTGMEDIUM@@@Z 5f48c39b f
 0001:0008b3ce       ?OnSetData@CItemDataSource@COleServerItem@@MAEHPAUtagFORMATETC@@PAUtagSTGMEDIUM@@H@Z 5f48c3ce f
 0001:0008b3e9       ?AfxOleRegisterServerClassCompat@@YGHABU_GUID@@PBD11W4OLE_APPTYPE@@PAPBD3@Z 5f48c3e9 f
 0001:0008b4bd       ?AfxOleUnregisterServerClass@@YGHABU_GUID@@PBD11W4OLE_APPTYPE@@PAPBD3@Z 5f48c4bd f
 0001:0008b570       ?AfxOleUnregisterHelper@@YGHPBQBD0HPAUHKEY__@@@Z 5f48c570 f
 0001:0008b63a       ??0COleResizeBar@@QAE@XZ   5f48c63a f
 0001:0008b681       ??1COleResizeBar@@UAE@XZ   5f48c681 f
 0001:0008b6bc       ?Create@COleResizeBar@@QAEHPAVCWnd@@KI@Z 5f48c6bc f
 0001:0008b6fe       ?_GetBaseMessageMap@COleResizeBar@@KGPBUAFX_MSGMAP@@XZ 5f48c6fe f
 0001:0008b704       ?GetMessageMap@COleResizeBar@@MBEPBUAFX_MSGMAP@@XZ 5f48c704 f
 0001:0008b70a       ?OnEraseBkgnd@COleResizeBar@@IAEHPAVCDC@@@Z 5f48c70a f
 0001:0008b710       ?OnPaint@COleResizeBar@@IAEXXZ 5f48c710 f
 0001:0008b788       ?OnSize@COleResizeBar@@IAEXIHH@Z 5f48c788 f
 0001:0008b7b2       ?OnSetCursor@COleResizeBar@@IAEHPAVCWnd@@II@Z 5f48c7b2 f
 0001:0008b802       ?OnLButtonDown@COleResizeBar@@IAEXIVCPoint@@@Z 5f48c802 f
 0001:0008b8ed       ?OnSizeParent@COleResizeBar@@IAEJIJ@Z 5f48c8ed f
 0001:0008b922       ?OnUpdateCmdUI@COleResizeBar@@UAEXPAVCFrameWnd@@H@Z 5f48c922 f
 0001:0008b925       ?GetStandardProp@CCmdTarget@@IAEXPBUAFX_DISPMAP_ENTRY@@PAUtagVARIANT@@PAI@Z 5f48c925 f
 0001:0008b9f3       ?SetStandardProp@CCmdTarget@@IAEJPBUAFX_DISPMAP_ENTRY@@PAUtagDISPPARAMS@@PAI@Z 5f48c9f3 f
 0001:0008bb67       ?MemberIDFromName@CCmdTarget@@KGJPBUAFX_DISPMAP@@PBD@Z 5f48cb67 f
 0001:0008bc5f       ?GetNotSupported@CCmdTarget@@QAEXXZ 5f48cc5f f
 0001:0008bc6e       ?SetNotSupported@CCmdTarget@@QAEXXZ 5f48cc6e f
 0001:0008bc7d       ?GetIDispatch@CCmdTarget@@QAEPAUIDispatch@@H@Z 5f48cc7d f
 0001:0008bc9c       ?FromIDispatch@CCmdTarget@@SGPAV1@PAUIDispatch@@@Z 5f48cc9c f
 0001:0008bcb2       ?IsResultExpected@CCmdTarget@@QAEHXZ 5f48ccb2 f
 0001:0008bcbd       ?SetSysString@CString@@QBEPAGPAPAG@Z 5f48ccbd f
 0001:0008bf37       ?GetTypeInfoCount@COleDispatchImpl@@UAGJPAI@Z 5f48cf37 f
 0001:0008bf4f       ?GetTypeInfo@COleDispatchImpl@@UAGJIKPAPAUITypeInfo@@@Z 5f48cf4f f
 0001:0008bf95       ?GetIDsOfNames@COleDispatchImpl@@UAGJABU_GUID@@PAPAGIKPAJ@Z 5f48cf95 f
 0001:0008c40c       ??1COleDispatchException@@UAE@XZ 5f48d40c f
 0001:0008c45d       ??_ECOleDispatchException@@UAEPAXI@Z 5f48d45d f
 0001:0008c45d       ??_GCOleDispatchException@@UAEPAXI@Z 5f48d45d f
 0001:0008c479       ?Process@COleDispatchException@@SGXPAUtagEXCEPINFO@@PBVCException@@@Z 5f48d479 f
 0001:0008c6d3       ??0COleDispatchException@@QAE@PBDIG@Z 5f48d6d3 f
 0001:0008c76d       ?GetErrorMessage@COleDispatchException@@UAEHPADIPAI@Z 5f48d76d f
 0001:0008c78f       ?AfxThrowOleDispatchException@@YGXGPBDI@Z 5f48d78f f
 0001:0008c7d4       ?AfxThrowOleDispatchException@@YGXGII@Z 5f48d7d4 f
 0001:0008c840       ?AfxGetClassIDFromString@@YGJPBDPAU_GUID@@@Z 5f48d840 f
 0001:0008c8d8       ??0COleDispatchDriver@@QAE@PAUIDispatch@@H@Z 5f48d8d8 f
 0001:0008c8ea       ??0COleDispatchDriver@@QAE@ABV0@@Z 5f48d8ea f
 0001:0008c90c       ??4COleDispatchDriver@@QAEABV0@ABV0@@Z 5f48d90c f
 0001:0008c979       ?CreateDispatch@COleDispatchDriver@@QAEHPBDPAVCOleException@@@Z 5f48d979 f
 0001:0008c9b3       ?AttachDispatch@COleDispatchDriver@@QAEXPAUIDispatch@@H@Z 5f48d9b3 f
 0001:0008c9cc       ?DetachDispatch@COleDispatchDriver@@QAEPAUIDispatch@@XZ 5f48d9cc f
 0001:0008cc3a       ?_AfxMultMultDivDiv@@YGJHHHHH@Z 5f48dc3a f
 0001:0008cd99       ??0CPreviewDC@@QAE@XZ      5f48dd99 f
 0001:0008cdc5       ??_GCPreviewDC@@UAEPAXI@Z  5f48ddc5 f
 0001:0008cdc5       ??_ECPreviewDC@@UAEPAXI@Z  5f48ddc5 f
 0001:0008cde1       ?SetOutputDC@CPreviewDC@@UAEXPAUHDC__@@@Z 5f48dde1 f
 0001:0008ce30       ?ReleaseOutputDC@CPreviewDC@@UAEXXZ 5f48de30 f
 0001:0008ce48       ?SetAttribDC@CPreviewDC@@UAEXPAUHDC__@@@Z 5f48de48 f
 0001:0008ce6f       ??1CPreviewDC@@UAE@XZ      5f48de6f f
 0001:0008ceab       ?SetScaleRatio@CPreviewDC@@QAEXHH@Z 5f48deab f
 0001:0008ced4       ?SaveDC@CPreviewDC@@UAEHXZ 5f48ded4 f
 0001:0008cf23       ?RestoreDC@CPreviewDC@@UAEHH@Z 5f48df23 f
 0001:0008cf68       ?MirrorAttributes@CPreviewDC@@IAEXXZ 5f48df68 f
 0001:0008d042       ?SelectStockObject@CPreviewDC@@UAEPAVCGdiObject@@H@Z 5f48e042 f
 0001:0008d0b2       ?MirrorFont@CPreviewDC@@IAEXXZ 5f48e0b2 f
 0001:0008d23d       ?SelectObject@CPreviewDC@@UAEPAVCFont@@PAV2@@Z 5f48e23d f
 0001:0008d27c       ?SetBkColor@CPreviewDC@@UAEKK@Z 5f48e27c f
 0001:0008d2ad       ?SetTextColor@CPreviewDC@@UAEKK@Z 5f48e2ad f
 0001:0008d2de       ?SetMapMode@CPreviewDC@@UAEHH@Z 5f48e2de f
 0001:0008d301       ?SetViewportOrg@CPreviewDC@@UAE?AVCPoint@@HH@Z 5f48e301 f
 0001:0008d336       ?OffsetViewportOrg@CPreviewDC@@UAE?AVCPoint@@HH@Z 5f48e336 f
 0001:0008d36b       ?SetViewportExt@CPreviewDC@@UAE?AVCSize@@HH@Z 5f48e36b f
 0001:0008d3a2       ?ScaleViewportExt@CPreviewDC@@UAE?AVCSize@@HHHH@Z 5f48e3a2 f
 0001:0008d3df       ?SetWindowExt@CPreviewDC@@UAE?AVCSize@@HH@Z 5f48e3df f
 0001:0008d416       ?ScaleWindowExt@CPreviewDC@@UAE?AVCSize@@HHHH@Z 5f48e416 f
 0001:0008d453       ?_AfxComputeNextTab@@YGHHIPAHHH@Z 5f48e453 f
 0001:0008d487       ?ComputeDeltas@CPreviewDC@@IAE?AVCSize@@AAHPBDAAIHIPAHHPAD30@Z 5f48e487 f
 0001:0008d727       ?TextOutA@CPreviewDC@@UAEHHHPBDH@Z 5f48e727 f
 0001:0008d744       ?ExtTextOutA@CPreviewDC@@UAEHHHIPBUtagRECT@@PBDIPAH@Z 5f48e744 f
 0001:0008d852       ?TabbedTextOutA@CPreviewDC@@UAE?AVCSize@@HHPBDHHPAHH@Z 5f48e852 f
 0001:0008d966       ?DrawTextA@CPreviewDC@@UAEHPBDHPAUtagRECT@@I@Z 5f48e966 f
 0001:0008d9ac       ?GrayStringA@CPreviewDC@@UAEHPAVCBrush@@P6GHPAUHDC__@@JH@ZJHHHHH@Z 5f48e9ac f
 0001:0008d9c4       ?Escape@CPreviewDC@@UAEHHHPBDPAX@Z 5f48e9c4 f
 0001:0008da52       ?MirrorMappingMode@CPreviewDC@@IAEXH@Z 5f48ea52 f
 0001:0008db57       ?MirrorViewportOrg@CPreviewDC@@IAEXXZ 5f48eb57 f
 0001:0008dbc1       ?SetTopLeftOffset@CPreviewDC@@QAEXVCSize@@@Z 5f48ebc1 f
 0001:0008dbd7       ?ClipToPage@CPreviewDC@@QAEXXZ 5f48ebd7 f
 0001:0008dc59       ?PrinterDPtoScreenDP@CPreviewDC@@QBEXPAUtagPOINT@@@Z 5f48ec59 f
 0001:0008dcb2       ??0CMetaFileDC@@QAE@XZ     5f48ecb2 f
 0001:0008dcc4       ?SetOutputDC@CMetaFileDC@@MAEXPAUHDC__@@@Z 5f48ecc4 f
 0001:0008dcc7       ?ReleaseOutputDC@CMetaFileDC@@MAEXXZ 5f48ecc7 f
 0001:0008dcc8       ?SetAttribDC@CMetaFileDC@@UAEXPAUHDC__@@@Z 5f48ecc8 f
 0001:0008dced       ?GetClipBox@CMetaFileDC@@UBEHPAUtagRECT@@@Z 5f48eced f
 0001:0008dcfd       ?PtVisible@CMetaFileDC@@UBEHHH@Z 5f48ecfd f
 0001:0008dd11       ?RectVisible@CMetaFileDC@@UBEHPBUtagRECT@@@Z 5f48ed11 f
 0001:0008dd17       ?TextOutA@CMetaFileDC@@UAEHHHPBDH@Z 5f48ed17 f
 0001:0008dd84       ?ExtTextOutA@CMetaFileDC@@UAEHHHIPBUtagRECT@@PBDIPAH@Z 5f48ed84 f
 0001:0008dde5       ?TabbedTextOutA@CMetaFileDC@@UAE?AVCSize@@HHPBDHHPAHH@Z 5f48ede5 f
 0001:0008df4e       ?AdjustCP@CMetaFileDC@@IAEXH@Z 5f48ef4e f
 0001:0008dfad       ?DrawTextA@CMetaFileDC@@UAEHPBDHPAUtagRECT@@I@Z 5f48efad f
 0001:0008e033       ?Escape@CMetaFileDC@@UAEHHHPBDPAX@Z 5f48f033 f
 0001:0008e0e4       ?SetViewportOrg@CMetaFileDC@@UAE?AVCPoint@@HH@Z 5f48f0e4 f
 0001:0008e122       ?OffsetViewportOrg@CMetaFileDC@@UAE?AVCPoint@@HH@Z 5f48f122 f
 0001:0008e160       ?SetViewportExt@CMetaFileDC@@UAE?AVCSize@@HH@Z 5f48f160 f
 0001:0008e19e       ?ScaleViewportExt@CMetaFileDC@@UAE?AVCSize@@HHHH@Z 5f48f19e f
 0001:0008e1e8       ?_AfxAbortProc@@YGHPAUHDC__@@H@Z 5f48f1e8 f
 0001:0008e23a       ?OnInitDialog@CPrintingDialog@@UAEHXZ 5f48f23a f
 0001:0008e25e       ?OnCancel@CPrintingDialog@@UAEXXZ 5f48f25e f
 0001:0008e280       ?DoPreparePrinting@CView@@QAEHPAUCPrintInfo@@@Z 5f48f280 f
 0001:0008e36d       ?OnFilePrint@CView@@IAEXXZ 5f48f36d f
 0001:0008e9fb       ??0CPrintingDialog@@QAE@PAVCWnd@@@Z 5f48f9fb f
 0001:0008ea4e       ??_ECPrintingDialog@@UAEPAXI@Z 5f48fa4e f
 0001:0008ea4e       ??_GCPrintingDialog@@UAEPAXI@Z 5f48fa4e f
 0001:0008ea6a       ??0CPrintInfo@@QAE@XZ      5f48fa6a f
 0001:0008eaf2       ??0CPrintPreviewState@@QAE@XZ 5f48faf2 f
 0001:0008eb14       ?OnFilePrintPreview@CView@@IAEXXZ 5f48fb14 f
 0001:0008eb5f       ?DoPrintPreview@CView@@QAEHIPAV1@PAUCRuntimeClass@@PAUCPrintPreviewState@@@Z 5f48fb5f f
 0001:0008ed16       ?_AfxPreviewCloseProc@@YGHPAVCFrameWnd@@@Z 5f48fd16 f
 0001:0008ed30       ?_GetBaseMessageMap@CPreviewView@@KGPBUAFX_MSGMAP@@XZ 5f48fd30 f
 0001:0008ed36       ?GetMessageMap@CPreviewView@@MBEPBUAFX_MSGMAP@@XZ 5f48fd36 f
 0001:0008ed3c       ??0CPreviewView@@QAE@XZ    5f48fd3c f
 0001:0008eddf       ??_GCPreviewView@@UAEPAXI@Z 5f48fddf f
 0001:0008eddf       ??_ECPreviewView@@UAEPAXI@Z 5f48fddf f
 0001:0008edfb       ??0PAGE_INFO@CPreviewView@@QAE@XZ 5f48fdfb f
 0001:0008edfe       ??1CPreviewView@@UAE@XZ    5f48fdfe f
