 MFCD42UD

 Timestamp is 403fdee3 (Fri Feb 27 16:20:51 2004)

 Preferred load address is 5f700000

 Start         Length     Name                   Class
 0001:00000000 0002ee18H .text                   CODE
 0001:0002ee20 00000242H .text$AFX_CORE2         CODE
 0001:0002f070 00000520H .text$AFX_INIT          CODE
 0001:0002f590 00000583H .text$AFX_VDEL          CODE
 0001:0002fb20 00001cc0H .text$x                 CODE
 0002:00000000 0000053cH .idata$5                DATA
 0002:00000540 00009ebcH .rdata                  DATA
 0002:0000a400 000007acH .rdata$r                DATA
 0002:0000abb0 000033d8H .xdata$x                DATA
 0002:0000df88 00000060H .didat$2                DATA
 0002:0000dfe8 00000020H .didat$3                DATA
 0002:0000e008 0000009cH .didat$4                DATA
 0002:0000e0a4 00000036H .didat$6                DATA
 0002:0000e0dc 0000009cH .didat$7                DATA
 0002:0000e178 00000064H .idata$2                DATA
 0002:0000e1dc 00000014H .idata$3                DATA
 0002:0000e1f0 0000053cH .idata$4                DATA
 0002:0000e72c 00000398H .idata$6                DATA
 0002:0000ead0 00000b39H .edata                  DATA
 0003:00000000 00000004H .CRT$XCA                DATA
 0003:00000004 00000004H .CRT$XCL                DATA
 0003:00000008 00000004H .CRT$XCZ                DATA
 0003:0000000c 00000004H .CRT$XIA                DATA
 0003:00000010 00000004H .CRT$XIZ                DATA
 0003:00000020 00002c05H .data                   DATA
 0003:00002c28 0000009cH .didat$5                DATA
 0003:00002cc8 00000060H .bss                    DATA
 0004:00000000 00000100H .rsrc$01                DATA
 0004:00000100 00001030H .rsrc$02                DATA

  Address         Publics by Value              Rva+Base     Lib:Object

 0001:00000000       ?GetHead@CSimpleList@@QBEPAXXZ 5f701000 f i dlldb.obj
 0001:00000010       ?AfxThrowDBException@@YGXFPAVCDatabase@@PAX@Z 5f701010 f   dbcore.obj
 0001:00000121       ??0CDBException@@QAE@F@Z   5f701121 f   dbcore.obj
 0001:00000194       ??1CDBException@@UAE@XZ    5f701194 f   dbcore.obj
 0001:000001f7       ?BuildErrorString@CDBException@@UAEXPAVCDatabase@@PAXH@Z 5f7011f7 f   dbcore.obj
 0001:000005cf       ?GetErrorMessage@CDBException@@UAEHPAGIPAI@Z 5f7015cf f   dbcore.obj
 0001:00000651       ?TraceErrorMessage@CDBException@@QBEXPBG@Z 5f701651 f   dbcore.obj
 0001:0000075e       ?Empty@CDBException@@QAEXXZ 5f70175e f   dbcore.obj
 0001:0000077f       ?AfxGetHENV@@YGPAXXZ       5f70177f f   dbcore.obj
 0001:0000079a       ??0CDatabase@@QAE@XZ       5f70179a f   dbcore.obj
 0001:00000866       ??1CDatabase@@UAE@XZ       5f701866 f   dbcore.obj
 0001:000008e8       ?Open@CDatabase@@UAEHPBGHH0H@Z 5f7018e8 f   dbcore.obj
 0001:00000ac8       ?OpenEx@CDatabase@@UAEHPBGK@Z 5f701ac8 f   dbcore.obj
 0001:00000c3c       ?ExecuteSQL@CDatabase@@QAEXPBG@Z 5f701c3c f   dbcore.obj
 0001:00000edf       ?Cancel@CDatabase@@QAEXXZ  5f701edf f   dbcore.obj
 0001:00000f32       ?Close@CDatabase@@UAEXXZ   5f701f32 f   dbcore.obj
 0001:000010a7       ?Free@CDatabase@@IAEXXZ    5f7020a7 f   dbcore.obj
 0001:000011e2       ?OnSetOptions@CDatabase@@UAEXPAX@Z 5f7021e2 f   dbcore.obj
 0001:00001270       ?GetDatabaseName@CDatabase@@QBE?AVCString@@XZ 5f702270 f   dbcore.obj
 0001:00001314       ?BeginTrans@CDatabase@@QAEHXZ 5f702314 f   dbcore.obj
 0001:000013c1       ?CommitTrans@CDatabase@@QAEHXZ 5f7023c1 f   dbcore.obj
 0001:000014a3       ?Rollback@CDatabase@@QAEHXZ 5f7024a3 f   dbcore.obj
 0001:00001585       ?Check@CDatabase@@UBEHF@Z  5f702585 f   dbcore.obj
 0001:000015a2       ?CheckHstmt@CDatabase@@QBGHFPAX@Z 5f7025a2 f   dbcore.obj
 0001:0000165a       ?ReplaceBrackets@CDatabase@@QAEXPAG@Z 5f70265a f   dbcore.obj
 0001:000017cd       ?AllocConnect@CDatabase@@IAEXK@Z 5f7027cd f   dbcore.obj
 0001:000019f9       ?Connect@CDatabase@@IAEHK@Z 5f7029f9 f   dbcore.obj
 0001:00001c13       ?VerifyConnect@CDatabase@@IAEXXZ 5f702c13 f   dbcore.obj
 0001:00001cdd       ?GetConnectInfo@CDatabase@@IAEXXZ 5f702cdd f   dbcore.obj
 0001:00002102       ?BindParameters@CDatabase@@UAEXPAX@Z 5f703102 f   dbcore.obj
 0001:0000210f       ?AssertValid@CDatabase@@UBEXXZ 5f70310f f   dbcore.obj
 0001:00002122       ?Dump@CDatabase@@UBEXAAVCDumpContext@@@Z 5f703122 f   dbcore.obj
 0001:00002262       ??0CRecordset@@QAE@PAVCDatabase@@@Z 5f703262 f   dbcore.obj
 0001:000026ba       ??1CRecordset@@UAE@XZ      5f7036ba f   dbcore.obj
 0001:000028eb       ?Open@CRecordset@@UAEHIPBGK@Z 5f7038eb f   dbcore.obj
 0001:00002bbc       ?Close@CRecordset@@UAEXXZ  5f703bbc f   dbcore.obj
 0001:00002fb8       ?IsOpen@CRecordset@@QBEHXZ 5f703fb8 f   dbcore.obj
 0001:0000312e       ?IsFieldDirty@CRecordset@@QAEHPAX@Z 5f70412e f   dbcore.obj
 0001:00003278       ?IsFieldNull@CRecordset@@QAEHPAX@Z 5f704278 f   dbcore.obj
 0001:0000334c       ?IsFieldNullable@CRecordset@@QAEHPAX@Z 5f70434c f   dbcore.obj
 0001:000033d7       ?CanBookmark@CRecordset@@QBEHXZ 5f7043d7 f   dbcore.obj
 0001:00003462       ?Move@CRecordset@@UAEXJG@Z 5f704462 f   dbcore.obj
 0001:000035fb       ?CheckRowsetError@CRecordset@@UAEXF@Z 5f7045fb f   dbcore.obj
 0001:00003787       ?GetBookmark@CRecordset@@QAEXAAVCDBVariant@@@Z 5f704787 f   dbcore.obj
 0001:00003872       ?SetBookmark@CRecordset@@QAEXABVCDBVariant@@@Z 5f704872 f   dbcore.obj
 0001:00003911       ?SetRowsetSize@CRecordset@@UAEXK@Z 5f704911 f   dbcore.obj
 0001:00003a9e       ?AddNew@CRecordset@@UAEXXZ 5f704a9e f   dbcore.obj
 0001:00003bb8       ?Edit@CRecordset@@UAEXXZ   5f704bb8 f   dbcore.obj
 0001:00003d82       ?Update@CRecordset@@UAEHXZ 5f704d82 f   dbcore.obj
 0001:00003e44       ?Delete@CRecordset@@UAEXXZ 5f704e44 f   dbcore.obj
 0001:00003ef8       ?CancelUpdate@CRecordset@@QAEXXZ 5f704ef8 f   dbcore.obj
 0001:00003f77       ?FlushResultSet@CRecordset@@QBEHXZ 5f704f77 f   dbcore.obj
 0001:00003fef       ?GetODBCFieldInfo@CRecordset@@QAEXPBGAAUCODBCFieldInfo@@@Z 5f704fef f   dbcore.obj
 0001:000040b2       ?GetODBCFieldInfo@CRecordset@@QAEXFAAUCODBCFieldInfo@@@Z 5f7050b2 f   dbcore.obj
 0001:00004188       ?GetFieldValue@CRecordset@@QAEXPBGAAVCDBVariant@@F@Z 5f705188 f   dbcore.obj
 0001:00004258       ?GetFieldValue@CRecordset@@QAEXFAAVCDBVariant@@F@Z 5f705258 f   dbcore.obj
 0001:0000452e       ?GetFieldValue@CRecordset@@QAEXPBGAAVCString@@@Z 5f70552e f   dbcore.obj
 0001:000045f1       ?GetFieldValue@CRecordset@@QAEXFAAVCString@@@Z 5f7055f1 f   dbcore.obj
 0001:000047d1       ?SetFieldDirty@CRecordset@@QAEXPAXH@Z 5f7057d1 f   dbcore.obj
 0001:0000488a       ?SetFieldNull@CRecordset@@QAEXPAXH@Z 5f70588a f   dbcore.obj
 0001:000049bd       ?SetParamNull@CRecordset@@QAEXHH@Z 5f7059bd f   dbcore.obj
 0001:00004a3c       ?SetLockingMode@CRecordset@@QAEXI@Z 5f705a3c f   dbcore.obj
 0001:00004ab2       ?Requery@CRecordset@@UAEHXZ 5f705ab2 f   dbcore.obj
 0001:00004d45       ?Cancel@CRecordset@@QAEXXZ 5f705d45 f   dbcore.obj
 0001:00004db3       ?GetDefaultConnect@CRecordset@@UAE?AVCString@@XZ 5f705db3 f   dbcore.obj
 0001:00004df5       ?GetDefaultSQL@CRecordset@@UAE?AVCString@@XZ 5f705df5 f   dbcore.obj
 0001:00004e37       ?DoFieldExchange@CRecordset@@UAEXPAVCFieldExchange@@@Z 5f705e37 f   dbcore.obj
 0001:00004e57       ?DoBulkFieldExchange@CRecordset@@UAEXPAVCFieldExchange@@@Z 5f705e57 f   dbcore.obj
 0001:00004ea0       ?OnSetOptions@CRecordset@@UAEXPAX@Z 5f705ea0 f   dbcore.obj
 0001:00004f5c       ?Check@CRecordset@@UBEHF@Z 5f705f5c f   dbcore.obj
 0001:00005092       ?PreBindFields@CRecordset@@UAEXXZ 5f706092 f   dbcore.obj
 0001:0000509d       ?SetState@CRecordset@@IAEXHPBGK@Z 5f70609d f   dbcore.obj
 0001:000051ec       ?AllocHstmt@CRecordset@@IAEHXZ 5f7061ec f   dbcore.obj
 0001:000055f9       ?BuildSQL@CRecordset@@IAEXPBG@Z 5f7065f9 f   dbcore.obj
 0001:00005775       ?PrepareAndExecute@CRecordset@@IAEXXZ 5f706775 f   dbcore.obj
 0001:00005b76       ?VerifyDriverBehavior@CRecordset@@IAEXXZ 5f706b76 f   dbcore.obj
 0001:00005cce       ?VerifyCursorSupport@CRecordset@@IAEKXZ 5f706cce f   dbcore.obj
 0001:00005dc7       ?AllocAndCacheFieldInfo@CRecordset@@IAEXXZ 5f706dc7 f   dbcore.obj
 0001:00006087       ?AllocRowset@CRecordset@@IAEXXZ 5f707087 f   dbcore.obj
 0001:000060eb       ?FreeRowset@CRecordset@@IAEXXZ 5f7070eb f   dbcore.obj
 0001:00006175       ?EnableBookmarks@CRecordset@@IAEXXZ 5f707175 f   dbcore.obj
 0001:000061f6       ?SetUpdateMethod@CRecordset@@IAEXXZ 5f7071f6 f   dbcore.obj
 0001:00006246       ?SetConcurrencyAndCursorType@CRecordset@@IAEXPAXK@Z 5f707246 f   dbcore.obj
 0001:00006441       ?IsSQLUpdatable@CRecordset@@QAEHPBG@Z 5f707441 f   dbcore.obj
 0001:000064a8       ?IsSelectQueryUpdatable@CRecordset@@QAEHPBG@Z 5f7074a8 f   dbcore.obj
 0001:0000674a       ?IsJoin@CRecordset@@SGHPBG@Z 5f70774a f   dbcore.obj
 0001:00006785       ?FindSQLToken@CRecordset@@SGPBGPBG0@Z 5f707785 f   dbcore.obj
 0001:000069ca       ?InitRecord@CRecordset@@QAEXXZ 5f7079ca f   dbcore.obj
 0001:00006a49       ?ResetCursor@CRecordset@@QAEXXZ 5f707a49 f   dbcore.obj
 0001:00006aa2       ?CheckRowsetCurrencyStatus@CRecordset@@QAEXGJ@Z 5f707aa2 f   dbcore.obj
 0001:00006bde       ?FetchData@CRecordset@@QAEFGJPAK@Z 5f707bde f   dbcore.obj
 0001:00006ccb       ?SkipDeletedRecords@CRecordset@@QAEXGJPAKPAF@Z 5f707ccb f   dbcore.obj
 0001:00006ed8       ?SetRowsetCurrencyStatus@CRecordset@@UAEXFGJK@Z 5f707ed8 f   dbcore.obj
 0001:00007209       ?RefreshRowset@CRecordset@@QAEXGG@Z 5f708209 f   dbcore.obj
 0001:000072cc       ?SetRowsetCursorPosition@CRecordset@@QAEXGG@Z 5f7082cc f   dbcore.obj
 0001:00007356       ?BuildSelectSQL@CRecordset@@IAEXXZ 5f708356 f   dbcore.obj
 0001:000075a3       ?AppendFilterAndSortSQL@CRecordset@@IAEXXZ 5f7085a3 f   dbcore.obj
 0001:0000761c       ?IsRecordsetUpdatable@CRecordset@@IAEHXZ 5f70861c f   dbcore.obj
 0001:000076f5       ?ExecuteSetPosUpdate@CRecordset@@IAEXXZ 5f7086f5 f   dbcore.obj
 0001:00007801       ?PrepareUpdateHstmt@CRecordset@@IAEXXZ 5f708801 f   dbcore.obj
 0001:00007991       ?BuildUpdateSQL@CRecordset@@IAEXXZ 5f708991 f   dbcore.obj
 0001:00007dd3       ?ExecuteUpdateSQL@CRecordset@@IAEXXZ 5f708dd3 f   dbcore.obj
 0001:00007fb8       ?SendLongBinaryData@CRecordset@@IAEXPAX@Z 5f708fb8 f   dbcore.obj
 0001:00008215       ?AllocStatusArrays@CRecordset@@QAEXXZ 5f709215 f   dbcore.obj
 0001:0000840c       ?GetBoundFieldIndex@CRecordset@@QAEHPAX@Z 5f70940c f   dbcore.obj
 0001:0000843a       ?GetBoundParamIndex@CRecordset@@QAEHPAX@Z 5f70943a f   dbcore.obj
 0001:00008468       ?GetFieldIndexByName@CRecordset@@QAEFPBG@Z 5f709468 f   dbcore.obj
 0001:000084ef       ?GetFieldLengthBuffer@CRecordset@@QAEPAJKH@Z 5f7094ef f   dbcore.obj
 0001:00008573       ?GetFieldStatus@CRecordset@@QAEEK@Z 5f709573 f   dbcore.obj
 0001:000085ba       ?SetFieldStatus@CRecordset@@QAEXKE@Z 5f7095ba f   dbcore.obj
 0001:00008613       ?ClearFieldStatus@CRecordset@@QAEXXZ 5f709613 f   dbcore.obj
 0001:00008639       ?IsFieldStatusDirty@CRecordset@@QBEHK@Z 5f709639 f   dbcore.obj
 0001:00008685       ?SetDirtyFieldStatus@CRecordset@@QAEXK@Z 5f709685 f   dbcore.obj
 0001:000086dd       ?ClearDirtyFieldStatus@CRecordset@@QAEXK@Z 5f7096dd f   dbcore.obj
 0001:00008735       ?IsFieldStatusNull@CRecordset@@QBEHK@Z 5f709735 f   dbcore.obj
 0001:00008781       ?SetNullFieldStatus@CRecordset@@QAEXK@Z 5f709781 f   dbcore.obj
 0001:000087d9       ?ClearNullFieldStatus@CRecordset@@QAEXK@Z 5f7097d9 f   dbcore.obj
 0001:00008831       ?IsParamStatusNull@CRecordset@@QBEHK@Z 5f709831 f   dbcore.obj
 0001:0000887d       ?SetNullParamStatus@CRecordset@@QAEXK@Z 5f70987d f   dbcore.obj
 0001:000088d5       ?ClearNullParamStatus@CRecordset@@QAEXK@Z 5f7098d5 f   dbcore.obj
 0001:0000892d       ?IsFieldNullable@CRecordset@@QBEHK@Z 5f70992d f   dbcore.obj
 0001:000089a4       ?BindParams@CRecordset@@QAEIPAX@Z 5f7099a4 f   dbcore.obj
 0001:00008a17       ?RebindParams@CRecordset@@QAEXPAX@Z 5f709a17 f   dbcore.obj
 0001:00008a90       ?BindFieldsToColumns@CRecordset@@QAEIXZ 5f709a90 f   dbcore.obj
 0001:00008b79       ?BindFieldsForUpdate@CRecordset@@QAEXXZ 5f709b79 f   dbcore.obj
 0001:00008bd9       ?UnbindFieldsForUpdate@CRecordset@@QAEXXZ 5f709bd9 f   dbcore.obj
 0001:00008c39       ?Fixups@CRecordset@@QAEXXZ 5f709c39 f   dbcore.obj
 0001:00008cd0       ?AppendNames@CRecordset@@QAEIPAVCString@@PBG@Z 5f709cd0 f   dbcore.obj
 0001:00008dbe       ?AppendNamesValues@CRecordset@@QAEIPAXPAVCString@@PBG@Z 5f709dbe f   dbcore.obj
 0001:00008eb1       ?AppendValues@CRecordset@@QAEIPAXPAVCString@@PBG@Z 5f709eb1 f   dbcore.obj
 0001:00008fa4       ?StoreFields@CRecordset@@QAEXXZ 5f709fa4 f   dbcore.obj
 0001:0000900f       ?LoadFields@CRecordset@@QAEXXZ 5f70a00f f   dbcore.obj
 0001:00009082       ?MarkForUpdate@CRecordset@@QAEXXZ 5f70a082 f   dbcore.obj
 0001:000090c1       ?MarkForAddNew@CRecordset@@QAEXXZ 5f70a0c1 f   dbcore.obj
 0001:00009100       ?AllocDataCache@CRecordset@@QAEXXZ 5f70a100 f   dbcore.obj
 0001:0000913f       ?FreeDataCache@CRecordset@@QAEXXZ 5f70a13f f   dbcore.obj
 0001:0000933c       ?DumpFields@CRecordset@@QBEXAAVCDumpContext@@@Z 5f70a33c f   dbcore.obj
 0001:00009370       ?UpdateInsertDelete@CRecordset@@IAEHXZ 5f70a370 f   dbcore.obj
 0001:00009708       ?GetLBFetchSize@CRecordset@@MAEJJ@Z 5f70a708 f   dbcore.obj
 0001:0000971a       ?GetLBReallocSize@CRecordset@@MAEJJ@Z 5f70a71a f   dbcore.obj
 0001:0000972c       ?GetDefaultFieldType@CRecordset@@SGFF@Z 5f70a72c f   dbcore.obj
 0001:00009823       ?GetDataBuffer@CRecordset@@SGPAXAAVCDBVariant@@FPAHFK@Z 5f70a823 f   dbcore.obj
 0001:00009b50       ?GetTextLen@CRecordset@@SGHFK@Z 5f70ab50 f   dbcore.obj
 0001:00009bc2       ?GetData@CRecordset@@SGJPAVCDatabase@@PAXFF1HF@Z 5f70abc2 f   dbcore.obj
 0001:00009d5c       ?GetLongCharDataAndCleanup@CRecordset@@SGXPAVCDatabase@@PAXFJPAPAXHAAVCString@@F@Z 5f70ad5c f   dbcore.obj
 0001:00009ece       ?GetLongBinaryDataAndCleanup@CRecordset@@SGXPAVCDatabase@@PAXFJPAPAXHAAVCDBVariant@@F@Z 5f70aece f   dbcore.obj
 0001:0000a096       ?AssertValid@CRecordset@@UBEXXZ 5f70b096 f   dbcore.obj
 0001:0000a0c3       ?Dump@CRecordset@@UBEXAAVCDumpContext@@@Z 5f70b0c3 f   dbcore.obj
 0001:0000a344       ?AfxSetCurrentRecord@@YGXPAJJF@Z 5f70b344 f   dbcore.obj
 0001:0000a369       ?AfxSetRecordCount@@YGXPAJJJHF@Z 5f70b369 f   dbcore.obj
 0001:0000a3ac       ?AfxSetRecordCount@@YGXPAJJHF@Z 5f70b3ac f   dbcore.obj
 0001:0000a3f3       ?IsOpen@CDatabase@@QBEHXZ  5f70b3f3 f   dbcore.obj
 0001:0000a41a       ?CanUpdate@CDatabase@@QBEHXZ 5f70b41a f   dbcore.obj
 0001:0000a454       ?CanTransact@CDatabase@@QBEHXZ 5f70b454 f   dbcore.obj
 0001:0000a48e       ?SetLoginTimeout@CDatabase@@QAEXK@Z 5f70b48e f   dbcore.obj
 0001:0000a4b4       ?SetQueryTimeout@CDatabase@@QAEXK@Z 5f70b4b4 f   dbcore.obj
 0001:0000a4da       ?GetConnect@CDatabase@@QBEABVCString@@XZ 5f70b4da f   dbcore.obj
 0001:0000a4fb       ?GetBookmarkPersistence@CDatabase@@QBEKXZ 5f70b4fb f   dbcore.obj
 0001:0000a51c       ?GetCursorCommitBehavior@CDatabase@@QBEHXZ 5f70b51c f   dbcore.obj
 0001:0000a53e       ?GetCursorRollbackBehavior@CDatabase@@QBEHXZ 5f70b53e f   dbcore.obj
 0001:0000a560       ?ThrowDBException@CDatabase@@MAEXF@Z 5f70b560 f   dbcore.obj
 0001:0000a592       ?SetSynchronousMode@CDatabase@@QAEXH@Z 5f70b592 f   dbcore.obj
 0001:0000a5c1       ?GetSQL@CRecordset@@QBEABVCString@@XZ 5f70b5c1 f   dbcore.obj
 0001:0000a5fd       ?GetTableName@CRecordset@@QBEABVCString@@XZ 5f70b5fd f   dbcore.obj
 0001:0000a639       ?IsBOF@CRecordset@@QBEHXZ  5f70b639 f   dbcore.obj
 0001:0000a676       ?IsEOF@CRecordset@@QBEHXZ  5f70b676 f   dbcore.obj
 0001:0000a6b3       ?IsDeleted@CRecordset@@QBEHXZ 5f70b6b3 f   dbcore.obj
 0001:0000a6f0       ?CanUpdate@CRecordset@@QBEHXZ 5f70b6f0 f   dbcore.obj
 0001:0000a72d       ?CanScroll@CRecordset@@QBEHXZ 5f70b72d f   dbcore.obj
 0001:0000a76a       ?CanAppend@CRecordset@@QBEHXZ 5f70b76a f   dbcore.obj
 0001:0000a7a7       ?CanRestart@CRecordset@@QBEHXZ 5f70b7a7 f   dbcore.obj
 0001:0000a7eb       ?CanTransact@CRecordset@@QBEHXZ 5f70b7eb f   dbcore.obj
 0001:0000a82b       ?GetODBCFieldCount@CRecordset@@QBEFXZ 5f70b82b f   dbcore.obj
 0001:0000a866       ?GetRowsetSize@CRecordset@@QBEKXZ 5f70b866 f   dbcore.obj
 0001:0000a8a3       ?GetRowsFetched@CRecordset@@QBEKXZ 5f70b8a3 f   dbcore.obj
 0001:0000a8e0       ?GetRowStatus@CRecordset@@QBEGG@Z 5f70b8e0 f   dbcore.obj
 0001:0000a950       ?GetRecordCount@CRecordset@@QBEJXZ 5f70b950 f   dbcore.obj
 0001:0000a98d       ?GetStatus@CRecordset@@QBEXAAUCRecordsetStatus@@@Z 5f70b98d f   dbcore.obj
 0001:0000a9e0       ?ThrowDBException@CRecordset@@UAEXFPAX@Z 5f70b9e0 f   dbcore.obj
 0001:0000aa2b       ?MoveNext@CRecordset@@QAEXXZ 5f70ba2b f   dbcore.obj
 0001:0000aa6e       ?MovePrev@CRecordset@@QAEXXZ 5f70ba6e f   dbcore.obj
 0001:0000aab1       ?MoveFirst@CRecordset@@QAEXXZ 5f70bab1 f   dbcore.obj
 0001:0000aaf4       ?MoveLast@CRecordset@@QAEXXZ 5f70baf4 f   dbcore.obj
 0001:0000ab37       ?SetAbsolutePosition@CRecordset@@QAEXJ@Z 5f70bb37 f   dbcore.obj
 0001:0000ab80       ??_ECDBException@@UAEPAXI@Z 5f70bb80 f i dbcore.obj
 0001:0000ab80       ??_GCDBException@@UAEPAXI@Z 5f70bb80 f i dbcore.obj
 0001:0000abb0       ??_GCDatabase@@UAEPAXI@Z   5f70bbb0 f i dbcore.obj
 0001:0000abe0       ?AtlW2AHelper@@YGPADPADPBGH@Z 5f70bbe0 f i dbcore.obj
 0001:0000ac00       ?AtlW2AHelper@@YGPADPADPBGHI@Z 5f70bc00 f i dbcore.obj
 0001:0000ac90       __wcsinc                   5f70bc90 f i dbcore.obj
 0001:0000aca0       ??_GCRecordset@@UAEPAXI@Z  5f70bca0 f i dbcore.obj
 0001:0000aca0       ??_ECRecordset@@UAEPAXI@Z  5f70bca0 f i dbcore.obj
 0001:0000acd0       ??_ECODBCFieldInfo@@QAEPAXI@Z 5f70bcd0 f i dbcore.obj
 0001:0000ad40       ??1CODBCFieldInfo@@QAE@XZ  5f70bd40 f i dbcore.obj
 0001:0000ad60       ??_GCString@@QAEPAXI@Z     5f70bd60 f i dbcore.obj
 0001:0000ad90       ??0CODBCFieldInfo@@QAE@XZ  5f70bd90 f i dbcore.obj
 0001:0000adb0       ??_ECNoTrackObject@@UAEPAXI@Z 5f70bdb0 f i dbcore.obj
 0001:0000adb0       ??_GCNoTrackObject@@UAEPAXI@Z 5f70bdb0 f i dbcore.obj
 0001:0000ade0       ??1CNoTrackObject@@UAE@XZ  5f70bde0 f i dbcore.obj
 0001:0000ae00       ??0CFieldExchange@@QAE@IPAVCRecordset@@PAX@Z 5f70be00 f   dbrfx.obj
 0001:0000aedd       ?IsFieldType@CFieldExchange@@QAEHPAI@Z 5f70bedd f   dbrfx.obj
 0001:0000afdd       ?Default@CFieldExchange@@QAEXPBGPAXPAJHII@Z 5f70bfdd f   dbrfx.obj
 0001:0000b602       ?RFX_Text@@YGXPAVCFieldExchange@@PBGPAGHHF@Z 5f70c602 f   dbrfx.obj
 0001:0000c2e0       ?RFX_Text@@YGXPAVCFieldExchange@@PBGAAVCString@@HHF@Z 5f70d2e0 f   dbrfx.obj
 0001:0000d0cb       ?RFX_Int@@YGXPAVCFieldExchange@@PBGAAH@Z 5f70e0cb f   dbrfx.obj
 0001:0000d368       ?RFX_Long@@YGXPAVCFieldExchange@@PBGAAJ@Z 5f70e368 f   dbrfx.obj
 0001:0000d605       ?RFX_Byte@@YGXPAVCFieldExchange@@PBGAAE@Z 5f70e605 f   dbrfx.obj
 0001:0000d8a4       ?RFX_Bool@@YGXPAVCFieldExchange@@PBGAAH@Z 5f70e8a4 f   dbrfx.obj
 0001:0000db49       ?RFX_Binary@@YGXPAVCFieldExchange@@PBGAAVCByteArray@@H@Z 5f70eb49 f   dbrfx.obj
 0001:0000e024       ?RFX_Date@@YGXPAVCFieldExchange@@PBGAAVCTime@@@Z 5f70f024 f   dbrfx.obj
 0001:0000ebb3       ?RFX_Date@@YGXPAVCFieldExchange@@PBGAAUtagTIMESTAMP_STRUCT@@@Z 5f70fbb3 f   dbrfx.obj
 0001:0000f0de       ?RFX_Date@@YGXPAVCFieldExchange@@PBGAAVCOleDateTime@@@Z 5f7100de f   dbrfx.obj
 0001:0000fbf9       ?RFX_LongBinary@@YGXPAVCFieldExchange@@PBGAAVCLongBinary@@@Z 5f710bf9 f   dbrfx.obj
 0001:000101c0       ?GetLongBinarySize@CFieldExchange@@QAEJH@Z 5f7111c0 f   dbrfx.obj
 0001:0001032c       ?GetLongBinaryData@CFieldExchange@@QAEXHAAVCLongBinary@@PAJ@Z 5f71132c f   dbrfx.obj
 0001:000105b7       ?ReallocLongBinary@CFieldExchange@@QAEPAEAAVCLongBinary@@JJ@Z 5f7115b7 f   dbrfx.obj
 0001:000106bc       ?AfxStoreField@@YGXAAVCRecordset@@IPAX@Z 5f7116bc f   dbrfx.obj
 0001:00010807       ?AfxLoadField@@YGXAAVCRecordset@@IPAXPAJ@Z 5f711807 f   dbrfx.obj
 0001:00010913       ?AfxCompareValueByRef@@YGHPAX0H@Z 5f711913 f   dbrfx.obj
 0001:00010c05       ?AfxCopyValueByRef@@YGXPAX0PAJH@Z 5f711c05 f   dbrfx.obj
 0001:00010e9a       ?RFX_Text_Bulk@@YGXPAVCFieldExchange@@PBGPAPADPAPAJH@Z 5f711e9a f   dbrfx.obj
 0001:0001102a       ?RFX_Bool_Bulk@@YGXPAVCFieldExchange@@PBGPAPAHPAPAJ@Z 5f71202a f   dbrfx.obj
 0001:000111b7       ?RFX_Int_Bulk@@YGXPAVCFieldExchange@@PBGPAPAHPAPAJ@Z 5f7121b7 f   dbrfx.obj
 0001:00011344       ?RFX_Long_Bulk@@YGXPAVCFieldExchange@@PBGPAPAJ2@Z 5f712344 f   dbrfx.obj
 0001:000114d1       ?RFX_Date_Bulk@@YGXPAVCFieldExchange@@PBGPAPAUtagTIMESTAMP_STRUCT@@PAPAJ@Z 5f7124d1 f   dbrfx.obj
 0001:0001165e       ?RFX_Byte_Bulk@@YGXPAVCFieldExchange@@PBGPAPAEPAPAJ@Z 5f71265e f   dbrfx.obj
 0001:000117e8       ?RFX_Binary_Bulk@@YGXPAVCFieldExchange@@PBGPAPAEPAPAJH@Z 5f7127e8 f   dbrfx.obj
 0001:00011978       ?AfxRFXBulkDefault@@YGXPAVCFieldExchange@@PBGPAXPAJHI@Z 5f712978 f   dbrfx.obj
 0001:00011a75       ?SetFieldType@CFieldExchange@@QAEXI@Z 5f712a75 f   dbrfx.obj
 0001:00011ac0       ?SetLength@CDBByteArray@@QAEXH@Z 5f712ac0 f i dbrfx.obj
 0001:00011b00       ?_GetBaseMessageMap@CRecordView@@KGPBUAFX_MSGMAP@@XZ 5f712b00 f   dbview.obj
 0001:00011b0a       ?GetMessageMap@CRecordView@@MBEPBUAFX_MSGMAP@@XZ 5f712b0a f   dbview.obj
 0001:00011b1a       ??0CRecordView@@IAE@PBG@Z  5f712b1a f   dbview.obj
 0001:00011b3f       ??0CRecordView@@IAE@I@Z    5f712b3f f   dbview.obj
 0001:00011b64       ??1CRecordView@@UAE@XZ     5f712b64 f   dbview.obj
 0001:00011b80       ?OnInitialUpdate@CRecordView@@UAEXXZ 5f712b80 f   dbview.obj
 0001:00011c23       ?IsOnFirstRecord@CRecordView@@QAEHXZ 5f712c23 f   dbview.obj
 0001:00011c62       ?IsOnLastRecord@CRecordView@@QAEHXZ 5f712c62 f   dbview.obj
 0001:00011cbf       ?OnMove@CRecordView@@UAEHI@Z 5f712cbf f   dbview.obj
 0001:00011de9       ?OnUpdateRecordFirst@CRecordView@@IAEXPAVCCmdUI@@@Z 5f712de9 f   dbview.obj
 0001:00011e63       ?OnUpdateRecordPrev@CRecordView@@IAEXPAVCCmdUI@@@Z 5f712e63 f   dbview.obj
 0001:00011e7c       ?OnUpdateRecordNext@CRecordView@@IAEXPAVCCmdUI@@@Z 5f712e7c f   dbview.obj
 0001:00011eea       ?OnUpdateRecordLast@CRecordView@@IAEXPAVCCmdUI@@@Z 5f712eea f   dbview.obj
 0001:00011f64       ?AfxFieldText@@YGHPAVCDataExchange@@HPAXPAVCRecordset@@@Z 5f712f64 f   dbview.obj
 0001:00012098       ?DDX_FieldText@@YGXPAVCDataExchange@@HAAHPAVCRecordset@@@Z 5f713098 f   dbview.obj
 0001:000120c9       ?DDX_FieldText@@YGXPAVCDataExchange@@HAAEPAVCRecordset@@@Z 5f7130c9 f   dbview.obj
 0001:000120fa       ?DDX_FieldText@@YGXPAVCDataExchange@@HAAIPAVCRecordset@@@Z 5f7130fa f   dbview.obj
 0001:0001212b       ?DDX_FieldText@@YGXPAVCDataExchange@@HAAJPAVCRecordset@@@Z 5f71312b f   dbview.obj
 0001:0001215c       ?DDX_FieldText@@YGXPAVCDataExchange@@HAAKPAVCRecordset@@@Z 5f71315c f   dbview.obj
 0001:0001218d       ?DDX_FieldText@@YGXPAVCDataExchange@@HAAVCString@@PAVCRecordset@@@Z 5f71318d f   dbview.obj
 0001:00012340       ?DDX_FieldText@@YGXPAVCDataExchange@@HPAGHPAVCRecordset@@@Z 5f713340 f   dbview.obj
 0001:00012430       ?DDX_FieldLBString@@YGXPAVCDataExchange@@HAAVCString@@PAVCRecordset@@@Z 5f713430 f   dbview.obj
 0001:000125ab       ?DDX_FieldLBStringExact@@YGXPAVCDataExchange@@HAAVCString@@PAVCRecordset@@@Z 5f7135ab f   dbview.obj
 0001:00012675       ?DDX_FieldLBIndex@@YGXPAVCDataExchange@@HAAHPAVCRecordset@@@Z 5f713675 f   dbview.obj
 0001:000126e1       ?DDX_FieldCBString@@YGXPAVCDataExchange@@HAAVCString@@PAVCRecordset@@@Z 5f7136e1 f   dbview.obj
 0001:000128a8       ?DDX_FieldCBStringExact@@YGXPAVCDataExchange@@HAAVCString@@PAVCRecordset@@@Z 5f7138a8 f   dbview.obj
 0001:00012972       ?DDX_FieldCBIndex@@YGXPAVCDataExchange@@HAAHPAVCRecordset@@@Z 5f713972 f   dbview.obj
 0001:000129de       ?DDX_FieldScroll@@YGXPAVCDataExchange@@HAAHPAVCRecordset@@@Z 5f7139de f   dbview.obj
 0001:00012a4a       ?DDX_FieldCheck@@YGXPAVCDataExchange@@HAAHPAVCRecordset@@@Z 5f713a4a f   dbview.obj
 0001:00012bb7       ?DDX_FieldRadio@@YGXPAVCDataExchange@@HAAHPAVCRecordset@@@Z 5f713bb7 f   dbview.obj
 0001:00012c52       ?AssertValid@CRecordView@@UBEXXZ 5f713c52 f   dbview.obj
 0001:00012c65       ?Dump@CRecordView@@UBEXAAVCDumpContext@@@Z 5f713c65 f   dbview.obj
 0001:00012cc7       ?OnMove@CRecordView@@IAEXHH@Z 5f713cc7 f   dbview.obj
 0001:00012cf0       ??_GCRecordView@@UAEPAXI@Z 5f713cf0 f i dbview.obj
 0001:00012cf0       ??_ECRecordView@@UAEPAXI@Z 5f713cf0 f i dbview.obj
 0001:00012d20       ??1CFormView@@UAE@XZ       5f713d20 f i dbview.obj
 0001:00012d40       ??_9@$BBBE@AE              5f713d40 f i dbview.obj
 0001:00012d50       ?RFX_Single@@YGXPAVCFieldExchange@@PBGAAM@Z 5f713d50 f   dbflt.obj
 0001:00012ffc       ?RFX_Double@@YGXPAVCFieldExchange@@PBGAAN@Z 5f713ffc f   dbflt.obj
 0001:000132e4       ?RFX_Single_Bulk@@YGXPAVCFieldExchange@@PBGPAPAMPAPAJ@Z 5f7142e4 f   dbflt.obj
 0001:0001345d       ?RFX_Double_Bulk@@YGXPAVCFieldExchange@@PBGPAPANPAPAJ@Z 5f71445d f   dbflt.obj
 0001:000135d6       ?DDX_FieldText@@YGXPAVCDataExchange@@HAAMPAVCRecordset@@@Z 5f7145d6 f   dbflt.obj
 0001:00013614       ?DDX_FieldText@@YGXPAVCDataExchange@@HAANPAVCRecordset@@@Z 5f714614 f   dbflt.obj
 0001:00013660       ??0CLongBinary@@QAE@XZ     5f714660 f   dblong.obj
 0001:00013689       ??1CLongBinary@@UAE@XZ     5f714689 f   dblong.obj
 0001:000136c5       ?AssertValid@CLongBinary@@UBEXXZ 5f7146c5 f   dblong.obj
 0001:000136d8       ?Dump@CLongBinary@@UBEXAAVCDumpContext@@@Z 5f7146d8 f   dblong.obj
 0001:00013740       ??_GCLongBinary@@UAEPAXI@Z 5f714740 f i dblong.obj
 0001:00013770       ??0CDBVariant@@QAE@XZ      5f714770 f   dbvar.obj
 0001:00013791       ?Clear@CDBVariant@@QAEXXZ  5f714791 f   dbvar.obj
 0001:00013835       ??1CDBVariant@@UAE@XZ      5f714835 f   dbvar.obj
 0001:00013860       ??_ECDBVariant@@UAEPAXI@Z  5f714860 f i dbvar.obj
 0001:00013860       ??_GCDBVariant@@UAEPAXI@Z  5f714860 f i dbvar.obj
 0001:00013890       ??0_AFX_DAO_STATE@@QAE@XZ  5f714890 f   daocore.obj
 0001:000138fd       ??1_AFX_DAO_STATE@@UAE@XZ  5f7148fd f   daocore.obj
 0001:000139c1       ?AfxDaoCheck@@YGXJPBD0HHH@Z 5f7149c1 f   daocore.obj
 0001:00013a48       ?AfxDaoTrace@@YGXJPBD0H@Z  5f714a48 f   daocore.obj
 0001:00013aac       ?Dump@CDaoErrorInfo@@UBEXAAVCDumpContext@@@Z 5f714aac f   daocore.obj
 0001:00013b62       ?Dump@CDaoWorkspaceInfo@@UBEXAAVCDumpContext@@@Z 5f714b62 f   daocore.obj
 0001:00013be3       ?Dump@CDaoDatabaseInfo@@UBEXAAVCDumpContext@@@Z 5f714be3 f   daocore.obj
 0001:00013cd0       ?Dump@CDaoTableDefInfo@@UBEXAAVCDumpContext@@@Z 5f714cd0 f   daocore.obj
 0001:00013e21       ?Dump@CDaoFieldInfo@@UBEXAAVCDumpContext@@@Z 5f714e21 f   daocore.obj
 0001:00013fc8       ?Dump@CDaoIndexFieldInfo@@UBEXAAVCDumpContext@@@Z 5f714fc8 f   daocore.obj
 0001:00014022       ??0CDaoIndexInfo@@QAE@XZ   5f715022 f   daocore.obj
 0001:00014061       ??1CDaoIndexInfo@@UAE@XZ   5f715061 f   daocore.obj
 0001:000140f6       ?Dump@CDaoIndexInfo@@UBEXAAVCDumpContext@@@Z 5f7150f6 f   daocore.obj
 0001:00014260       ?Dump@CDaoRelationFieldInfo@@UBEXAAVCDumpContext@@@Z 5f715260 f   daocore.obj
 0001:000142b9       ??0CDaoRelationInfo@@QAE@XZ 5f7152b9 f   daocore.obj
 0001:0001433f       ??1CDaoRelationInfo@@UAE@XZ 5f71533f f   daocore.obj
 0001:000143f2       ?Dump@CDaoRelationInfo@@UBEXAAVCDumpContext@@@Z 5f7153f2 f   daocore.obj
 0001:000144ee       ?Dump@CDaoQueryDefInfo@@UBEXAAVCDumpContext@@@Z 5f7154ee f   daocore.obj
 0001:00014628       ?Dump@CDaoParameterInfo@@UBEXAAVCDumpContext@@@Z 5f715628 f   daocore.obj
 0001:000146f1       ?_GetBaseClass@CDaoException@@KGPAUCRuntimeClass@@XZ 5f7156f1 f   daocore.obj
 0001:000146fb       ?GetRuntimeClass@CDaoException@@UBEPAUCRuntimeClass@@XZ 5f7156fb f   daocore.obj
 0001:0001470b       ??0CDaoException@@QAE@XZ   5f71570b f   daocore.obj
 0001:00014748       ??1CDaoException@@UAE@XZ   5f715748 f   daocore.obj
 0001:00014812       ?GetErrorCount@CDaoException@@QAEFXZ 5f715812 f   daocore.obj
 0001:00014875       ?GetErrorInfo@CDaoException@@QAEXH@Z 5f715875 f   daocore.obj
 0001:000149a6       ?GetErrorMessage@CDaoException@@UAEHPAGIPAI@Z 5f7159a6 f   daocore.obj
 0001:00014ae5       ?InitErrorsCollection@CDaoException@@IAEXXZ 5f715ae5 f   daocore.obj
 0001:00014b41       ?FillErrorInfo@CDaoException@@IAEXXZ 5f715b41 f   daocore.obj
 0001:00014d62       ?AfxThrowDaoException@@YGXHJ@Z 5f715d62 f   daocore.obj
 0001:00014f04       ?_GetBaseClass@CDaoWorkspace@@KGPAUCRuntimeClass@@XZ 5f715f04 f   daocore.obj
 0001:00014f0e       ?GetRuntimeClass@CDaoWorkspace@@UBEPAUCRuntimeClass@@XZ 5f715f0e f   daocore.obj
 0001:00014f1e       ??0CDaoWorkspace@@QAE@XZ   5f715f1e f   daocore.obj
 0001:00014fb3       ??1CDaoWorkspace@@UAE@XZ   5f715fb3 f   daocore.obj
 0001:00015052       ?Create@CDaoWorkspace@@UAEXPBG00@Z 5f716052 f   daocore.obj
 0001:000151d0       ?Append@CDaoWorkspace@@UAEXXZ 5f7161d0 f   daocore.obj
 0001:00015347       ?Open@CDaoWorkspace@@UAEXPBG@Z 5f716347 f   daocore.obj
 0001:00015531       ?Close@CDaoWorkspace@@UAEXXZ 5f716531 f   daocore.obj
 0001:00015673       ?GetVersion@CDaoWorkspace@@SG?AVCString@@XZ 5f716673 f   daocore.obj
 0001:00015722       ?GetIniPath@CDaoWorkspace@@SG?AVCString@@XZ 5f716722 f   daocore.obj
 0001:000157d1       ?SetIniPath@CDaoWorkspace@@SGXPBG@Z 5f7167d1 f   daocore.obj
 0001:00015865       ?SetDefaultUser@CDaoWorkspace@@SGXPBG@Z 5f716865 f   daocore.obj
 0001:000158f9       ?SetDefaultPassword@CDaoWorkspace@@SGXPBG@Z 5f7168f9 f   daocore.obj
 0001:0001598d       ?GetLoginTimeout@CDaoWorkspace@@SGFXZ 5f71698d f   daocore.obj
 0001:000159e0       ?SetLoginTimeout@CDaoWorkspace@@SGXF@Z 5f7169e0 f   daocore.obj
 0001:00015a30       ?GetName@CDaoWorkspace@@QAE?AVCString@@XZ 5f716a30 f   daocore.obj
 0001:00015b09       ?GetUserNameW@CDaoWorkspace@@QAE?AVCString@@XZ 5f716b09 f   daocore.obj
 0001:00015be2       ?SetIsolateODBCTrans@CDaoWorkspace@@QAEXH@Z 5f716be2 f   daocore.obj
 0001:00015c5e       ?GetIsolateODBCTrans@CDaoWorkspace@@QAEHXZ 5f716c5e f   daocore.obj
 0001:00015ce2       ?CompactDatabase@CDaoWorkspace@@SGXPBG00H0@Z 5f716ce2 f   daocore.obj
 0001:00015f2f       ?CompactDatabase@CDaoWorkspace@@SGXPBG00H@Z 5f716f2f f   daocore.obj
 0001:00015f4d       ?RepairDatabase@CDaoWorkspace@@SGXPBG@Z 5f716f4d f   daocore.obj
 0001:00015fe1       ?Idle@CDaoWorkspace@@SGXH@Z 5f716fe1 f   daocore.obj
 0001:000160b0       ?GetWorkspaceCount@CDaoWorkspace@@QAEFXZ 5f7170b0 f   daocore.obj
 0001:00016114       ?GetWorkspaceInfo@CDaoWorkspace@@QAEXHAAUCDaoWorkspaceInfo@@K@Z 5f717114 f   daocore.obj
 0001:00016218       ?GetWorkspaceInfo@CDaoWorkspace@@QAEXPBGAAUCDaoWorkspaceInfo@@K@Z 5f717218 f   daocore.obj
 0001:0001631c       ?GetDatabaseCount@CDaoWorkspace@@QAEFXZ 5f71731c f   daocore.obj
 0001:00016380       ?GetDatabaseInfo@CDaoWorkspace@@QAEXHAAUCDaoDatabaseInfo@@K@Z 5f717380 f   daocore.obj
 0001:00016484       ?GetDatabaseInfo@CDaoWorkspace@@QAEXPBGAAUCDaoDatabaseInfo@@K@Z 5f717484 f   daocore.obj
 0001:00016588       ?BeginTrans@CDaoWorkspace@@QAEXXZ 5f717588 f   daocore.obj
 0001:00016620       ?CommitTrans@CDaoWorkspace@@QAEXXZ 5f717620 f   daocore.obj
 0001:0001674d       ?Rollback@CDaoWorkspace@@QAEXXZ 5f71774d f   daocore.obj
 0001:000167e5       ?InitializeEngine@CDaoWorkspace@@KAXXZ 5f7177e5 f   daocore.obj
 0001:000167ef       ?InitWorkspacesCollection@CDaoWorkspace@@IAEXXZ 5f7177ef f   daocore.obj
 0001:00016857       ?FillWorkspaceInfo@CDaoWorkspace@@IAEXPAUDAOWorkspace@@AAUCDaoWorkspaceInfo@@K@Z 5f717857 f   daocore.obj
 0001:000169e1       ?InitDatabasesCollection@CDaoWorkspace@@IAEXXZ 5f7179e1 f   daocore.obj
 0001:00016a31       ?FillDatabaseInfo@CDaoWorkspace@@IAEXPAUDAODatabase@@AAUCDaoDatabaseInfo@@K@Z 5f717a31 f   daocore.obj
 0001:00016c9c       ?ThrowDaoException@CDaoWorkspace@@MAEXH@Z 5f717c9c f   daocore.obj
 0001:00016cc7       ?AssertValid@CDaoWorkspace@@UBEXXZ 5f717cc7 f   daocore.obj
 0001:00016cda       ?Dump@CDaoWorkspace@@UBEXAAVCDumpContext@@@Z 5f717cda f   daocore.obj
 0001:00016d64       ?_GetBaseClass@CDaoDatabase@@KGPAUCRuntimeClass@@XZ 5f717d64 f   daocore.obj
 0001:00016d6e       ?GetRuntimeClass@CDaoDatabase@@UBEPAUCRuntimeClass@@XZ 5f717d6e f   daocore.obj
 0001:00016d7e       ??0CDaoDatabase@@QAE@PAVCDaoWorkspace@@@Z 5f717d7e f   daocore.obj
 0001:00016e4a       ??1CDaoDatabase@@UAE@XZ    5f717e4a f   daocore.obj
 0001:00016f35       ?Create@CDaoDatabase@@UAEXPBG0H@Z 5f717f35 f   daocore.obj
 0001:000170a9       ?Open@CDaoDatabase@@UAEXPBGHH0@Z 5f7180a9 f   daocore.obj
 0001:000172ea       ?Close@CDaoDatabase@@UAEXXZ 5f7182ea f   daocore.obj
 0001:000174dc       ?CanUpdate@CDaoDatabase@@QAEHXZ 5f7184dc f   daocore.obj
 0001:00017586       ?CanTransact@CDaoDatabase@@QAEHXZ 5f718586 f   daocore.obj
 0001:00017630       ?GetName@CDaoDatabase@@QAE?AVCString@@XZ 5f718630 f   daocore.obj
 0001:0001772e       ?GetConnect@CDaoDatabase@@QAE?AVCString@@XZ 5f71872e f   daocore.obj
 0001:0001782c       ?GetVersion@CDaoDatabase@@QAE?AVCString@@XZ 5f71882c f   daocore.obj
 0001:0001792a       ?GetQueryTimeout@CDaoDatabase@@QAEFXZ 5f71892a f   daocore.obj
 0001:000179cc       ?SetQueryTimeout@CDaoDatabase@@QAEXF@Z 5f7189cc f   daocore.obj
 0001:00017a6b       ?GetRecordsAffected@CDaoDatabase@@QAEJXZ 5f718a6b f   daocore.obj
 0001:00017b0c       ?DeleteTableDef@CDaoDatabase@@QAEXPBG@Z 5f718b0c f   daocore.obj
 0001:00017bdd       ?DeleteQueryDef@CDaoDatabase@@QAEXPBG@Z 5f718bdd f   daocore.obj
 0001:00017cae       ?CreateRelation@CDaoDatabase@@QAEXPBG00J00@Z 5f718cae f   daocore.obj
 0001:00017d85       ?CreateRelation@CDaoDatabase@@QAEXAAUCDaoRelationInfo@@@Z 5f718d85 f   daocore.obj
 0001:0001839b       ?DeleteRelation@CDaoDatabase@@QAEXPBG@Z 5f71939b f   daocore.obj
 0001:0001846c       ?Execute@CDaoDatabase@@QAEXPBGH@Z 5f71946c f   daocore.obj
 0001:00018586       ?GetTableDefCount@CDaoDatabase@@QAEFXZ 5f719586 f   daocore.obj
 0001:000185ea       ?GetTableDefInfo@CDaoDatabase@@QAEXHAAUCDaoTableDefInfo@@K@Z 5f7195ea f   daocore.obj
 0001:000186ee       ?GetTableDefInfo@CDaoDatabase@@QAEXPBGAAUCDaoTableDefInfo@@K@Z 5f7196ee f   daocore.obj
 0001:000187f2       ?GetRelationCount@CDaoDatabase@@QAEFXZ 5f7197f2 f   daocore.obj
 0001:00018856       ?GetRelationInfo@CDaoDatabase@@QAEXHAAUCDaoRelationInfo@@K@Z 5f719856 f   daocore.obj
 0001:0001895a       ?GetRelationInfo@CDaoDatabase@@QAEXPBGAAUCDaoRelationInfo@@K@Z 5f71995a f   daocore.obj
 0001:00018a5e       ?GetQueryDefCount@CDaoDatabase@@QAEFXZ 5f719a5e f   daocore.obj
 0001:00018ac2       ?GetQueryDefInfo@CDaoDatabase@@QAEXHAAUCDaoQueryDefInfo@@K@Z 5f719ac2 f   daocore.obj
 0001:00018bc6       ?GetQueryDefInfo@CDaoDatabase@@QAEXPBGAAUCDaoQueryDefInfo@@K@Z 5f719bc6 f   daocore.obj
 0001:00018cca       ?InitWorkspace@CDaoDatabase@@IAEXXZ 5f719cca f   daocore.obj
 0001:00018db2       ?InitTableDefsCollection@CDaoDatabase@@IAEXXZ 5f719db2 f   daocore.obj
 0001:00018e02       ?FillTableDefInfo@CDaoDatabase@@IAEXPAU_DAOTableDef@@AAUCDaoTableDefInfo@@K@Z 5f719e02 f   daocore.obj
 0001:0001912e       ?InitRelationsCollection@CDaoDatabase@@IAEXXZ 5f71a12e f   daocore.obj
 0001:0001917e       ?FillRelationInfo@CDaoDatabase@@IAEXPAU_DAORelation@@AAUCDaoRelationInfo@@K@Z 5f71a17e f   daocore.obj
 0001:000196d3       ?InitQueryDefsCollection@CDaoDatabase@@IAEXXZ 5f71a6d3 f   daocore.obj
 0001:00019723       ?FillQueryDefInfo@CDaoDatabase@@IAEXPAU_DAOQueryDef@@AAUCDaoQueryDefInfo@@K@Z 5f71a723 f   daocore.obj
 0001:000199e3       ?ThrowDaoException@CDaoDatabase@@MAEXH@Z 5f71a9e3 f   daocore.obj
 0001:00019a0e       ?AssertValid@CDaoDatabase@@UBEXXZ 5f71aa0e f   daocore.obj
 0001:00019a21       ?Dump@CDaoDatabase@@UBEXAAVCDumpContext@@@Z 5f71aa21 f   daocore.obj
 0001:00019a90       ?_GetBaseClass@CDaoTableDef@@KGPAUCRuntimeClass@@XZ 5f71aa90 f   daocore.obj
 0001:00019a9a       ?GetRuntimeClass@CDaoTableDef@@UBEPAUCRuntimeClass@@XZ 5f71aa9a f   daocore.obj
 0001:00019aaa       ??0CDaoTableDef@@QAE@PAVCDaoDatabase@@@Z 5f71aaaa f   daocore.obj
 0001:00019b06       ??1CDaoTableDef@@UAE@XZ    5f71ab06 f   daocore.obj
 0001:00019b80       ?Create@CDaoTableDef@@UAEXPBGJ00@Z 5f71ab80 f   daocore.obj
 0001:00019e16       ?Append@CDaoTableDef@@UAEXXZ 5f71ae16 f   daocore.obj
 0001:00019f7e       ?Open@CDaoTableDef@@UAEXPBG@Z 5f71af7e f   daocore.obj
 0001:0001a172       ?Close@CDaoTableDef@@UAEXXZ 5f71b172 f   daocore.obj
 0001:0001a225       ?CanUpdate@CDaoTableDef@@QAEHXZ 5f71b225 f   daocore.obj
 0001:0001a2cf       ?SetName@CDaoTableDef@@QAEXPBG@Z 5f71b2cf f   daocore.obj
 0001:0001a3bb       ?GetName@CDaoTableDef@@QAE?AVCString@@XZ 5f71b3bb f   daocore.obj
 0001:0001a4b9       ?SetSourceTableName@CDaoTableDef@@QAEXPBG@Z 5f71b4b9 f   daocore.obj
 0001:0001a5a5       ?GetSourceTableName@CDaoTableDef@@QAE?AVCString@@XZ 5f71b5a5 f   daocore.obj
 0001:0001a6a3       ?SetConnect@CDaoTableDef@@QAEXPBG@Z 5f71b6a3 f   daocore.obj
 0001:0001a78f       ?GetConnect@CDaoTableDef@@QAE?AVCString@@XZ 5f71b78f f   daocore.obj
 0001:0001a88d       ?SetAttributes@CDaoTableDef@@QAEXJ@Z 5f71b88d f   daocore.obj
 0001:0001a934       ?GetAttributes@CDaoTableDef@@QAEJXZ 5f71b934 f   daocore.obj
 0001:0001a9d5       ?GetDateCreated@CDaoTableDef@@QAE?AVCOleDateTime@@XZ 5f71b9d5 f   daocore.obj
 0001:0001aac5       ?GetDateLastUpdated@CDaoTableDef@@QAE?AVCOleDateTime@@XZ 5f71bac5 f   daocore.obj
 0001:0001abb5       ?SetValidationRule@CDaoTableDef@@QAEXPBG@Z 5f71bbb5 f   daocore.obj
 0001:0001aca1       ?GetValidationRule@CDaoTableDef@@QAE?AVCString@@XZ 5f71bca1 f   daocore.obj
 0001:0001ad9f       ?SetValidationText@CDaoTableDef@@QAEXPBG@Z 5f71bd9f f   daocore.obj
 0001:0001ae8b       ?GetValidationText@CDaoTableDef@@QAE?AVCString@@XZ 5f71be8b f   daocore.obj
 0001:0001af89       ?GetRecordCount@CDaoTableDef@@QAEJXZ 5f71bf89 f   daocore.obj
 0001:0001b02a       ?CreateField@CDaoTableDef@@QAEXPBGFJJ@Z 5f71c02a f   daocore.obj
 0001:0001b0d0       ?CreateField@CDaoTableDef@@QAEXAAUCDaoFieldInfo@@@Z 5f71c0d0 f   daocore.obj
 0001:0001b350       ?DeleteField@CDaoTableDef@@QAEXPBG@Z 5f71c350 f   daocore.obj
 0001:0001b41b       ?DeleteField@CDaoTableDef@@QAEXH@Z 5f71c41b f   daocore.obj
 0001:0001b49d       ?CreateIndex@CDaoTableDef@@QAEXAAUCDaoIndexInfo@@@Z 5f71c49d f   daocore.obj
 0001:0001b635       ?DeleteIndex@CDaoTableDef@@QAEXPBG@Z 5f71c635 f   daocore.obj
 0001:0001b700       ?DeleteIndex@CDaoTableDef@@QAEXH@Z 5f71c700 f   daocore.obj
 0001:0001b782       ?GetFieldCount@CDaoTableDef@@QAEFXZ 5f71c782 f   daocore.obj
 0001:0001b7e6       ?GetFieldInfo@CDaoTableDef@@QAEXHAAUCDaoFieldInfo@@K@Z 5f71c7e6 f   daocore.obj
 0001:0001b8ea       ?GetFieldInfo@CDaoTableDef@@QAEXPBGAAUCDaoFieldInfo@@K@Z 5f71c8ea f   daocore.obj
 0001:0001b9ee       ?GetIndexCount@CDaoTableDef@@QAEFXZ 5f71c9ee f   daocore.obj
 0001:0001ba52       ?GetIndexInfo@CDaoTableDef@@QAEXHAAUCDaoIndexInfo@@K@Z 5f71ca52 f   daocore.obj
 0001:0001bb56       ?GetIndexInfo@CDaoTableDef@@QAEXPBGAAUCDaoIndexInfo@@K@Z 5f71cb56 f   daocore.obj
 0001:0001bc5a       ?RefreshLink@CDaoTableDef@@QAEXXZ 5f71cc5a f   daocore.obj
 0001:0001bcf2       ?InitFieldsCollection@CDaoTableDef@@IAEXXZ 5f71ccf2 f   daocore.obj
 0001:0001bd42       ?InitIndexesCollection@CDaoTableDef@@IAEXXZ 5f71cd42 f   daocore.obj
 0001:0001bd92       ?ThrowDaoException@CDaoTableDef@@MAEXH@Z 5f71cd92 f   daocore.obj
 0001:0001bdbd       ?AssertValid@CDaoTableDef@@UBEXXZ 5f71cdbd f   daocore.obj
 0001:0001bdd0       ?Dump@CDaoTableDef@@UBEXAAVCDumpContext@@@Z 5f71cdd0 f   daocore.obj
 0001:0001be3f       ?_GetBaseClass@CDaoQueryDef@@KGPAUCRuntimeClass@@XZ 5f71ce3f f   daocore.obj
 0001:0001be49       ?GetRuntimeClass@CDaoQueryDef@@UBEPAUCRuntimeClass@@XZ 5f71ce49 f   daocore.obj
 0001:0001be59       ??0CDaoQueryDef@@QAE@PAVCDaoDatabase@@@Z 5f71ce59 f   daocore.obj
 0001:0001beb5       ??1CDaoQueryDef@@UAE@XZ    5f71ceb5 f   daocore.obj
 0001:0001bf2f       ?Create@CDaoQueryDef@@UAEXPBG0@Z 5f71cf2f f   daocore.obj
 0001:0001c186       ?Append@CDaoQueryDef@@UAEXXZ 5f71d186 f   daocore.obj
 0001:0001c2ee       ?Open@CDaoQueryDef@@UAEXPBG@Z 5f71d2ee f   daocore.obj
 0001:0001c4e2       ?Close@CDaoQueryDef@@UAEXXZ 5f71d4e2 f   daocore.obj
 0001:0001c5bc       ?CanUpdate@CDaoQueryDef@@QAEHXZ 5f71d5bc f   daocore.obj
 0001:0001c645       ?GetName@CDaoQueryDef@@QAE?AVCString@@XZ 5f71d645 f   daocore.obj
 0001:0001c721       ?SetName@CDaoQueryDef@@QAEXPBG@Z 5f71d721 f   daocore.obj
 0001:0001c7ea       ?GetSQL@CDaoQueryDef@@QAE?AVCString@@XZ 5f71d7ea f   daocore.obj
 0001:0001c8c6       ?SetSQL@CDaoQueryDef@@QAEXPBG@Z 5f71d8c6 f   daocore.obj
 0001:0001c98f       ?GetType@CDaoQueryDef@@QAEFXZ 5f71d98f f   daocore.obj
 0001:0001ca0e       ?GetDateCreated@CDaoQueryDef@@QAE?AVCOleDateTime@@XZ 5f71da0e f   daocore.obj
 0001:0001cadb       ?GetDateLastUpdated@CDaoQueryDef@@QAE?AVCOleDateTime@@XZ 5f71dadb f   daocore.obj
 0001:0001cba8       ?GetConnect@CDaoQueryDef@@QAE?AVCString@@XZ 5f71dba8 f   daocore.obj
 0001:0001cc84       ?SetConnect@CDaoQueryDef@@QAEXPBG@Z 5f71dc84 f   daocore.obj
 0001:0001cd4d       ?GetODBCTimeout@CDaoQueryDef@@QAEFXZ 5f71dd4d f   daocore.obj
 0001:0001cdcc       ?SetODBCTimeout@CDaoQueryDef@@QAEXF@Z 5f71ddcc f   daocore.obj
 0001:0001ce51       ?GetReturnsRecords@CDaoQueryDef@@QAEHXZ 5f71de51 f   daocore.obj
 0001:0001ceda       ?SetReturnsRecords@CDaoQueryDef@@QAEXH@Z 5f71deda f   daocore.obj
 0001:0001cf62       ?GetRecordsAffected@CDaoQueryDef@@QAEJXZ 5f71df62 f   daocore.obj
 0001:0001cfe0       ?Execute@CDaoQueryDef@@UAEXH@Z 5f71dfe0 f   daocore.obj
 0001:0001d0d8       ?GetParamValue@CDaoQueryDef@@UAE?AVCOleVariant@@PBG@Z 5f71e0d8 f   daocore.obj
 0001:0001d2e0       ?GetParamValue@CDaoQueryDef@@UAE?AVCOleVariant@@H@Z 5f71e2e0 f   daocore.obj
 0001:0001d4e8       ?SetParamValue@CDaoQueryDef@@UAEXPBGABVCOleVariant@@@Z 5f71e4e8 f   daocore.obj
 0001:0001d6f4       ?SetParamValue@CDaoQueryDef@@UAEXHABVCOleVariant@@@Z 5f71e6f4 f   daocore.obj
 0001:0001d900       ?SetParamValueNull@CDaoQueryDef@@QAEXPBG@Z 5f71e900 f   daocore.obj
 0001:0001d977       ?SetParamValueNull@CDaoQueryDef@@QAEXH@Z 5f71e977 f   daocore.obj
 0001:0001d9ee       ?GetFieldCount@CDaoQueryDef@@QAEFXZ 5f71e9ee f   daocore.obj
 0001:0001da52       ?GetFieldInfo@CDaoQueryDef@@QAEXHAAUCDaoFieldInfo@@K@Z 5f71ea52 f   daocore.obj
 0001:0001db56       ?GetFieldInfo@CDaoQueryDef@@QAEXPBGAAUCDaoFieldInfo@@K@Z 5f71eb56 f   daocore.obj
 0001:0001dc5a       ?GetParameterCount@CDaoQueryDef@@QAEFXZ 5f71ec5a f   daocore.obj
 0001:0001dcbe       ?GetParameterInfo@CDaoQueryDef@@QAEXHAAUCDaoParameterInfo@@K@Z 5f71ecbe f   daocore.obj
 0001:0001ddc2       ?GetParameterInfo@CDaoQueryDef@@QAEXPBGAAUCDaoParameterInfo@@K@Z 5f71edc2 f   daocore.obj
 0001:0001dec6       ?InitFieldsCollection@CDaoQueryDef@@IAEXXZ 5f71eec6 f   daocore.obj
 0001:0001df16       ?InitParametersCollection@CDaoQueryDef@@IAEXXZ 5f71ef16 f   daocore.obj
 0001:0001df66       ?FillParameterInfo@CDaoQueryDef@@IAEXPAUDAOParameter@@AAUCDaoParameterInfo@@K@Z 5f71ef66 f   daocore.obj
 0001:0001e124       ?ThrowDaoException@CDaoQueryDef@@MAEXH@Z 5f71f124 f   daocore.obj
 0001:0001e14f       ?AssertValid@CDaoQueryDef@@UBEXXZ 5f71f14f f   daocore.obj
 0001:0001e162       ?Dump@CDaoQueryDef@@UBEXAAVCDumpContext@@@Z 5f71f162 f   daocore.obj
 0001:0001e1d1       ?_GetBaseClass@CDaoRecordset@@KGPAUCRuntimeClass@@XZ 5f71f1d1 f   daocore.obj
 0001:0001e1db       ?GetRuntimeClass@CDaoRecordset@@UBEPAUCRuntimeClass@@XZ 5f71f1db f   daocore.obj
 0001:0001e1eb       ??0CDaoRecordset@@QAE@PAVCDaoDatabase@@@Z 5f71f1eb f   daocore.obj
 0001:0001e358       ??1CDaoRecordset@@UAE@XZ   5f71f358 f   daocore.obj
 0001:0001e479       ?Open@CDaoRecordset@@UAEXHPBGH@Z 5f71f479 f   daocore.obj
 0001:0001ee83       ?Open@CDaoRecordset@@UAEXPAVCDaoQueryDef@@HH@Z 5f71fe83 f   daocore.obj
 0001:0001f16d       ?Open@CDaoRecordset@@UAEXPAVCDaoTableDef@@HH@Z 5f72016d f   daocore.obj
 0001:0001f409       ?Close@CDaoRecordset@@UAEXXZ 5f720409 f   daocore.obj
 0001:0001f700       ?Requery@CDaoRecordset@@UAEXXZ 5f720700 f   daocore.obj
 0001:0001f983       ?GetDefaultDBName@CDaoRecordset@@UAE?AVCString@@XZ 5f720983 f   daocore.obj
 0001:0001f9c5       ?GetDefaultSQL@CDaoRecordset@@UAE?AVCString@@XZ 5f7209c5 f   daocore.obj
 0001:0001fa07       ?DoFieldExchange@CDaoRecordset@@UAEXPAVCDaoFieldExchange@@@Z 5f720a07 f   daocore.obj
 0001:0001fa27       ?IsBOF@CDaoRecordset@@QBEHXZ 5f720a27 f   daocore.obj
 0001:0001fab0       ?IsEOF@CDaoRecordset@@QBEHXZ 5f720ab0 f   daocore.obj
 0001:0001fb39       ?IsDeleted@CDaoRecordset@@QBEHXZ 5f720b39 f   daocore.obj
 0001:0001fb89       ?CanScroll@CDaoRecordset@@QBEHXZ 5f720b89 f   daocore.obj
 0001:0001fbd9       ?CanUpdate@CDaoRecordset@@QBEHXZ 5f720bd9 f   daocore.obj
 0001:0001fc62       ?CanAppend@CDaoRecordset@@QBEHXZ 5f720c62 f   daocore.obj
 0001:0001fcb2       ?CanRestart@CDaoRecordset@@QAEHXZ 5f720cb2 f   daocore.obj
 0001:0001fd5c       ?CanTransact@CDaoRecordset@@QAEHXZ 5f720d5c f   daocore.obj
 0001:0001fde5       ?CanBookmark@CDaoRecordset@@QAEHXZ 5f720de5 f   daocore.obj
 0001:0001fe6e       ?GetName@CDaoRecordset@@QAE?AVCString@@XZ 5f720e6e f   daocore.obj
 0001:0001ff6c       ?GetType@CDaoRecordset@@QAEFXZ 5f720f6c f   daocore.obj
 0001:0002000e       ?GetEditMode@CDaoRecordset@@QAEFXZ 5f72100e f   daocore.obj
 0001:000200b3       ?GetSQL@CDaoRecordset@@QBE?AVCString@@XZ 5f7210b3 f   daocore.obj
 0001:00020146       ?GetDateCreated@CDaoRecordset@@QAE?AVCOleDateTime@@XZ 5f721146 f   daocore.obj
 0001:00020236       ?GetDateLastUpdated@CDaoRecordset@@QAE?AVCOleDateTime@@XZ 5f721236 f   daocore.obj
 0001:00020326       ?GetLastModifiedBookmark@CDaoRecordset@@QAE?AVCOleVariant@@XZ 5f721326 f   daocore.obj
 0001:00020424       ?GetValidationRule@CDaoRecordset@@QAE?AVCString@@XZ 5f721424 f   daocore.obj
 0001:00020525       ?GetValidationText@CDaoRecordset@@QAE?AVCString@@XZ 5f721525 f   daocore.obj
 0001:00020623       ?GetCurrentIndex@CDaoRecordset@@QAE?AVCString@@XZ 5f721623 f   daocore.obj
 0001:00020721       ?SetCurrentIndex@CDaoRecordset@@QAEXPBG@Z 5f721721 f   daocore.obj
 0001:0002080c       ?GetRecordCount@CDaoRecordset@@QAEJXZ 5f72180c f   daocore.obj
 0001:000208ad       ?SetFieldDirty@CDaoRecordset@@QAEXPAXH@Z 5f7218ad f   daocore.obj
 0001:00020989       ?IsFieldDirty@CDaoRecordset@@QAEHPAX@Z 5f721989 f   daocore.obj
 0001:00020a81       ?SetFieldNull@CDaoRecordset@@QAEXPAXH@Z 5f721a81 f   daocore.obj
 0001:00020b99       ?IsFieldNull@CDaoRecordset@@QAEHPAX@Z 5f721b99 f   daocore.obj
 0001:00020c7c       ?IsFieldNullable@CDaoRecordset@@QAEHPAX@Z 5f721c7c f   daocore.obj
 0001:00020def       ?GetFieldCount@CDaoRecordset@@QAEFXZ 5f721def f   daocore.obj
 0001:00020e53       ?GetFieldInfo@CDaoRecordset@@QAEXHAAUCDaoFieldInfo@@K@Z 5f721e53 f   daocore.obj
 0001:00020f57       ?GetFieldInfo@CDaoRecordset@@QAEXPBGAAUCDaoFieldInfo@@K@Z 5f721f57 f   daocore.obj
 0001:0002105b       ?GetIndexCount@CDaoRecordset@@QAEFXZ 5f72205b f   daocore.obj
 0001:000210bf       ?GetIndexInfo@CDaoRecordset@@QAEXHAAUCDaoIndexInfo@@K@Z 5f7220bf f   daocore.obj
 0001:000211c3       ?GetIndexInfo@CDaoRecordset@@QAEXPBGAAUCDaoIndexInfo@@K@Z 5f7221c3 f   daocore.obj
 0001:000212c7       ?GetBookmark@CDaoRecordset@@QAE?AVCOleVariant@@XZ 5f7222c7 f   daocore.obj
 0001:000213c5       ?SetBookmark@CDaoRecordset@@QAEXVCOleVariant@@@Z 5f7223c5 f   daocore.obj
 0001:000214a0       ?GetAbsolutePosition@CDaoRecordset@@QAEJXZ 5f7224a0 f   daocore.obj
 0001:00021544       ?SetAbsolutePosition@CDaoRecordset@@QAEXJ@Z 5f722544 f   daocore.obj
 0001:000215ed       ?GetPercentPosition@CDaoRecordset@@QAEMXZ 5f7225ed f   daocore.obj
 0001:00021691       ?SetPercentPosition@CDaoRecordset@@QAEXM@Z 5f722691 f   daocore.obj
 0001:0002173a       ?MoveNext@CDaoRecordset@@QAEXXZ 5f72273a f   daocore.obj
 0001:00021765       ?MovePrev@CDaoRecordset@@QAEXXZ 5f722765 f   daocore.obj
 0001:00021790       ?MoveFirst@CDaoRecordset@@QAEXXZ 5f722790 f   daocore.obj
 0001:000217be       ?MoveLast@CDaoRecordset@@QAEXXZ 5f7227be f   daocore.obj
 0001:000217ec       ?Move@CDaoRecordset@@UAEXJ@Z 5f7227ec f   daocore.obj
 0001:00021a1b       ?FindNext@CDaoRecordset@@QAEHPBG@Z 5f722a1b f   daocore.obj
 0001:00021a4c       ?FindPrev@CDaoRecordset@@QAEHPBG@Z 5f722a4c f   daocore.obj
 0001:00021a7d       ?FindFirst@CDaoRecordset@@QAEHPBG@Z 5f722a7d f   daocore.obj
 0001:00021ab1       ?FindLast@CDaoRecordset@@QAEHPBG@Z 5f722ab1 f   daocore.obj
 0001:00021ae5       ?Find@CDaoRecordset@@UAEHJPBG@Z 5f722ae5 f   daocore.obj
 0001:00021ce3       ?Seek@CDaoRecordset@@QAEHPBGPAVCOleVariant@@11@Z 5f722ce3 f   daocore.obj
 0001:00022094       ?Seek@CDaoRecordset@@QAEHPBGPAVCOleVariant@@G@Z 5f723094 f   daocore.obj
 0001:0002240d       ?CancelUpdate@CDaoRecordset@@UAEXXZ 5f72340d f   daocore.obj
 0001:000224c2       ?SetLockingMode@CDaoRecordset@@QAEXH@Z 5f7234c2 f   daocore.obj
 0001:00022564       ?GetLockingMode@CDaoRecordset@@QAEHXZ 5f723564 f   daocore.obj
 0001:0002260e       ?SetCacheStart@CDaoRecordset@@QAEXVCOleVariant@@@Z 5f72360e f   daocore.obj
 0001:000226e4       ?GetCacheStart@CDaoRecordset@@QAE?AVCOleVariant@@XZ 5f7236e4 f   daocore.obj
 0001:000227e5       ?SetCacheSize@CDaoRecordset@@QAEXJ@Z 5f7237e5 f   daocore.obj
 0001:00022886       ?GetCacheSize@CDaoRecordset@@QAEJXZ 5f723886 f   daocore.obj
 0001:0002292a       ?FillCache@CDaoRecordset@@QAEXPAJPAVCOleVariant@@@Z 5f72392a f   daocore.obj
 0001:00022acf       ?AddNew@CDaoRecordset@@UAEXXZ 5f723acf f   daocore.obj
 0001:00022bc4       ?Edit@CDaoRecordset@@UAEXXZ 5f723bc4 f   daocore.obj
 0001:00022cb6       ?Update@CDaoRecordset@@UAEXXZ 5f723cb6 f   daocore.obj
 0001:00022daf       ?Delete@CDaoRecordset@@UAEXXZ 5f723daf f   daocore.obj
 0001:00022e7e       ?GetFieldValue@CDaoRecordset@@UAE?AVCOleVariant@@PBG@Z 5f723e7e f   daocore.obj
 0001:00022ef9       ?GetFieldValue@CDaoRecordset@@UAE?AVCOleVariant@@H@Z 5f723ef9 f   daocore.obj
 0001:00022f74       ?GetFieldValue@CDaoRecordset@@UAEXPBGAAVCOleVariant@@@Z 5f723f74 f   daocore.obj
 0001:000230a1       ?GetFieldValue@CDaoRecordset@@UAEXHAAVCOleVariant@@@Z 5f7240a1 f   daocore.obj
 0001:000231ce       ?SetFieldValue@CDaoRecordset@@UAEXPBGABVCOleVariant@@@Z 5f7241ce f   daocore.obj
 0001:00023325       ?SetFieldValue@CDaoRecordset@@UAEXHABVCOleVariant@@@Z 5f724325 f   daocore.obj
 0001:0002347c       ?SetFieldValue@CDaoRecordset@@QAEXHPBG@Z 5f72447c f   daocore.obj
 0001:000234e1       ?SetFieldValue@CDaoRecordset@@QAEXPBG0@Z 5f7244e1 f   daocore.obj
 0001:00023546       ?SetFieldValueNull@CDaoRecordset@@QAEXPBG@Z 5f724546 f   daocore.obj
 0001:000235bd       ?SetFieldValueNull@CDaoRecordset@@QAEXH@Z 5f7245bd f   daocore.obj
 0001:00023634       ?GetParamValue@CDaoRecordset@@UAE?AVCOleVariant@@PBG@Z 5f724634 f   daocore.obj
 0001:000236d0       ?GetParamValue@CDaoRecordset@@UAE?AVCOleVariant@@H@Z 5f7246d0 f   daocore.obj
 0001:0002376c       ?SetParamValue@CDaoRecordset@@UAEXPBGABVCOleVariant@@@Z 5f72476c f   daocore.obj
 0001:000237f4       ?SetParamValue@CDaoRecordset@@UAEXHABVCOleVariant@@@Z 5f7247f4 f   daocore.obj
 0001:0002387c       ?SetParamValueNull@CDaoRecordset@@QAEXPBG@Z 5f72487c f   daocore.obj
 0001:000238f3       ?SetParamValueNull@CDaoRecordset@@QAEXH@Z 5f7248f3 f   daocore.obj
 0001:0002396a       ?GetFieldLength@CDaoRecordset@@QAEKH@Z 5f72496a f   daocore.obj
 0001:000239c2       ?InitFieldsCollection@CDaoRecordset@@IAEXXZ 5f7249c2 f   daocore.obj
 0001:00023a41       ?InitIndexesCollection@CDaoRecordset@@IAEXXZ 5f724a41 f   daocore.obj
 0001:00023ac3       ?BuildSQL@CDaoRecordset@@IAEXXZ 5f724ac3 f   daocore.obj
 0001:00023be7       ?AllocDatabase@CDaoRecordset@@IAEXXZ 5f724be7 f   daocore.obj
 0001:00023cfd       ?BuildSelectList@CDaoRecordset@@IAEXXZ 5f724cfd f   daocore.obj
 0001:00023d75       ?BuildParameterList@CDaoRecordset@@IAEXXZ 5f724d75 f   daocore.obj
 0001:00023e10       ?BindFields@CDaoRecordset@@IAEXXZ 5f724e10 f   daocore.obj
 0001:00023ff5       ?BindParameters@CDaoRecordset@@IAEXXZ 5f724ff5 f   daocore.obj
 0001:00024073       ?Fixup@CDaoRecordset@@IAEXXZ 5f725073 f   daocore.obj
 0001:000240b2       ?AllocCache@CDaoRecordset@@IAEXXZ 5f7250b2 f   daocore.obj
 0001:00024178       ?StoreFields@CDaoRecordset@@IAEXXZ 5f725178 f   daocore.obj
 0001:000241f2       ?LoadFields@CDaoRecordset@@IAEXXZ 5f7251f2 f   daocore.obj
 0001:0002424f       ?FreeCache@CDaoRecordset@@IAEXXZ 5f72524f f   daocore.obj
 0001:00024328       ?MarkForAddNew@CDaoRecordset@@IAEXXZ 5f725328 f   daocore.obj
 0001:00024367       ?MarkForEdit@CDaoRecordset@@IAEXXZ 5f725367 f   daocore.obj
 0001:000243a6       ?GetFieldIndex@CDaoRecordset@@IAEHPAX@Z 5f7253a6 f   daocore.obj
 0001:00024413       ?SetDirtyFields@CDaoRecordset@@MAEXXZ 5f725413 f   daocore.obj
 0001:00024463       ?SetCursorAttributes@CDaoRecordset@@QAEXXZ 5f725463 f   daocore.obj
 0001:000244e2       ?GetDataAndFixupNulls@CDaoRecordset@@QAEXXZ 5f7254e2 f   daocore.obj
 0001:000245e7       ?IsFieldStatusDirty@CDaoRecordset@@QAEHI@Z 5f7255e7 f   daocore.obj
 0001:00024622       ?SetDirtyFieldStatus@CDaoRecordset@@QAEXI@Z 5f725622 f   daocore.obj
 0001:0002465d       ?ClearDirtyFieldStatus@CDaoRecordset@@QAEXI@Z 5f72565d f   daocore.obj
 0001:00024698       ?IsFieldStatusNull@CDaoRecordset@@QAEHI@Z 5f725698 f   daocore.obj
 0001:000246d1       ?SetNullFieldStatus@CDaoRecordset@@QAEXI@Z 5f7256d1 f   daocore.obj
 0001:0002470c       ?ClearNullFieldStatus@CDaoRecordset@@QAEXI@Z 5f72570c f   daocore.obj
 0001:00024747       ?IsFieldStatusNullable@CDaoRecordset@@QAEHI@Z 5f725747 f   daocore.obj
 0001:00024780       ?SetNullableFieldStatus@CDaoRecordset@@QAEXI@Z 5f725780 f   daocore.obj
 0001:000247bb       ?IsFieldStatusNullableKnown@CDaoRecordset@@QAEHI@Z 5f7257bb f   daocore.obj
 0001:000247f4       ?SetNullableKnownFieldStatus@CDaoRecordset@@QAEXI@Z 5f7257f4 f   daocore.obj
 0001:0002482f       ?ClearFieldStatusFlags@CDaoRecordset@@QAEXXZ 5f72582f f   daocore.obj
 0001:00024865       ?IsMatch@CDaoRecordset@@QAEHXZ 5f725865 f   daocore.obj
 0001:000248e9       ?StripBrackets@CDaoRecordset@@SAXPBGPAG@Z 5f7258e9 f   daocore.obj
 0001:00024986       ?ThrowDaoException@CDaoRecordset@@MAEXH@Z 5f725986 f   daocore.obj
 0001:000249b1       ?AssertValid@CDaoRecordset@@UBEXXZ 5f7259b1 f   daocore.obj
 0001:000249c4       ?Dump@CDaoRecordset@@UBEXAAVCDumpContext@@@Z 5f7259c4 f   daocore.obj
 0001:00024bd3       ?AfxGetFieldInfo@@YAXPAU_DAOField@@AAUCDaoFieldInfo@@K@Z 5f725bd3 f   daocore.obj
 0001:00025009       ?AfxSetFieldInfo@@YAXPAU_DAOField@@AAUCDaoFieldInfo@@@Z 5f726009 f   daocore.obj
 0001:0002527c       ?AfxGetDefaultValue@@YAXPAU_DAOField@@AAVCString@@@Z 5f72627c f   daocore.obj
 0001:00025356       ?AfxSetDefaultValue@@YAXPAU_DAOField@@AAVCString@@@Z 5f726356 f   daocore.obj
 0001:00025451       ?AfxGetIndexInfo@@YAXPAU_DAOIndex@@AAUCDaoIndexInfo@@K@Z 5f726451 f   daocore.obj
 0001:000256e4       ?AfxSetIndexInfo@@YAXPAU_DAOIndex@@AAUCDaoIndexInfo@@@Z 5f7266e4 f   daocore.obj
 0001:0002580f       ?AfxGetIndexFields@@YAXPAU_DAOIndex@@PAPAUDAOIndexFields@@@Z 5f72680f f   daocore.obj
 0001:00025915       ?AfxGetIndexFieldInfo@@YAXPAU_DAOIndex@@AAUCDaoIndexInfo@@@Z 5f726915 f   daocore.obj
 0001:00025da5       ?AfxSetIndexFieldInfo@@YAXPAU_DAOIndex@@AAUCDaoIndexInfo@@@Z 5f726da5 f   daocore.obj
 0001:00026005       ?ThrowGetRowsDaoException@@YAXJ@Z 5f727005 f   daocore.obj
 0001:0002620b       ?AfxGetDaoState@@YAPAV_AFX_DAO_STATE@@XZ 5f72720b f   daocore.obj
 0001:000262a5       ?AfxDaoInit@@YGXXZ         5f7272a5 f   daocore.obj
 0001:00026533       ?AfxDaoGetEngine@@YGPAU_DAODBEngine@@XZ 5f727533 f   daocore.obj
 0001:00026540       ?AfxDaoTerm@@YGXXZ         5f727540 f   daocore.obj
 0001:000265ee       ?IsOpen@CDaoWorkspace@@QBEHXZ 5f7275ee f   daocore.obj
 0001:0002660f       ?IsNew@CDaoWorkspace@@QBEHXZ 5f72760f f   daocore.obj
 0001:00026630       ?IsOpen@CDaoDatabase@@QBEHXZ 5f727630 f   daocore.obj
 0001:00026651       ?IsOpen@CDaoTableDef@@QBEHXZ 5f727651 f   daocore.obj
 0001:00026672       ?IsOpen@CDaoQueryDef@@QBEHXZ 5f727672 f   daocore.obj
 0001:00026693       ?IsOpen@CDaoRecordset@@QBEHXZ 5f727693 f   daocore.obj
 0001:000266c0       ??_E_AFX_DAO_STATE@@UAEPAXI@Z 5f7276c0 f i daocore.obj
 0001:000266c0       ??_G_AFX_DAO_STATE@@UAEPAXI@Z 5f7276c0 f i daocore.obj
 0001:000266f0       ??_ECDaoIndexInfo@@UAEPAXI@Z 5f7276f0 f i daocore.obj
 0001:000266f0       ??_GCDaoIndexInfo@@UAEPAXI@Z 5f7276f0 f i daocore.obj
 0001:00026720       ??_ECDaoIndexFieldInfo@@QAEPAXI@Z 5f727720 f i daocore.obj
 0001:00026790       ??1CDaoIndexFieldInfo@@QAE@XZ 5f727790 f i daocore.obj
 0001:000267b0       ??_GCDaoRelationInfo@@UAEPAXI@Z 5f7277b0 f i daocore.obj
 0001:000267b0       ??_ECDaoRelationInfo@@UAEPAXI@Z 5f7277b0 f i daocore.obj
 0001:000267e0       ??_ECDaoRelationFieldInfo@@QAEPAXI@Z 5f7277e0 f i daocore.obj
 0001:00026850       ??1CDaoRelationFieldInfo@@QAE@XZ 5f727850 f i daocore.obj
 0001:000268a0       ??_GCDaoException@@UAEPAXI@Z 5f7278a0 f i daocore.obj
 0001:000268d0       ??_GCDaoErrorInfo@@QAEPAXI@Z 5f7278d0 f i daocore.obj
 0001:00026900       ??1CDaoErrorInfo@@QAE@XZ   5f727900 f i daocore.obj
 0001:00026960       ??0CDaoErrorInfo@@QAE@XZ   5f727960 f i daocore.obj
 0001:000269d0       ??_GCDaoWorkspace@@UAEPAXI@Z 5f7279d0 f i daocore.obj
 0001:00026a00       ??_GCDaoDatabase@@UAEPAXI@Z 5f727a00 f i daocore.obj
 0001:00026a30       ??0CDaoRelationFieldInfo@@QAE@XZ 5f727a30 f i daocore.obj
 0001:00026a90       ??_ECDaoTableDef@@UAEPAXI@Z 5f727a90 f i daocore.obj
 0001:00026a90       ??_GCDaoTableDef@@UAEPAXI@Z 5f727a90 f i daocore.obj
 0001:00026ac0       ??0CDaoFieldInfo@@QAE@XZ   5f727ac0 f i daocore.obj
 0001:00026b70       ??1CDaoFieldInfo@@QAE@XZ   5f727b70 f i daocore.obj
 0001:00026c10       ??_GCDaoQueryDef@@UAEPAXI@Z 5f727c10 f i daocore.obj
 0001:00026c10       ??_ECDaoQueryDef@@UAEPAXI@Z 5f727c10 f i daocore.obj
 0001:00026c40       ??_GCDaoRecordset@@UAEPAXI@Z 5f727c40 f i daocore.obj
 0001:00026c70       ??0CDaoIndexFieldInfo@@QAE@XZ 5f727c70 f i daocore.obj
 0001:00026ca0       ??_9@$BEM@AG               5f727ca0 f i daocore.obj
 0001:00026cb0       ??_9@$BHE@AG               5f727cb0 f i daocore.obj
 0001:00026cc0       ??_9@$BHI@AG               5f727cc0 f i daocore.obj
 0001:00026cd0       ??0CDaoFieldExchange@@QAE@IPAVCDaoRecordset@@PAX@Z 5f727cd0 f   daodfx.obj
 0001:00026d3b       ?IsValidOperation@CDaoFieldExchange@@QAEHXZ 5f727d3b f   daodfx.obj
 0001:00026db9       ?AppendParamType@CDaoFieldExchange@@SGXAAVCString@@K@Z 5f727db9 f   daodfx.obj
 0001:00027093       ?GetCacheValue@CDaoFieldExchange@@SGPAUCDaoFieldCache@@PAVCDaoRecordset@@PAX@Z 5f728093 f   daodfx.obj
 0001:000270c3       ?SetNullValue@CDaoFieldExchange@@SGXPAXK@Z 5f7280c3 f   daodfx.obj
 0001:000271d3       ?IsNullValue@CDaoFieldExchange@@SGHPAXK@Z 5f7281d3 f   daodfx.obj
 0001:00027369       ?AllocCacheValue@CDaoFieldExchange@@SGXAAPAUCDaoFieldCache@@K@Z 5f728369 f   daodfx.obj
 0001:00027675       ?DeleteCacheValue@CDaoFieldExchange@@SGXPAUCDaoFieldCache@@K@Z 5f728675 f   daodfx.obj
 0001:000277ea       ?CopyValue@CDaoFieldExchange@@SGXPAX0K@Z 5f7287ea f   daodfx.obj
 0001:00027981       ?CompareValue@CDaoFieldExchange@@SGHPAX0K@Z 5f728981 f   daodfx.obj
 0001:00027bd7       ?FillVariant@CDaoFieldExchange@@SGXPAXKPAPAVCOleVariant@@@Z 5f728bd7 f   daodfx.obj
 0001:00027e1c       ?Default@CDaoFieldExchange@@QAEXPBGPAXKK@Z 5f728e1c f   daodfx.obj
 0001:00028744       ?DFX_Text@@YGXPAVCDaoFieldExchange@@PBGAAVCString@@HK@Z 5f729744 f   daodfx.obj
 0001:000288e4       ?DFX_Binary@@YGXPAVCDaoFieldExchange@@PBGAAVCByteArray@@HK@Z 5f7298e4 f   daodfx.obj
 0001:000289f5       ?DFX_LongBinary@@YGXPAVCDaoFieldExchange@@PBGAAVCLongBinary@@KK@Z 5f7299f5 f   daodfx.obj
 0001:00028b40       ?DFX_Bool@@YGXPAVCDaoFieldExchange@@PBGAAHK@Z 5f729b40 f   daodfx.obj
 0001:00028c9c       ?DFX_Byte@@YGXPAVCDaoFieldExchange@@PBGAAEK@Z 5f729c9c f   daodfx.obj
 0001:00028dc2       ?DFX_Short@@YGXPAVCDaoFieldExchange@@PBGAAFK@Z 5f729dc2 f   daodfx.obj
 0001:00028ee9       ?DFX_Long@@YGXPAVCDaoFieldExchange@@PBGAAJK@Z 5f729ee9 f   daodfx.obj
 0001:0002900f       ?DFX_Currency@@YGXPAVCDaoFieldExchange@@PBGAAVCOleCurrency@@K@Z 5f72a00f f   daodfx.obj
 0001:0002918f       ?DFX_Single@@YGXPAVCDaoFieldExchange@@PBGAAMK@Z 5f72a18f f   daodfx.obj
 0001:000292b5       ?DFX_Double@@YGXPAVCDaoFieldExchange@@PBGAANK@Z 5f72a2b5 f   daodfx.obj
 0001:000293d6       ?DFX_DateTime@@YGXPAVCDaoFieldExchange@@PBGAAVCOleDateTime@@K@Z 5f72a3d6 f   daodfx.obj
 0001:00029556       _DaoStringAllocCallback@12 5f72a556 f   daodfx.obj
 0001:0002960f       _DaoBinaryAllocCallback@12 5f72a60f f   daodfx.obj
 0001:000296db       _DaoLongBinaryAllocCallback@12 5f72a6db f   daodfx.obj
 0001:000297d4       ?AllocLongBinary@@YAXAAVCLongBinary@@K@Z 5f72a7d4 f   daodfx.obj
 0001:0002985e       ?SetFieldType@CDaoFieldExchange@@QAEXI@Z 5f72a85e f   daodfx.obj
 0001:000298a0       ??_GCOleVariant@@QAEPAXI@Z 5f72a8a0 f i daodfx.obj
 0001:000298d0       ?_GetBaseClass@CDaoRecordView@@KGPAUCRuntimeClass@@XZ 5f72a8d0 f   daoview.obj
 0001:000298da       ?GetRuntimeClass@CDaoRecordView@@UBEPAUCRuntimeClass@@XZ 5f72a8da f   daoview.obj
 0001:000298ea       ?_GetBaseMessageMap@CDaoRecordView@@KGPBUAFX_MSGMAP@@XZ 5f72a8ea f   daoview.obj
 0001:000298f4       ?GetMessageMap@CDaoRecordView@@MBEPBUAFX_MSGMAP@@XZ 5f72a8f4 f   daoview.obj
 0001:00029904       ??0CDaoRecordView@@IAE@PBG@Z 5f72a904 f   daoview.obj
 0001:000299c8       ??0CDaoRecordView@@IAE@I@Z 5f72a9c8 f   daoview.obj
 0001:00029a8c       ??1CDaoRecordView@@UAE@XZ  5f72aa8c f   daoview.obj
 0001:00029b07       ?OnInitialUpdate@CDaoRecordView@@UAEXXZ 5f72ab07 f   daoview.obj
 0001:00029ce2       ?OnMove@CDaoRecordView@@UAEHI@Z 5f72ace2 f   daoview.obj
 0001:0002a234       ?IsOnFirstRecord@CDaoRecordView@@QAEHXZ 5f72b234 f   daoview.obj
 0001:0002a26a       ?IsOnLastRecord@CDaoRecordView@@QAEHXZ 5f72b26a f   daoview.obj
 0001:0002a2a0       ?AfxFieldText@@YGHPAVCDataExchange@@HPAXPAVCDaoRecordset@@@Z 5f72b2a0 f   daoview.obj
 0001:0002a38c       ?DDX_FieldText@@YGXPAVCDataExchange@@HAAHPAVCDaoRecordset@@@Z 5f72b38c f   daoview.obj
 0001:0002a3bd       ?DDX_FieldText@@YGXPAVCDataExchange@@HAAEPAVCDaoRecordset@@@Z 5f72b3bd f   daoview.obj
 0001:0002a3ee       ?DDX_FieldText@@YGXPAVCDataExchange@@HAAFPAVCDaoRecordset@@@Z 5f72b3ee f   daoview.obj
 0001:0002a41f       ?DDX_FieldText@@YGXPAVCDataExchange@@HAAJPAVCDaoRecordset@@@Z 5f72b41f f   daoview.obj
 0001:0002a450       ?DDX_FieldText@@YGXPAVCDataExchange@@HAAKPAVCDaoRecordset@@@Z 5f72b450 f   daoview.obj
 0001:0002a481       ?DDX_FieldText@@YGXPAVCDataExchange@@HAAVCOleCurrency@@PAVCDaoRecordset@@@Z 5f72b481 f   daoview.obj
 0001:0002a4b2       ?DDX_FieldText@@YGXPAVCDataExchange@@HAAMPAVCDaoRecordset@@@Z 5f72b4b2 f   daoview.obj
 0001:0002a4e3       ?DDX_FieldText@@YGXPAVCDataExchange@@HAANPAVCDaoRecordset@@@Z 5f72b4e3 f   daoview.obj
 0001:0002a514       ?DDX_FieldText@@YGXPAVCDataExchange@@HAAVCOleDateTime@@PAVCDaoRecordset@@@Z 5f72b514 f   daoview.obj
 0001:0002a545       ?DDX_FieldText@@YGXPAVCDataExchange@@HAAVCString@@PAVCDaoRecordset@@@Z 5f72b545 f   daoview.obj
 0001:0002a576       ?DDX_FieldText@@YGXPAVCDataExchange@@HPAGHPAVCDaoRecordset@@@Z 5f72b576 f   daoview.obj
 0001:0002a5ab       ?DDX_FieldLBString@@YGXPAVCDataExchange@@HAAVCString@@PAVCDaoRecordset@@@Z 5f72b5ab f   daoview.obj
 0001:0002a705       ?DDX_FieldLBStringExact@@YGXPAVCDataExchange@@HAAVCString@@PAVCDaoRecordset@@@Z 5f72b705 f   daoview.obj
 0001:0002a7cf       ?DDX_FieldCBString@@YGXPAVCDataExchange@@HAAVCString@@PAVCDaoRecordset@@@Z 5f72b7cf f   daoview.obj
 0001:0002a91d       ?DDX_FieldCBStringExact@@YGXPAVCDataExchange@@HAAVCString@@PAVCDaoRecordset@@@Z 5f72b91d f   daoview.obj
 0001:0002a9e7       ?DDX_FieldLBIndex@@YGXPAVCDataExchange@@HAAHPAVCDaoRecordset@@@Z 5f72b9e7 f   daoview.obj
 0001:0002aa53       ?DDX_FieldCBIndex@@YGXPAVCDataExchange@@HAAHPAVCDaoRecordset@@@Z 5f72ba53 f   daoview.obj
 0001:0002aabf       ?DDX_FieldScroll@@YGXPAVCDataExchange@@HAAHPAVCDaoRecordset@@@Z 5f72babf f   daoview.obj
 0001:0002ab2b       ?DDX_FieldSlider@@YGXPAVCDataExchange@@HAAHPAVCDaoRecordset@@@Z 5f72bb2b f   daoview.obj
 0001:0002ab97       ?DDX_FieldCheck@@YGXPAVCDataExchange@@HAAHPAVCDaoRecordset@@@Z 5f72bb97 f   daoview.obj
 0001:0002ad04       ?DDX_FieldRadio@@YGXPAVCDataExchange@@HAAHPAVCDaoRecordset@@@Z 5f72bd04 f   daoview.obj
 0001:0002ad9f       ?AssertValid@CDaoRecordView@@UBEXXZ 5f72bd9f f   daoview.obj
 0001:0002adb2       ?Dump@CDaoRecordView@@UBEXAAVCDumpContext@@@Z 5f72bdb2 f   daoview.obj
 0001:0002aef3       ?OnUpdateRecordFirst@CDaoRecordView@@IAEXPAVCCmdUI@@@Z 5f72bef3 f   daoview.obj
 0001:0002af27       ?OnUpdateRecordNext@CDaoRecordView@@IAEXPAVCCmdUI@@@Z 5f72bf27 f   daoview.obj
 0001:0002af5b       ?OnUpdateRecordPrev@CDaoRecordView@@IAEXPAVCCmdUI@@@Z 5f72bf5b f   daoview.obj
 0001:0002af8f       ?OnUpdateRecordLast@CDaoRecordView@@IAEXPAVCCmdUI@@@Z 5f72bf8f f   daoview.obj
 0001:0002afc3       ?OnMove@CDaoRecordView@@IAEXHH@Z 5f72bfc3 f   daoview.obj
 0001:0002afe0       ??_ECDaoRecordView@@UAEPAXI@Z 5f72bfe0 f i daoview.obj
 0001:0002afe0       ??_GCDaoRecordView@@UAEPAXI@Z 5f72bfe0 f i daoview.obj
 0001:0002b010       ??_Estringdispid@CComTypeInfoHolder@ATL@@QAEPAXI@Z 5f72c010 f i viewoled.obj
 0001:0002b080       ??1stringdispid@CComTypeInfoHolder@ATL@@QAE@XZ 5f72c080 f i viewoled.obj
 0001:0002b0a0       ??1CComBSTR@ATL@@QAE@XZ    5f72c0a0 f i viewoled.obj
 0001:0002b0c0       ?MovePrev@CRowset@ATL@@QAEJXZ 5f72c0c0 f i viewoled.obj
 0001:0002b0e0       ?MoveNext@CRowset@ATL@@QAEJXZ 5f72c0e0 f i viewoled.obj
 0001:0002b100       ?MoveNext@CRowset@ATL@@QAEJJ_N@Z 5f72c100 f i viewoled.obj
 0001:0002b210       ?AtlTrace2@ATL@@YAXKIPBGZZ 5f72c210 f i viewoled.obj
 0001:0002b2c0       ?ReleaseRows@CRowset@ATL@@QAEJXZ 5f72c2c0 f i viewoled.obj
 0001:0002b350       ?MoveFirst@CRowset@ATL@@QAEJXZ 5f72c350 f i viewoled.obj
 0001:0002b400       ?MoveLast@CRowset@ATL@@QAEJXZ 5f72c400 f i viewoled.obj
 0001:0002b510       ?GetData@CRowset@ATL@@QAEJXZ 5f72c510 f i viewoled.obj
 0001:0002b5c0       ?GetNumAccessors@CAccessorBase@ATL@@QBEKXZ 5f72c5c0 f i viewoled.obj
 0001:0002b5e0       ?IsAutoAccessor@CAccessorBase@ATL@@QBE_NK@Z 5f72c5e0 f i viewoled.obj
 0001:0002b670       ?GetData@CRowset@ATL@@QAEJH@Z 5f72c670 f i viewoled.obj
 0001:0002b760       ?GetHAccessor@CAccessorBase@ATL@@QBEKK@Z 5f72c760 f i viewoled.obj
 0001:0002b7c0       ?GetBuffer@CAccessorBase@ATL@@QBEPAEXZ 5f72c7c0 f i viewoled.obj
 0001:0002b7e0       ?SetData@CRowset@ATL@@QBEJH@Z 5f72c7e0 f i viewoled.obj
 0001:0002b882       ?AfxGetModuleState@@YGPAVAFX_MODULE_STATE@@XZ 5f72c882 f   MFC42UD:MFC42uD.DLL
 0001:0002b888       ?AfxTermThread@@YGXPAUHINSTANCE__@@@Z 5f72c888 f   MFC42UD:MFC42uD.DLL
 0001:0002b88e       ?AfxTermExtensionModule@@YGXAAUAFX_EXTENSION_MODULE@@H@Z 5f72c88e f   MFC42UD:MFC42uD.DLL
 0001:0002b894       ??0CDynLinkLibrary@@QAE@AAUAFX_EXTENSION_MODULE@@H@Z 5f72c894 f   MFC42UD:MFC42uD.DLL
 0001:0002b89a       ??2CObject@@SGPAXI@Z       5f72c89a f   MFC42UD:MFC42uD.DLL
 0001:0002b8a0       ?AfxAssertFailedLine@@YGHPBDH@Z 5f72c8a0 f   MFC42UD:MFC42uD.DLL
 0001:0002b8a6       ?AfxInitExtensionModule@@YGHAAUAFX_EXTENSION_MODULE@@PAUHINSTANCE__@@@Z 5f72c8a6 f   MFC42UD:MFC42uD.DLL
 0001:0002b8ac       ??3CObject@@SGXPAX@Z       5f72c8ac f   MFC42UD:MFC42uD.DLL
 0001:0002b8b2       ?AfxGetAppModuleState@@YGPAVAFX_MODULE_STATE@@XZ 5f72c8b2 f   MFC42UD:MFC42uD.DLL
 0001:0002b8b8       ??3@YAXPAX@Z               5f72c8b8 f   MFC42UD:MFC42uD.DLL
 0001:0002b8be       ??2@YAPAXI@Z               5f72c8be f   MFC42UD:MFC42uD.DLL
 0001:0002b8c4       ??3CException@@SGXPAX@Z    5f72c8c4 f   MFC42UD:MFC42uD.DLL
 0001:0002b8ca       ??3CException@@SGXPAXPBDH@Z 5f72c8ca f   MFC42UD:MFC42uD.DLL
 0001:0002b8d0       ?AfxTrace@@YAXPBGZZ        5f72c8d0 f   MFC42UD:MFC42uD.DLL
 0001:0002b8d6       ?LoadStringW@CString@@QAEHI@Z 5f72c8d6 f   MFC42UD:MFC42uD.DLL
 0001:0002b8dc       ??2CObject@@SGPAXIPBDH@Z   5f72c8dc f   MFC42UD:MFC42uD.DLL
 0001:0002b8e2       ?ReportError@CException@@UAEHII@Z 5f72c8e2 f   MFC42UD:MFC42uD.DLL
 0001:0002b8e8       ?Dump@CObject@@UBEXAAVCDumpContext@@@Z 5f72c8e8 f   MFC42UD:MFC42uD.DLL
 0001:0002b8ee       ?AssertValid@CObject@@UBEXXZ 5f72c8ee f   MFC42UD:MFC42uD.DLL
 0001:0002b8f4       ?Serialize@CObject@@UAEXAAVCArchive@@@Z 5f72c8f4 f   MFC42UD:MFC42uD.DLL
 0001:0002b8fa       ??1CString@@QAE@XZ         5f72c8fa f   MFC42UD:MFC42uD.DLL
 0001:0002b900       ??1CException@@UAE@XZ      5f72c900 f   MFC42UD:MFC42uD.DLL
 0001:0002b906       ??0CString@@QAE@XZ         5f72c906 f   MFC42UD:MFC42uD.DLL
 0001:0002b90c       ??0CException@@QAE@XZ      5f72c90c f   MFC42UD:MFC42uD.DLL
 0001:0002b912       ??H@YG?AVCString@@ABV0@PBG@Z 5f72c912 f   MFC42UD:MFC42uD.DLL
 0001:0002b918       ??H@YG?AVCString@@PBGABV0@@Z 5f72c918 f   MFC42UD:MFC42uD.DLL
 0001:0002b91e       ??4CString@@QAEABV0@ABV0@@Z 5f72c91e f   MFC42UD:MFC42uD.DLL
 0001:0002b924       ?Right@CString@@QBE?AV1@H@Z 5f72c924 f   MFC42UD:MFC42uD.DLL
 0001:0002b92a       ?GetLength@CString@@QBEHXZ 5f72c92a f   MFC42UD:MFC42uD.DLL
 0001:0002b930       ??YCString@@QAEABV0@ABV0@@Z 5f72c930 f   MFC42UD:MFC42uD.DLL
 0001:0002b936       ?Left@CString@@QBE?AV1@H@Z 5f72c936 f   MFC42UD:MFC42uD.DLL
 0001:0002b93c       ?Find@CString@@QBEHG@Z     5f72c93c f   MFC42UD:MFC42uD.DLL
 0001:0002b942       ??ACString@@QBEGH@Z        5f72c942 f   MFC42UD:MFC42uD.DLL
 0001:0002b948       ?IsEmpty@CString@@QBEHXZ   5f72c948 f   MFC42UD:MFC42uD.DLL
 0001:0002b94e       ??YCString@@QAEABV0@PBG@Z  5f72c94e f   MFC42UD:MFC42uD.DLL
 0001:0002b954       ??BCString@@QBEPBGXZ       5f72c954 f   MFC42UD:MFC42uD.DLL
 0001:0002b95a       ??4CString@@QAEABV0@PBE@Z  5f72c95a f   MFC42UD:MFC42uD.DLL
 0001:0002b960       ?AfxAssertValidObject@@YGXPBVCObject@@PBDH@Z 5f72c960 f   MFC42UD:MFC42uD.DLL
 0001:0002b966       ?AfxIsValidString@@YGHPBGH@Z 5f72c966 f   MFC42UD:MFC42uD.DLL
 0001:0002b96c       ??0CString@@QAE@PBG@Z      5f72c96c f   MFC42UD:MFC42uD.DLL
 0001:0002b972       ?Empty@CString@@QAEXXZ     5f72c972 f   MFC42UD:MFC42uD.DLL
 0001:0002b978       ??1CObject@@UAE@XZ         5f72c978 f   MFC42UD:MFC42uD.DLL
 0001:0002b97e       ??0CPtrList@@QAE@H@Z       5f72c97e f   MFC42UD:MFC42uD.DLL
 0001:0002b984       ??0CObject@@IAE@XZ         5f72c984 f   MFC42UD:MFC42uD.DLL
 0001:0002b98a       ??1CPtrList@@UAE@XZ        5f72c98a f   MFC42UD:MFC42uD.DLL
 0001:0002b990       ??4CString@@QAEABV0@PBG@Z  5f72c990 f   MFC42UD:MFC42uD.DLL
 0001:0002b996       ?IsKindOf@CObject@@QBEHPBUCRuntimeClass@@@Z 5f72c996 f   MFC42UD:MFC42uD.DLL
 0001:0002b99c       ?AfxUnlockGlobals@@YGXH@Z  5f72c99c f   MFC42UD:MFC42uD.DLL
 0001:0002b9a2       ?GetHead@CPtrList@@QAEAAPAXXZ 5f72c9a2 f   MFC42UD:MFC42uD.DLL
 0001:0002b9a8       ?IsEmpty@CPtrList@@QBEHXZ  5f72c9a8 f   MFC42UD:MFC42uD.DLL
 0001:0002b9ae       ?AfxLockGlobals@@YGXH@Z    5f72c9ae f   MFC42UD:MFC42uD.DLL
 0001:0002b9b4       ?Delete@CException@@QAEXXZ 5f72c9b4 f   MFC42UD:MFC42uD.DLL
 0001:0002b9ba       ??0CString@@QAE@PBD@Z      5f72c9ba f   MFC42UD:MFC42uD.DLL
 0001:0002b9c0       ?AfxThrowMemoryException@@YGXXZ 5f72c9c0 f   MFC42UD:MFC42uD.DLL
 0001:0002b9c6       ?GetSafeOwner_@CWnd@@SGPAUHWND__@@PAU2@PAPAU2@@Z 5f72c9c6 f   MFC42UD:MFC42uD.DLL
 0001:0002b9cc       ??4CString@@QAEABV0@PBD@Z  5f72c9cc f   MFC42UD:MFC42uD.DLL
 0001:0002b9d2       ?GetDepth@CDumpContext@@QBEHXZ 5f72c9d2 f   MFC42UD:MFC42uD.DLL
 0001:0002b9d8       ??6CDumpContext@@QAEAAV0@K@Z 5f72c9d8 f   MFC42UD:MFC42uD.DLL
 0001:0002b9de       ??6CDumpContext@@QAEAAV0@H@Z 5f72c9de f   MFC42UD:MFC42uD.DLL
 0001:0002b9e4       ??6@YGAAVCDumpContext@@AAV0@ABVCString@@@Z 5f72c9e4 f   MFC42UD:MFC42uD.DLL
 0001:0002b9ea       ??6CDumpContext@@QAEAAV0@PBX@Z 5f72c9ea f   MFC42UD:MFC42uD.DLL
 0001:0002b9f0       ??6CDumpContext@@QAEAAV0@PBD@Z 5f72c9f0 f   MFC42UD:MFC42uD.DLL
 0001:0002b9f6       ??1CMapPtrToPtr@@UAE@XZ    5f72c9f6 f   MFC42UD:MFC42uD.DLL
 0001:0002b9fc       ?AddHead@CPtrList@@QAEPAU__POSITION@@PAX@Z 5f72c9fc f   MFC42UD:MFC42uD.DLL
 0001:0002ba02       ?AfxIsValidAddress@@YGHPBXIH@Z 5f72ca02 f   MFC42UD:MFC42uD.DLL
 0001:0002ba08       ??0CMapPtrToPtr@@QAE@H@Z   5f72ca08 f   MFC42UD:MFC42uD.DLL
 0001:0002ba0e       ?RemoveAt@CPtrList@@QAEXPAU__POSITION@@@Z 5f72ca0e f   MFC42UD:MFC42uD.DLL
 0001:0002ba14       ?Find@CPtrList@@QBEPAU__POSITION@@PAXPAU2@@Z 5f72ca14 f   MFC42UD:MFC42uD.DLL
 0001:0002ba1a       ?Find@CString@@QBEHPBG@Z   5f72ca1a f   MFC42UD:MFC42uD.DLL
 0001:0002ba20       ??2@YAPAXIPBDH@Z           5f72ca20 f   MFC42UD:MFC42uD.DLL
 0001:0002ba26       ??3@YAXPAXPBDH@Z           5f72ca26 f   MFC42UD:MFC42uD.DLL
 0001:0002ba2c       ?GetBuffer@CString@@QAEPAGH@Z 5f72ca2c f   MFC42UD:MFC42uD.DLL
 0001:0002ba32       ?GetBufferSetLength@CString@@QAEPAGH@Z 5f72ca32 f   MFC42UD:MFC42uD.DLL
 0001:0002ba38       ??9@YG_NABVCString@@0@Z    5f72ca38 f   MFC42UD:MFC42uD.DLL
 0001:0002ba3e       ??3CObject@@SGXPAXPBDH@Z   5f72ca3e f   MFC42UD:MFC42uD.DLL
 0001:0002ba44       ?ReleaseBuffer@CString@@QAEXH@Z 5f72ca44 f   MFC42UD:MFC42uD.DLL
 0001:0002ba4a       ?MakeUpper@CString@@QAEXXZ 5f72ca4a f   MFC42UD:MFC42uD.DLL
 0001:0002ba50       ?SetAt@CString@@QAEXHG@Z   5f72ca50 f   MFC42UD:MFC42uD.DLL
 0001:0002ba56       ?Lookup@CMapPtrToPtr@@QBEHPAXAAPAX@Z 5f72ca56 f   MFC42UD:MFC42uD.DLL
 0001:0002ba5c       ??8@YG_NABVCString@@PBG@Z  5f72ca5c f   MFC42UD:MFC42uD.DLL
 0001:0002ba62       ??6CDumpContext@@QAEAAV0@PBVCObject@@@Z 5f72ca62 f   MFC42UD:MFC42uD.DLL
 0001:0002ba68       ??6CDumpContext@@QAEAAV0@J@Z 5f72ca68 f   MFC42UD:MFC42uD.DLL
 0001:0002ba6e       ??6CDumpContext@@QAEAAV0@I@Z 5f72ca6e f   MFC42UD:MFC42uD.DLL
 0001:0002ba74       ??1CProcessLocalObject@@QAE@XZ 5f72ca74 f   MFC42UD:MFC42uD.DLL
 0001:0002ba7a       ?GetData@CProcessLocalObject@@QAEPAVCNoTrackObject@@P6GPAV2@XZ@Z 5f72ca7a f   MFC42UD:MFC42uD.DLL
 0001:0002ba80       ??3CNoTrackObject@@SGXPAX@Z 5f72ca80 f   MFC42UD:MFC42uD.DLL
 0001:0002ba86       ??2CNoTrackObject@@SGPAXI@Z 5f72ca86 f   MFC42UD:MFC42uD.DLL
 0001:0002ba8c       ?GetData@CByteArray@@QAEPAEXZ 5f72ca8c f   MFC42UD:MFC42uD.DLL
 0001:0002ba92       ??YCString@@QAEABV0@D@Z    5f72ca92 f   MFC42UD:MFC42uD.DLL
 0001:0002ba98       ?SetAt@CMapPtrToPtr@@QAEXPAX0@Z 5f72ca98 f   MFC42UD:MFC42uD.DLL
 0001:0002ba9e       ??6CDumpContext@@QAEAAV0@PBG@Z 5f72ca9e f   MFC42UD:MFC42uD.DLL
 0001:0002baa4       ?LockBuffer@CString@@QAEPAGXZ 5f72caa4 f   MFC42UD:MFC42uD.DLL
 0001:0002baaa       ??6CDumpContext@@QAEAAV0@E@Z 5f72caaa f   MFC42UD:MFC42uD.DLL
 0001:0002bab0       ??0CByteArray@@QAE@XZ      5f72cab0 f   MFC42UD:MFC42uD.DLL
 0001:0002bab6       ?SetSize@CByteArray@@QAEXHH@Z 5f72cab6 f   MFC42UD:MFC42uD.DLL
 0001:0002babc       ??ACByteArray@@QAEAAEH@Z   5f72cabc f   MFC42UD:MFC42uD.DLL
 0001:0002bac2       ?GetSize@CByteArray@@QBEHXZ 5f72cac2 f   MFC42UD:MFC42uD.DLL
 0001:0002bac8       ??6@YGAAVCDumpContext@@AAV0@VCTime@@@Z 5f72cac8 f   MFC42UD:MFC42uD.DLL
 0001:0002bace       ??0CTime@@QAE@XZ           5f72cace f   MFC42UD:MFC42uD.DLL
 0001:0002bad4       ??9CTime@@QBEHV0@@Z        5f72cad4 f   MFC42UD:MFC42uD.DLL
 0001:0002bada       ??0CTime@@QAE@ABV0@@Z      5f72cada f   MFC42UD:MFC42uD.DLL
 0001:0002bae0       ??0CTime@@QAE@HHHHHHH@Z    5f72cae0 f   MFC42UD:MFC42uD.DLL
 0001:0002bae6       ??4CTime@@QAEABV0@ABV0@@Z  5f72cae6 f   MFC42UD:MFC42uD.DLL
 0001:0002baec       ??0CTime@@QAE@J@Z          5f72caec f   MFC42UD:MFC42uD.DLL
 0001:0002baf2       ?GetSecond@CTime@@QBEHXZ   5f72caf2 f   MFC42UD:MFC42uD.DLL
 0001:0002baf8       ?GetMinute@CTime@@QBEHXZ   5f72caf8 f   MFC42UD:MFC42uD.DLL
 0001:0002bafe       ?GetHour@CTime@@QBEHXZ     5f72cafe f   MFC42UD:MFC42uD.DLL
 0001:0002bb04       ?GetDay@CTime@@QBEHXZ      5f72cb04 f   MFC42UD:MFC42uD.DLL
 0001:0002bb0a       ?GetMonth@CTime@@QBEHXZ    5f72cb0a f   MFC42UD:MFC42uD.DLL
 0001:0002bb10       ?GetYear@CTime@@QBEHXZ     5f72cb10 f   MFC42UD:MFC42uD.DLL
 0001:0002bb16       ??6CDumpContext@@QAEAAV0@G@Z 5f72cb16 f   MFC42UD:MFC42uD.DLL
 0001:0002bb1c       ??8CTime@@QBEHV0@@Z        5f72cb1c f   MFC42UD:MFC42uD.DLL
 0001:0002bb22       ??8@YG_NABVCString@@0@Z    5f72cb22 f   MFC42UD:MFC42uD.DLL
 0001:0002bb28       ?Copy@CByteArray@@QAEXABV1@@Z 5f72cb28 f   MFC42UD:MFC42uD.DLL
 0001:0002bb2e       ?OnEndPrintPreview@CView@@MAEXPAVCDC@@PAUCPrintInfo@@UtagPOINT@@PAVCPreviewView@@@Z 5f72cb2e f   MFC42UD:MFC42uD.DLL
 0001:0002bb34       ?OnEndPrinting@CView@@MAEXPAVCDC@@PAUCPrintInfo@@@Z 5f72cb34 f   MFC42UD:MFC42uD.DLL
 0001:0002bb3a       ?OnPrint@CView@@MAEXPAVCDC@@PAUCPrintInfo@@@Z 5f72cb3a f   MFC42UD:MFC42uD.DLL
 0001:0002bb40       ?OnBeginPrinting@CView@@MAEXPAVCDC@@PAUCPrintInfo@@@Z 5f72cb40 f   MFC42UD:MFC42uD.DLL
 0001:0002bb46       ?OnPreparePrinting@CView@@MAEHPAUCPrintInfo@@@Z 5f72cb46 f   MFC42UD:MFC42uD.DLL
 0001:0002bb4c       ?OnDraw@CFormView@@MAEXPAVCDC@@@Z 5f72cb4c f   MFC42UD:MFC42uD.DLL
 0001:0002bb52       ?OnUpdate@CView@@MAEXPAV1@JPAVCObject@@@Z 5f72cb52 f   MFC42UD:MFC42uD.DLL
 0001:0002bb58       ?OnActivateFrame@CFormView@@MAEXIPAVCFrameWnd@@@Z 5f72cb58 f   MFC42UD:MFC42uD.DLL
 0001:0002bb5e       ?OnActivateView@CFormView@@MAEXHPAVCView@@0@Z 5f72cb5e f   MFC42UD:MFC42uD.DLL
 0001:0002bb64       ?OnPrepareDC@CScrollView@@UAEXPAVCDC@@PAUCPrintInfo@@@Z 5f72cb64 f   MFC42UD:MFC42uD.DLL
 0001:0002bb6a       ?OnDragScroll@CView@@UAEKKVCPoint@@@Z 5f72cb6a f   MFC42UD:MFC42uD.DLL
 0001:0002bb70       ?OnDropEx@CView@@UAEKPAVCOleDataObject@@KKVCPoint@@@Z 5f72cb70 f   MFC42UD:MFC42uD.DLL
 0001:0002bb76       ?OnDrop@CView@@UAEHPAVCOleDataObject@@KVCPoint@@@Z 5f72cb76 f   MFC42UD:MFC42uD.DLL
 0001:0002bb7c       ?OnDragLeave@CView@@UAEXXZ 5f72cb7c f   MFC42UD:MFC42uD.DLL
 0001:0002bb82       ?OnDragOver@CView@@UAEKPAVCOleDataObject@@KVCPoint@@@Z 5f72cb82 f   MFC42UD:MFC42uD.DLL
 0001:0002bb88       ?OnDragEnter@CView@@UAEKPAVCOleDataObject@@KVCPoint@@@Z 5f72cb88 f   MFC42UD:MFC42uD.DLL
 0001:0002bb8e       ?OnScrollBy@CScrollView@@UAEHVCSize@@H@Z 5f72cb8e f   MFC42UD:MFC42uD.DLL
 0001:0002bb94       ?OnScroll@CScrollView@@UAEHIIH@Z 5f72cb94 f   MFC42UD:MFC42uD.DLL
 0001:0002bb9a       ?IsSelected@CView@@UBEHPBVCObject@@@Z 5f72cb9a f   MFC42UD:MFC42uD.DLL
 0001:0002bba0       ?SetOccDialogInfo@CFormView@@MAEHPAU_AFX_OCC_DIALOG_INFO@@@Z 5f72cba0 f   MFC42UD:MFC42uD.DLL
 0001:0002bba6       ?IsFrameWnd@CWnd@@UBEHXZ   5f72cba6 f   MFC42UD:MFC42uD.DLL
 0001:0002bbac       ?CheckAutoCenter@CWnd@@UAEHXZ 5f72cbac f   MFC42UD:MFC42uD.DLL
 0001:0002bbb2       ?OnChildNotify@CWnd@@MAEHIIJPAJ@Z 5f72cbb2 f   MFC42UD:MFC42uD.DLL
 0001:0002bbb8       ?PostNcDestroy@CView@@MAEXXZ 5f72cbb8 f   MFC42UD:MFC42uD.DLL
 0001:0002bbbe       ?DefWindowProcW@CWnd@@MAEJIIJ@Z 5f72cbbe f   MFC42UD:MFC42uD.DLL
 0001:0002bbc4       ?OnWndMsg@CWnd@@MAEHIIJPAJ@Z 5f72cbc4 f   MFC42UD:MFC42uD.DLL
 0001:0002bbca       ?WindowProc@CWnd@@MAEJIIJ@Z 5f72cbca f   MFC42UD:MFC42uD.DLL
 0001:0002bbd0       ?OnAmbientProperty@CWnd@@UAEHPAVCOleControlSite@@JPAUtagVARIANT@@@Z 5f72cbd0 f   MFC42UD:MFC42uD.DLL
 0001:0002bbd6       ?PreTranslateMessage@CFormView@@MAEHPAUtagMSG@@@Z 5f72cbd6 f   MFC42UD:MFC42uD.DLL
 0001:0002bbdc       ?EndModalState@CWnd@@UAEXXZ 5f72cbdc f   MFC42UD:MFC42uD.DLL
 0001:0002bbe2       ?BeginModalState@CWnd@@UAEXXZ 5f72cbe2 f   MFC42UD:MFC42uD.DLL
 0001:0002bbe8       ?DoDataExchange@CWnd@@MAEXPAVCDataExchange@@@Z 5f72cbe8 f   MFC42UD:MFC42uD.DLL
 0001:0002bbee       ?GetSuperWndProcAddr@CWnd@@MAEPAP6GJPAUHWND__@@IIJ@ZXZ 5f72cbee f   MFC42UD:MFC42uD.DLL
 0001:0002bbf4       ?OnNotify@CWnd@@MAEHIJPAJ@Z 5f72cbf4 f   MFC42UD:MFC42uD.DLL
 0001:0002bbfa       ?OnCommand@CWnd@@MAEHIJ@Z  5f72cbfa f   MFC42UD:MFC42uD.DLL
 0001:0002bc00       ?EndModalLoop@CWnd@@UAEXH@Z 5f72cc00 f   MFC42UD:MFC42uD.DLL
 0001:0002bc06       ?ContinueModal@CWnd@@UAEHXZ 5f72cc06 f   MFC42UD:MFC42uD.DLL
 0001:0002bc0c       ?WinHelpW@CWnd@@UAEXKI@Z   5f72cc0c f   MFC42UD:MFC42uD.DLL
 0001:0002bc12       ?GetScrollBarCtrl@CView@@UBEPAVCScrollBar@@H@Z 5f72cc12 f   MFC42UD:MFC42uD.DLL
 0001:0002bc18       ?OnToolHitTest@CWnd@@UBEHVCPoint@@PAUtagTOOLINFOW@@@Z 5f72cc18 f   MFC42UD:MFC42uD.DLL
 0001:0002bc1e       ?CalcWindowRect@CScrollView@@UAEXPAUtagRECT@@I@Z 5f72cc1e f   MFC42UD:MFC42uD.DLL
 0001:0002bc24       ?PreCreateWindow@CView@@MAEHAAUtagCREATESTRUCTW@@@Z 5f72cc24 f   MFC42UD:MFC42uD.DLL
 0001:0002bc2a       ?DestroyWindow@CWnd@@UAEHXZ 5f72cc2a f   MFC42UD:MFC42uD.DLL
 0001:0002bc30       ?Create@CFormView@@MAEHPBG0KABUtagRECT@@PAVCWnd@@IPAUCCreateContext@@@Z 5f72cc30 f   MFC42UD:MFC42uD.DLL
 0001:0002bc36       ?PreSubclassWindow@CWnd@@UAEXXZ 5f72cc36 f   MFC42UD:MFC42uD.DLL
 0001:0002bc3c       ?GetConnectionHook@CCmdTarget@@MAEPAUIConnectionPoint@@ABU_GUID@@@Z 5f72cc3c f   MFC42UD:MFC42uD.DLL
 0001:0002bc42       ?GetExtraConnectionPoints@CCmdTarget@@MAEHPAVCPtrArray@@@Z 5f72cc42 f   MFC42UD:MFC42uD.DLL
 0001:0002bc48       ?GetInterfaceHook@CCmdTarget@@UAEPAUIUnknown@@PBX@Z 5f72cc48 f   MFC42UD:MFC42uD.DLL
 0001:0002bc4e       ?OnCreateAggregates@CCmdTarget@@UAEHXZ 5f72cc4e f   MFC42UD:MFC42uD.DLL
 0001:0002bc54       ?GetEventSinkMap@CCmdTarget@@MBEPBUAFX_EVENTSINKMAP@@XZ 5f72cc54 f   MFC42UD:MFC42uD.DLL
 0001:0002bc5a       ?GetInterfaceMap@CCmdTarget@@MBEPBUAFX_INTERFACEMAP@@XZ 5f72cc5a f   MFC42UD:MFC42uD.DLL
 0001:0002bc60       ?GetConnectionMap@CCmdTarget@@MBEPBUAFX_CONNECTIONMAP@@XZ 5f72cc60 f   MFC42UD:MFC42uD.DLL
 0001:0002bc66       ?GetDispatchMap@CCmdTarget@@MBEPBUAFX_DISPMAP@@XZ 5f72cc66 f   MFC42UD:MFC42uD.DLL
 0001:0002bc6c       ?GetCommandMap@CCmdTarget@@MBEPBUAFX_OLECMDMAP@@XZ 5f72cc6c f   MFC42UD:MFC42uD.DLL
 0001:0002bc72       ?GetTypeLib@CCmdTarget@@UAEJKPAPAUITypeLib@@@Z 5f72cc72 f   MFC42UD:MFC42uD.DLL
 0001:0002bc78       ?GetTypeLibCache@CCmdTarget@@UAEPAVCTypeLibCache@@XZ 5f72cc78 f   MFC42UD:MFC42uD.DLL
 0001:0002bc7e       ?GetTypeInfoCount@CCmdTarget@@UAEIXZ 5f72cc7e f   MFC42UD:MFC42uD.DLL
 0001:0002bc84       ?GetDispatchIID@CCmdTarget@@UAEHPAU_GUID@@@Z 5f72cc84 f   MFC42UD:MFC42uD.DLL
 0001:0002bc8a       ?IsInvokeAllowed@CCmdTarget@@UAEHJ@Z 5f72cc8a f   MFC42UD:MFC42uD.DLL
 0001:0002bc90       ?OnFinalRelease@CWnd@@UAEXXZ 5f72cc90 f   MFC42UD:MFC42uD.DLL
 0001:0002bc96       ?OnCmdMsg@CView@@UAEHIHPAXPAUAFX_CMDHANDLERINFO@@@Z 5f72cc96 f   MFC42UD:MFC42uD.DLL
 0001:0002bc9c       ??0CFormView@@IAE@PBG@Z    5f72cc9c f   MFC42UD:MFC42uD.DLL
 0001:0002bca2       ??0CFormView@@IAE@I@Z      5f72cca2 f   MFC42UD:MFC42uD.DLL
 0001:0002bca8       ??1CScrollView@@UAE@XZ     5f72cca8 f   MFC42UD:MFC42uD.DLL
 0001:0002bcae       ?OnInitialUpdate@CFormView@@UAEXXZ 5f72ccae f   MFC42UD:MFC42uD.DLL
 0001:0002bcb4       ??1CWaitCursor@@QAE@XZ     5f72ccb4 f   MFC42UD:MFC42uD.DLL
 0001:0002bcba       ??0CWaitCursor@@QAE@XZ     5f72ccba f   MFC42UD:MFC42uD.DLL
 0001:0002bcc0       ?UpdateData@CWnd@@QAEHH@Z  5f72ccc0 f   MFC42UD:MFC42uD.DLL
 0001:0002bcc6       ?AfxSetWindowText@@YGXPAUHWND__@@PBG@Z 5f72ccc6 f   MFC42UD:MFC42uD.DLL
 0001:0002bccc       ?PrepareEditCtrl@CDataExchange@@QAEPAUHWND__@@H@Z 5f72cccc f   MFC42UD:MFC42uD.DLL
 0001:0002bcd2       ?DDX_Text@@YGXPAVCDataExchange@@HAAH@Z 5f72ccd2 f   MFC42UD:MFC42uD.DLL
 0001:0002bcd8       ?DDX_Text@@YGXPAVCDataExchange@@HAAE@Z 5f72ccd8 f   MFC42UD:MFC42uD.DLL
 0001:0002bcde       ?DDX_Text@@YGXPAVCDataExchange@@HAAI@Z 5f72ccde f   MFC42UD:MFC42uD.DLL
 0001:0002bce4       ?DDX_Text@@YGXPAVCDataExchange@@HAAJ@Z 5f72cce4 f   MFC42UD:MFC42uD.DLL
 0001:0002bcea       ?DDX_Text@@YGXPAVCDataExchange@@HAAK@Z 5f72ccea f   MFC42UD:MFC42uD.DLL
 0001:0002bcf0       ?AfxFailMaxChars@@YGXPAVCDataExchange@@H@Z 5f72ccf0 f   MFC42UD:MFC42uD.DLL
 0001:0002bcf6       ?GetAllocLength@CString@@QBEHXZ 5f72ccf6 f   MFC42UD:MFC42uD.DLL
 0001:0002bcfc       ?PrepareCtrl@CDataExchange@@QAEPAUHWND__@@H@Z 5f72ccfc f   MFC42UD:MFC42uD.DLL
 0001:0002bd02       ?DDX_LBIndex@@YGXPAVCDataExchange@@HAAH@Z 5f72cd02 f   MFC42UD:MFC42uD.DLL
 0001:0002bd08       ?DDX_CBIndex@@YGXPAVCDataExchange@@HAAH@Z 5f72cd08 f   MFC42UD:MFC42uD.DLL
 0001:0002bd0e       ?DDX_Scroll@@YGXPAVCDataExchange@@HAAH@Z 5f72cd0e f   MFC42UD:MFC42uD.DLL
 0001:0002bd14       ?AfxFailRadio@@YGXPAVCDataExchange@@@Z 5f72cd14 f   MFC42UD:MFC42uD.DLL
 0001:0002bd1a       ?DDX_Radio@@YGXPAVCDataExchange@@HAAH@Z 5f72cd1a f   MFC42UD:MFC42uD.DLL
 0001:0002bd20       ?AssertValid@CFormView@@UBEXXZ 5f72cd20 f   MFC42UD:MFC42uD.DLL
 0001:0002bd26       ?Dump@CFormView@@UBEXAAVCDumpContext@@@Z 5f72cd26 f   MFC42UD:MFC42uD.DLL
 0001:0002bd2c       ?OnMove@CWnd@@IAEXHH@Z     5f72cd2c f   MFC42UD:MFC42uD.DLL
 0001:0002bd32       ??6CDumpContext@@QAEAAV0@M@Z 5f72cd32 f   MFC42UD:MFC42uD.DLL
 0001:0002bd38       ??6CDumpContext@@QAEAAV0@N@Z 5f72cd38 f   MFC42UD:MFC42uD.DLL
 0001:0002bd3e       ?AfxTextFloatFormat@@YGXPAVCDataExchange@@HPAXNH@Z 5f72cd3e f   MFC42UD:MFC42uD.DLL
 0001:0002bd44       ?IsEmpty@CMapPtrToPtr@@QBEHXZ 5f72cd44 f   MFC42UD:MFC42uD.DLL
 0001:0002bd4a       ?RemoveKey@CMapPtrToPtr@@QAEHPAX@Z 5f72cd4a f   MFC42UD:MFC42uD.DLL
 0001:0002bd50       ?RemoveAll@CMapPtrToPtr@@QAEXXZ 5f72cd50 f   MFC42UD:MFC42uD.DLL
 0001:0002bd56       ?GetNextAssoc@CMapPtrToPtr@@QBEXAAPAU__POSITION@@AAPAX1@Z 5f72cd56 f   MFC42UD:MFC42uD.DLL
 0001:0002bd5c       ?GetStartPosition@CMapPtrToPtr@@QBEPAU__POSITION@@XZ 5f72cd5c f   MFC42UD:MFC42uD.DLL
 0001:0002bd62       ??0CString@@QAE@ABV0@@Z    5f72cd62 f   MFC42UD:MFC42uD.DLL
 0001:0002bd68       ??3CNoTrackObject@@SGXPAXPBDH@Z 5f72cd68 f   MFC42UD:MFC42uD.DLL
 0001:0002bd6e       ??2CNoTrackObject@@SGPAXIPBDH@Z 5f72cd6e f   MFC42UD:MFC42uD.DLL
 0001:0002bd74       ?AfxGetApp@@YGPAVCWinApp@@XZ 5f72cd74 f   MFC42UD:MFC42uD.DLL
 0001:0002bd7a       ??6CDumpContext@@QAEAAV0@ABVCObject@@@Z 5f72cd7a f   MFC42UD:MFC42uD.DLL
 0001:0002bd80       ?DDX_Text@@YGXPAVCDataExchange@@HAAF@Z 5f72cd80 f   MFC42UD:MFC42uD.DLL
 0001:0002bd86       ?DDX_Text@@YGXPAVCDataExchange@@HAAM@Z 5f72cd86 f   MFC42UD:MFC42uD.DLL
 0001:0002bd8c       ?DDX_Text@@YGXPAVCDataExchange@@HAAN@Z 5f72cd8c f   MFC42UD:MFC42uD.DLL
 0001:0002bd92       ?DDX_Text@@YGXPAVCDataExchange@@HAAVCString@@@Z 5f72cd92 f   MFC42UD:MFC42uD.DLL
 0001:0002bd98       ?DDX_Text@@YGXPAVCDataExchange@@HPAGH@Z 5f72cd98 f   MFC42UD:MFC42uD.DLL
 0001:0002bd9e       ?DDX_Slider@@YGXPAVCDataExchange@@HAAH@Z 5f72cd9e f   MFC42UD:MFC42uD.DLL
 0001:0002bda4       ?Format@COleDateTime@@QBE?AVCString@@KK@Z 5f72cda4 f   MFCO42UD:MFCO42uD.DLL
 0001:0002bdaa       ?GetStatus@COleDateTime@@QBE?AW4DateTimeStatus@1@XZ 5f72cdaa f   MFCO42UD:MFCO42uD.DLL
 0001:0002bdb0       ??4COleDateTime@@QAEABV0@ABV0@@Z 5f72cdb0 f   MFCO42UD:MFCO42uD.DLL
 0001:0002bdb6       ??0COleDateTime@@QAE@HHHHHH@Z 5f72cdb6 f   MFCO42UD:MFCO42uD.DLL
 0001:0002bdbc       ?SetStatus@COleDateTime@@QAEXW4DateTimeStatus@1@@Z 5f72cdbc f   MFCO42UD:MFCO42uD.DLL
 0001:0002bdc2       ??0COleDateTime@@QAE@XZ    5f72cdc2 f   MFCO42UD:MFCO42uD.DLL
 0001:0002bdc8       ?GetSecond@COleDateTime@@QBEHXZ 5f72cdc8 f   MFCO42UD:MFCO42uD.DLL
 0001:0002bdce       ?GetMinute@COleDateTime@@QBEHXZ 5f72cdce f   MFCO42UD:MFCO42uD.DLL
 0001:0002bdd4       ?GetHour@COleDateTime@@QBEHXZ 5f72cdd4 f   MFCO42UD:MFCO42uD.DLL
 0001:0002bdda       ?GetDay@COleDateTime@@QBEHXZ 5f72cdda f   MFCO42UD:MFCO42uD.DLL
 0001:0002bde0       ?GetMonth@COleDateTime@@QBEHXZ 5f72cde0 f   MFCO42UD:MFCO42uD.DLL
 0001:0002bde6       ?GetYear@COleDateTime@@QBEHXZ 5f72cde6 f   MFCO42UD:MFCO42uD.DLL
 0001:0002bdec       ??8COleDateTime@@QBEHABV0@@Z 5f72cdec f   MFCO42UD:MFCO42uD.DLL
 0001:0002bdf2       ??6@YGAAVCDumpContext@@AAV0@VCOleDateTime@@@Z 5f72cdf2 f   MFCO42UD:MFCO42uD.DLL
 0001:0002bdf8       ??0COleDateTime@@QAE@ABV0@@Z 5f72cdf8 f   MFCO42UD:MFCO42uD.DLL
 0001:0002bdfe       ??1COleVariant@@QAE@XZ     5f72cdfe f   MFCO42UD:MFCO42uD.DLL
 0001:0002be04       ??6@YGAAVCDumpContext@@AAV0@VCOleVariant@@@Z 5f72ce04 f   MFCO42UD:MFCO42uD.DLL
 0001:0002be0a       ??0COleVariant@@QAE@ABV0@@Z 5f72ce0a f   MFCO42UD:MFCO42uD.DLL
 0001:0002be10       ??0COleVariant@@QAE@JG@Z   5f72ce10 f   MFCO42UD:MFCO42uD.DLL
 0001:0002be16       ?Clear@COleVariant@@QAEXXZ 5f72ce16 f   MFCO42UD:MFCO42uD.DLL
 0001:0002be1c       ??0COleVariant@@QAE@XZ     5f72ce1c f   MFCO42UD:MFCO42uD.DLL
 0001:0002be22       ??0COleVariant@@QAE@PBGG@Z 5f72ce22 f   MFCO42UD:MFCO42uD.DLL
 0001:0002be28       ??4COleVariant@@QAEABV0@J@Z 5f72ce28 f   MFCO42UD:MFCO42uD.DLL
 0001:0002be2e       ??4COleDateTime@@QAEABV0@ABUtagVARIANT@@@Z 5f72ce2e f   MFCO42UD:MFCO42uD.DLL
 0001:0002be34       ??BCOleVariant@@QAEPAUtagVARIANT@@XZ 5f72ce34 f   MFCO42UD:MFCO42uD.DLL
 0001:0002be3a       ??0COleDateTime@@QAE@N@Z   5f72ce3a f   MFCO42UD:MFCO42uD.DLL
 0001:0002be40       ??0COleVariant@@QAE@FG@Z   5f72ce40 f   MFCO42UD:MFCO42uD.DLL
 0001:0002be46       ??0COleVariant@@QAE@ABUtagVARIANT@@@Z 5f72ce46 f   MFCO42UD:MFCO42uD.DLL
 0001:0002be4c       ??4COleVariant@@QAEABV0@QBG@Z 5f72ce4c f   MFCO42UD:MFCO42uD.DLL
 0001:0002be52       ?SetStatus@COleCurrency@@QAEXW4CurrencyStatus@1@@Z 5f72ce52 f   MFCO42UD:MFCO42uD.DLL
 0001:0002be58       ?GetStatus@COleCurrency@@QBE?AW4CurrencyStatus@1@XZ 5f72ce58 f   MFCO42UD:MFCO42uD.DLL
 0001:0002be5e       ??0COleCurrency@@QAE@XZ    5f72ce5e f   MFCO42UD:MFCO42uD.DLL
 0001:0002be64       ??4COleCurrency@@QAEABV0@ABV0@@Z 5f72ce64 f   MFCO42UD:MFCO42uD.DLL
 0001:0002be6a       ??9COleDateTime@@QBEHABV0@@Z 5f72ce6a f   MFCO42UD:MFCO42uD.DLL
 0001:0002be70       ??9COleCurrency@@QBEHABV0@@Z 5f72ce70 f   MFCO42UD:MFCO42uD.DLL
 0001:0002be76       ??4COleVariant@@QAEABV0@ABVCOleDateTime@@@Z 5f72ce76 f   MFCO42UD:MFCO42uD.DLL
 0001:0002be7c       ??4COleVariant@@QAEABV0@N@Z 5f72ce7c f   MFCO42UD:MFCO42uD.DLL
 0001:0002be82       ??4COleVariant@@QAEABV0@M@Z 5f72ce82 f   MFCO42UD:MFCO42uD.DLL
 0001:0002be88       ??4COleVariant@@QAEABV0@ABVCOleCurrency@@@Z 5f72ce88 f   MFCO42UD:MFCO42uD.DLL
 0001:0002be8e       ??4COleVariant@@QAEABV0@F@Z 5f72ce8e f   MFCO42UD:MFCO42uD.DLL
 0001:0002be94       ??4COleVariant@@QAEABV0@E@Z 5f72ce94 f   MFCO42UD:MFCO42uD.DLL
 0001:0002be9a       ??4COleVariant@@QAEABV0@ABVCLongBinary@@@Z 5f72ce9a f   MFCO42UD:MFCO42uD.DLL
 0001:0002bea0       ??4COleVariant@@QAEABV0@ABVCByteArray@@@Z 5f72cea0 f   MFCO42UD:MFCO42uD.DLL
 0001:0002bea6       ??6@YGAAVCDumpContext@@AAV0@VCOleCurrency@@@Z 5f72cea6 f   MFCO42UD:MFCO42uD.DLL
 0001:0002beac       ??0COleCurrency@@QAE@ABV0@@Z 5f72ceac f   MFCO42UD:MFCO42uD.DLL
 0001:0002beb2       ??4COleVariant@@QAEABV0@ABV0@@Z 5f72ceb2 f   MFCO42UD:MFCO42uD.DLL
 0001:0002beb8       ??8COleVariant@@QBEHABUtagVARIANT@@@Z 5f72ceb8 f   MFCO42UD:MFCO42uD.DLL
 0001:0002bebe       ?DDX_Text@@YGXPAVCDataExchange@@HAAVCOleCurrency@@@Z 5f72cebe f   MFCO42UD:MFCO42uD.DLL
 0001:0002bec4       ?DDX_Text@@YGXPAVCDataExchange@@HAAVCOleDateTime@@@Z 5f72cec4 f   MFCO42UD:MFCO42uD.DLL
 0001:0002beca       ___CxxFrameHandler         5f72ceca f   msvcrtd:MSVCRTD.dll
 0001:0002bed0       ??_L@YGXPAXIHP6EX0@Z1@Z    5f72ced0 f   msvcrtd:ehvecctr.obj
 0001:0002bf70       ??_M@YGXPAXIHP6EX0@Z@Z     5f72cf70 f   msvcrtd:ehvecdtr.obj
 0001:0002c020       ?__ArrayUnwind@@YGXPAXIHP6EX0@Z@Z 5f72d020 f   msvcrtd:ehvecdtr.obj
 0001:0002c0d0       ??0type_info@@AAE@ABV0@@Z  5f72d0d0 f   msvcrtd:ti_inst.obj
 0001:0002c0f0       ??_Gtype_info@@UAEPAXI@Z   5f72d0f0 f i msvcrtd:ti_inst.obj
 0001:0002c0f0       ??_Etype_info@@UAEPAXI@Z   5f72d0f0 f i msvcrtd:ti_inst.obj
 0001:0002c120       ??4type_info@@AAEAAV0@ABV0@@Z 5f72d120 f   msvcrtd:ti_inst.obj
 0001:0002c130       __CxxThrowException@8      5f72d130 f   msvcrtd:MSVCRTD.dll
 0001:0002c136       __wcsnicmp                 5f72d136 f   msvcrtd:MSVCRTD.dll
 0001:0002c140       __alloca_probe             5f72d140 f   msvcrtd:chkstk.obj
 0001:0002c140       __chkstk                   5f72d140 f   msvcrtd:chkstk.obj
 0001:0002c170       __CrtDbgReport             5f72d170 f   msvcrtd:MSVCRTD.dll
 0001:0002c176       _memset                    5f72d176 f   msvcrtd:MSVCRTD.dll
 0001:0002c17c       _memcpy                    5f72d17c f   msvcrtd:MSVCRTD.dll
 0001:0002c182       _wcsstr                    5f72d182 f   msvcrtd:MSVCRTD.dll
 0001:0002c188       _abs                       5f72d188 f   msvcrtd:MSVCRTD.dll
 0001:0002c190       __onexit                   5f72d190 f   msvcrtd:atonexit.obj
 0001:0002c1d0       _atexit                    5f72d1d0 f   msvcrtd:atonexit.obj
 0001:0002c1e8       _labs                      5f72d1e8 f   msvcrtd:MSVCRTD.dll
 0001:0002c1ee       _memcmp                    5f72d1ee f   msvcrtd:MSVCRTD.dll
 0001:0002c1f4       __purecall                 5f72d1f4 f   msvcrtd:MSVCRTD.dll
 0001:0002c1fa       __vsnwprintf               5f72d1fa f   msvcrtd:MSVCRTD.dll
 0001:0002c200       __CRT_INIT@12              5f72d200 f   msvcrtd:crtdll.obj
 0001:0002c310       __DllMainCRTStartup@12     5f72d310 f   msvcrtd:crtdll.obj
 0001:0002c404       __except_handler3          5f72d404 f   msvcrtd:MSVCRTD.dll
 0001:0002c40a       ?terminate@@YAXXZ          5f72d40a f   msvcrtd:MSVCRTD.dll
 0001:0002c410       ??1type_info@@UAE@XZ       5f72d410 f   msvcrtd:MSVCRTD.dll
 0001:0002c416       ___dllonexit               5f72d416 f   msvcrtd:MSVCRTD.dll
 0001:0002c41c       __free_dbg                 5f72d41c f   msvcrtd:MSVCRTD.dll
 0001:0002c422       __initterm                 5f72d422 f   msvcrtd:MSVCRTD.dll
 0001:0002c428       __malloc_dbg               5f72d428 f   msvcrtd:MSVCRTD.dll
 0001:0002c42e       _FreeLibrary@4             5f72d42e f   kernel32:KERNEL32.dll
 0001:0002c434       _GetModuleHandleA@4        5f72d434 f   kernel32:KERNEL32.dll
 0001:0002c43a       _LocalFree@4               5f72d43a f   kernel32:KERNEL32.dll
 0001:0002c440       _LocalAlloc@8              5f72d440 f   kernel32:KERNEL32.dll
 0001:0002c446       _LoadLibraryA@4            5f72d446 f   kernel32:KERNEL32.dll
 0001:0002c44c       _lstrcmpW@8                5f72d44c f   kernel32:KERNEL32.dll
 0001:0002c452       _lstrcpynW@12              5f72d452 f   kernel32:KERNEL32.dll
 0001:0002c458       _lstrlenW@4                5f72d458 f   kernel32:KERNEL32.dll
 0001:0002c45e       _WideCharToMultiByte@32    5f72d45e f   kernel32:KERNEL32.dll
 0001:0002c464       _lstrcmpA@8                5f72d464 f   kernel32:KERNEL32.dll
 0001:0002c46a       _lstrcpyW@8                5f72d46a f   kernel32:KERNEL32.dll
 0001:0002c470       _GlobalUnlock@4            5f72d470 f   kernel32:KERNEL32.dll
 0001:0002c476       _GlobalLock@4              5f72d476 f   kernel32:KERNEL32.dll
 0001:0002c47c       _GlobalAlloc@8             5f72d47c f   kernel32:KERNEL32.dll
 0001:0002c482       _GlobalReAlloc@12          5f72d482 f   kernel32:KERNEL32.dll
 0001:0002c488       _lstrlenA@4                5f72d488 f   kernel32:KERNEL32.dll
 0001:0002c48e       _lstrcpyA@8                5f72d48e f   kernel32:KERNEL32.dll
 0001:0002c494       _GlobalFree@4              5f72d494 f   kernel32:KERNEL32.dll
 0001:0002c49a       _GlobalSize@4              5f72d49a f   kernel32:KERNEL32.dll
 0001:0002c4a0       _OutputDebugStringW@4      5f72d4a0 f   kernel32:KERNEL32.dll
 0001:0002c4a6       _wsprintfW                 5f72d4a6 f   user32:USER32.dll
 0001:0002c4ac       _EnableWindow@8            5f72d4ac f   user32:USER32.dll
 0001:0002c4b2       _GetDesktopWindow@0        5f72d4b2 f   user32:USER32.dll
 0001:0002c4b8       _GetWindowTextW@12         5f72d4b8 f   user32:USER32.dll
 0001:0002c4be       _GetWindowTextLengthW@4    5f72d4be f   user32:USER32.dll
 0001:0002c4c4       _SendMessageW@16           5f72d4c4 f   user32:USER32.dll
 0001:0002c4ca       _GetWindowLongW@8          5f72d4ca f   user32:USER32.dll
 0001:0002c4d0       _Downlevel_DelayLoadFailureHook@8 5f72d4d0 f   mfcdload:downlevel_dload.obj
 0001:0002c5a0       _DelayLoadFailureHook@8    5f72d5a0 f   mfcdload:dload.obj
 0001:0002c5d0       _AtlStrLower               5f72d5d0 f   mfcdload:lookup.obj
 0001:0002c61a       _AssertDelayLoadFailureMapsAreSorted@0 5f72d61a f   mfcdload:lookup.obj
 0001:0002c61f       _FindDll                   5f72d61f f   mfcdload:lookup.obj
 0001:0002c712       _LookupHandlerByName       5f72d712 f   mfcdload:lookup.obj
 0001:0002c7a0       _LookupHandlerByOrdinal    5f72d7a0 f   mfcdload:lookup.obj
 0001:0002c825       _LookupHandler             5f72d825 f   mfcdload:lookup.obj
 0001:0002d17a       _UrlMkSetSessionOption@16  5f72e17a f   mfcdload:urlmon.obj
 0001:0002e883       __imp_load__CoGetClassObject@20 5f72f883     ole32:ole32.dll
 0001:0002e88f       __tailMerge_ole32          5f72f88f     ole32:ole32.dll
 0001:0002e89d       _CoGetClassObject@20       5f72f89d     ole32:ole32.dll
 0001:0002e8a3       __imp_load__CoInitialize@4 5f72f8a3     ole32:ole32.dll
 0001:0002e8af       _CoInitialize@4            5f72f8af     ole32:ole32.dll
 0001:0002e8b5       __imp_load__CoUninitialize@0 5f72f8b5     ole32:ole32.dll
 0001:0002e8c1       _CoUninitialize@0          5f72f8c1     ole32:ole32.dll
 0001:0002e8c7       __imp_load__SysFreeString@4 5f72f8c7     oleaut32:OLEAUT32.dll
 0001:0002e8d3       __tailMerge_OLEAUT32       5f72f8d3     oleaut32:OLEAUT32.dll
 0001:0002e8e1       _SysFreeString@4           5f72f8e1     oleaut32:OLEAUT32.dll
 0001:0002e8e7       __imp_load__SQLError@32    5f72f8e7     odbc32:ODBC32.dll
 0001:0002e8f3       __tailMerge_ODBC32         5f72f8f3     odbc32:ODBC32.dll
 0001:0002e901       _SQLError@32               5f72f901     odbc32:ODBC32.dll
 0001:0002e907       __imp_load__SQLFreeStmt@8  5f72f907     odbc32:ODBC32.dll
 0001:0002e913       _SQLFreeStmt@8             5f72f913     odbc32:ODBC32.dll
 0001:0002e919       __imp_load__SQLCancel@4    5f72f919     odbc32:ODBC32.dll
 0001:0002e925       _SQLCancel@4               5f72f925     odbc32:ODBC32.dll
 0001:0002e92b       __imp_load__SQLMoreResults@4 5f72f92b     odbc32:ODBC32.dll
 0001:0002e937       _SQLMoreResults@4          5f72f937     odbc32:ODBC32.dll
 0001:0002e93d       __imp_load__SQLFetch@4     5f72f93d     odbc32:ODBC32.dll
 0001:0002e949       _SQLFetch@4                5f72f949     odbc32:ODBC32.dll
 0001:0002e94f       __imp_load__SQLNumResultCols@8 5f72f94f     odbc32:ODBC32.dll
 0001:0002e95b       _SQLNumResultCols@8        5f72f95b     odbc32:ODBC32.dll
 0001:0002e961       __imp_load__SQLExecDirect@12 5f72f961     odbc32:ODBC32.dll
 0001:0002e96d       _SQLExecDirect@12          5f72f96d     odbc32:ODBC32.dll
 0001:0002e973       __imp_load__SQLAllocStmt@8 5f72f973     odbc32:ODBC32.dll
 0001:0002e97f       _SQLAllocStmt@8            5f72f97f     odbc32:ODBC32.dll
 0001:0002e985       __imp_load__SQLFreeConnect@4 5f72f985     odbc32:ODBC32.dll
 0001:0002e991       _SQLFreeConnect@4          5f72f991     odbc32:ODBC32.dll
 0001:0002e997       __imp_load__SQLDisconnect@4 5f72f997     odbc32:ODBC32.dll
 0001:0002e9a3       _SQLDisconnect@4           5f72f9a3     odbc32:ODBC32.dll
 0001:0002e9a9       __imp_load__SQLFreeEnv@4   5f72f9a9     odbc32:ODBC32.dll
 0001:0002e9b5       _SQLFreeEnv@4              5f72f9b5     odbc32:ODBC32.dll
 0001:0002e9bb       __imp_load__SQLSetStmtOption@12 5f72f9bb     odbc32:ODBC32.dll
 0001:0002e9c7       _SQLSetStmtOption@12       5f72f9c7     odbc32:ODBC32.dll
 0001:0002e9cd       __imp_load__SQLGetInfo@20  5f72f9cd     odbc32:ODBC32.dll
 0001:0002e9d9       _SQLGetInfo@20             5f72f9d9     odbc32:ODBC32.dll
 0001:0002e9df       __imp_load__SQLSetConnectOption@12 5f72f9df     odbc32:ODBC32.dll
 0001:0002e9eb       _SQLSetConnectOption@12    5f72f9eb     odbc32:ODBC32.dll
 0001:0002e9f1       __imp_load__SQLTransact@12 5f72f9f1     odbc32:ODBC32.dll
 0001:0002e9fd       _SQLTransact@12            5f72f9fd     odbc32:ODBC32.dll
 0001:0002ea03       __imp_load__SQLAllocConnect@8 5f72fa03     odbc32:ODBC32.dll
 0001:0002ea0f       _SQLAllocConnect@8         5f72fa0f     odbc32:ODBC32.dll
 0001:0002ea15       __imp_load__SQLAllocEnv@4  5f72fa15     odbc32:ODBC32.dll
 0001:0002ea21       _SQLAllocEnv@4             5f72fa21     odbc32:ODBC32.dll
 0001:0002ea27       __imp_load__SQLDriverConnect@32 5f72fa27     odbc32:ODBC32.dll
 0001:0002ea33       _SQLDriverConnect@32       5f72fa33     odbc32:ODBC32.dll
 0001:0002ea39       __imp_load__SQLGetData@24  5f72fa39     odbc32:ODBC32.dll
 0001:0002ea45       _SQLGetData@24             5f72fa45     odbc32:ODBC32.dll
 0001:0002ea4b       __imp_load__SQLSetPos@16   5f72fa4b     odbc32:ODBC32.dll
 0001:0002ea57       _SQLSetPos@16              5f72fa57     odbc32:ODBC32.dll
 0001:0002ea5d       __imp_load__SQLExecute@4   5f72fa5d     odbc32:ODBC32.dll
 0001:0002ea69       _SQLExecute@4              5f72fa69     odbc32:ODBC32.dll
 0001:0002ea6f       __imp_load__SQLGetStmtOption@12 5f72fa6f     odbc32:ODBC32.dll
 0001:0002ea7b       _SQLGetStmtOption@12       5f72fa7b     odbc32:ODBC32.dll
 0001:0002ea81       __imp_load__SQLPrepare@12  5f72fa81     odbc32:ODBC32.dll
 0001:0002ea8d       _SQLPrepare@12             5f72fa8d     odbc32:ODBC32.dll
 0001:0002ea93       __imp_load__SQLGetFunctions@12 5f72fa93     odbc32:ODBC32.dll
 0001:0002ea9f       _SQLGetFunctions@12        5f72fa9f     odbc32:ODBC32.dll
 0001:0002eaa5       __imp_load__SQLDescribeCol@36 5f72faa5     odbc32:ODBC32.dll
 0001:0002eab1       _SQLDescribeCol@36         5f72fab1     odbc32:ODBC32.dll
 0001:0002eab7       __imp_load__SQLExtendedFetch@20 5f72fab7     odbc32:ODBC32.dll
 0001:0002eac3       _SQLExtendedFetch@20       5f72fac3     odbc32:ODBC32.dll
 0001:0002eac9       __imp_load__SQLGetCursorName@16 5f72fac9     odbc32:ODBC32.dll
 0001:0002ead5       _SQLGetCursorName@16       5f72fad5     odbc32:ODBC32.dll
 0001:0002eadb       __imp_load__SQLRowCount@8  5f72fadb     odbc32:ODBC32.dll
 0001:0002eae7       _SQLRowCount@8             5f72fae7     odbc32:ODBC32.dll
 0001:0002eaed       __imp_load__SQLPutData@12  5f72faed     odbc32:ODBC32.dll
 0001:0002eaf9       _SQLPutData@12             5f72faf9     odbc32:ODBC32.dll
 0001:0002eaff       __imp_load__SQLParamData@8 5f72faff     odbc32:ODBC32.dll
 0001:0002eb0b       _SQLParamData@8            5f72fb0b     odbc32:ODBC32.dll
 0001:0002eb11       __imp_load__SQLBindCol@24  5f72fb11     odbc32:ODBC32.dll
 0001:0002eb1d       _SQLBindCol@24             5f72fb1d     odbc32:ODBC32.dll
 0001:0002eb23       __imp_load__SQLBindParameter@40 5f72fb23     odbc32:ODBC32.dll
 0001:0002eb2f       _SQLBindParameter@40       5f72fb2f     odbc32:ODBC32.dll
 0001:0002eb36       _strcmp                    5f72fb36 f   msvcrtd:MSVCRTD.dll
 0001:0002eb3c       _strcpy                    5f72fb3c f   msvcrtd:MSVCRTD.dll
 0001:0002eb42       _SetLastError@4            5f72fb42 f   kernel32:KERNEL32.dll
 0001:0002eb48       _OutputDebugStringA@4      5f72fb48 f   kernel32:KERNEL32.dll
 0001:0002eb4e       _GetTickCount@0            5f72fb4e f   kernel32:KERNEL32.dll
 0001:0002eb54       ___delayLoadHelper@8       5f72fb54 f   delayimp:delayhlp.obj
 0001:0002ed4d       ___FUnloadDelayLoadedDLL@4 5f72fd4d f   delayimp:delayhlp.obj
 0001:0002ee00       _GetProcAddress@8          5f72fe00 f   kernel32:KERNEL32.dll
 0001:0002ee06       _InterlockedExchange@8     5f72fe06 f   kernel32:KERNEL32.dll
 0001:0002ee0c       _RaiseException@16         5f72fe0c f   kernel32:KERNEL32.dll
 0001:0002ee12       _GetLastError@0            5f72fe12 f   kernel32:KERNEL32.dll
 0001:0002ee20       ?_GetBaseMessageMap@COleDBRecordView@@KGPBUAFX_MSGMAP@@XZ 5f72fe20 f   viewoled.obj
 0001:0002ee2a       ?GetMessageMap@COleDBRecordView@@MBEPBUAFX_MSGMAP@@XZ 5f72fe2a f   viewoled.obj
 0001:0002ee3a       ?OnInitialUpdate@COleDBRecordView@@UAEXXZ 5f72fe3a f   viewoled.obj
 0001:0002ee4d       ?OnMove@COleDBRecordView@@UAEHI@Z 5f72fe4d f   viewoled.obj
 0001:0002efc6       ?OnUpdateRecordFirst@COleDBRecordView@@IAEXPAVCCmdUI@@@Z 5f72ffc6 f   viewoled.obj
 0001:0002efed       ?OnUpdateRecordPrev@COleDBRecordView@@IAEXPAVCCmdUI@@@Z 5f72ffed f   viewoled.obj
 0001:0002f014       ?OnUpdateRecordNext@COleDBRecordView@@IAEXPAVCCmdUI@@@Z 5f730014 f   viewoled.obj
 0001:0002f03b       ?OnUpdateRecordLast@COleDBRecordView@@IAEXPAVCCmdUI@@@Z 5f73003b f   viewoled.obj
 0001:0002f070       _RawDllMain@12             5f730070 f   dlldb.obj
 0001:0002f12b       _DllMain@12                5f73012b f   dlldb.obj
 0001:0002f1ea       ?AfxDbInitModule@@YGXXZ    5f7301ea f   dlldb.obj
 0001:0002f2b0       ?_GetBaseClass@CDBException@@KGPAUCRuntimeClass@@XZ 5f7302b0 f   dbcore.obj
 0001:0002f2ba       ?GetRuntimeClass@CDBException@@UBEPAUCRuntimeClass@@XZ 5f7302ba f   dbcore.obj
 0001:0002f2ca       ?_GetBaseClass@CDatabase@@KGPAUCRuntimeClass@@XZ 5f7302ca f   dbcore.obj
 0001:0002f2d4       ?GetRuntimeClass@CDatabase@@UBEPAUCRuntimeClass@@XZ 5f7302d4 f   dbcore.obj
 0001:0002f2e4       ?_GetBaseClass@CRecordset@@KGPAUCRuntimeClass@@XZ 5f7302e4 f   dbcore.obj
 0001:0002f2ee       ?GetRuntimeClass@CRecordset@@UBEPAUCRuntimeClass@@XZ 5f7302ee f   dbcore.obj
 0001:0002f340       ??1?$CProcessLocal@V_AFX_DB_STATE@@@@QAE@XZ 5f730340 f i dbcore.obj
 0001:0002f360       ??B?$CProcessLocal@V_AFX_DB_STATE@@@@QAEPAV_AFX_DB_STATE@@XZ 5f730360 f i dbcore.obj
 0001:0002f380       ?GetData@?$CProcessLocal@V_AFX_DB_STATE@@@@QAEPAV_AFX_DB_STATE@@XZ 5f730380 f i dbcore.obj
 0001:0002f3d0       ?CreateObject@?$CProcessLocal@V_AFX_DB_STATE@@@@SGPAVCNoTrackObject@@XZ 5f7303d0 f i dbcore.obj
 0001:0002f440       ??0_AFX_DB_STATE@@QAE@XZ   5f730440 f i dbcore.obj
 0001:0002f460       ??_E_AFX_DB_STATE@@UAEPAXI@Z 5f730460 f i dbcore.obj
 0001:0002f460       ??_G_AFX_DB_STATE@@UAEPAXI@Z 5f730460 f i dbcore.obj
 0001:0002f490       ??0CNoTrackObject@@QAE@XZ  5f730490 f i dbcore.obj
 0001:0002f4b0       ??1_AFX_DB_STATE@@UAE@XZ   5f7304b0 f i dbcore.obj
 0001:0002f4d0       ?_GetBaseClass@CRecordView@@KGPAUCRuntimeClass@@XZ 5f7304d0 f   dbview.obj
 0001:0002f4da       ?GetRuntimeClass@CRecordView@@UBEPAUCRuntimeClass@@XZ 5f7304da f   dbview.obj
 0001:0002f4f0       ?_GetBaseClass@CLongBinary@@KGPAUCRuntimeClass@@XZ 5f7304f0 f   dblong.obj
 0001:0002f4fa       ?GetRuntimeClass@CLongBinary@@UBEPAUCRuntimeClass@@XZ 5f7304fa f   dblong.obj
 0001:0002f510       ?_GetBaseClass@COleDBRecordView@@KGPAUCRuntimeClass@@XZ 5f730510 f   viewoled.obj
 0001:0002f51a       ?GetRuntimeClass@COleDBRecordView@@UBEPAUCRuntimeClass@@XZ 5f73051a f   viewoled.obj
 0001:0002f530       ??C?$CComPtr@UIRowset@@@ATL@@QBEPAV?$_NoAddRefReleaseOnCComPtr@UIRowset@@@1@XZ 5f730530 f i viewoled.obj
 0001:0002f530       ??C?$CComPtr@UIRowsetChange@@@ATL@@QBEPAV?$_NoAddRefReleaseOnCComPtr@UIRowsetChange@@@1@XZ 5f730530 f i viewoled.obj
 0001:0002f580       ??B?$CComPtr@UIRowset@@@ATL@@QBEPAUIRowset@@XZ 5f730580 f i viewoled.obj
 0001:0002f580       ??B?$CComPtr@UIRowsetChange@@@ATL@@QBEPAUIRowsetChange@@XZ 5f730580 f i viewoled.obj
 0001:0002f820       ??_ECDatabase@@UAEPAXI@Z   5f730820 f i dlldb.obj
 0001:0002f890       ??_ECLongBinary@@UAEPAXI@Z 5f730890 f i dlldb.obj
 0001:0002f900       ??_ECDaoWorkspace@@UAEPAXI@Z 5f730900 f i dlldb.obj
 0001:0002f970       ??_ECDaoException@@UAEPAXI@Z 5f730970 f i dlldb.obj
 0001:0002f9e0       ??_ECDaoDatabase@@UAEPAXI@Z 5f7309e0 f i dlldb.obj
 0001:0002fa50       ??_FCDaoDatabase@@QAEXXZ   5f730a50 f i dlldb.obj
 0001:0002fa70       ??_ECDaoRecordset@@UAEPAXI@Z 5f730a70 f i dlldb.obj
 0001:0002fae0       ??_FCDaoRecordset@@QAEXXZ  5f730ae0 f i dlldb.obj
 0001:0002fb00       ??B?$CTypedSimpleList@PAUCRuntimeClass@@@@QAEPAUCRuntimeClass@@XZ 5f730b00 f i dlldb.obj
 0001:0002fb00       ??B?$CTypedSimpleList@PAVCOleObjectFactory@@@@QAEPAVCOleObjectFactory@@XZ 5f730b00 f i dlldb.obj
 0002:00000000       __imp__GetModuleHandleA@4  5f733000     kernel32:KERNEL32.dll
 0002:00000004       __imp__LocalFree@4         5f733004     kernel32:KERNEL32.dll
 0002:00000008       __imp__FreeLibrary@4       5f733008     kernel32:KERNEL32.dll
 0002:0000000c       __imp__LoadLibraryA@4      5f73300c     kernel32:KERNEL32.dll
 0002:00000010       __imp__lstrcmpW@8          5f733010     kernel32:KERNEL32.dll
 0002:00000014       __imp__LocalAlloc@8        5f733014     kernel32:KERNEL32.dll
 0002:00000018       __imp__lstrlenW@4          5f733018     kernel32:KERNEL32.dll
 0002:0000001c       __imp__WideCharToMultiByte@32 5f73301c     kernel32:KERNEL32.dll
 0002:00000020       __imp__lstrcpynW@12        5f733020     kernel32:KERNEL32.dll
 0002:00000024       __imp__lstrcpyW@8          5f733024     kernel32:KERNEL32.dll
 0002:00000028       __imp__GlobalUnlock@4      5f733028     kernel32:KERNEL32.dll
 0002:0000002c       __imp__lstrcmpA@8          5f73302c     kernel32:KERNEL32.dll
 0002:00000030       __imp__GlobalAlloc@8       5f733030     kernel32:KERNEL32.dll
 0002:00000034       __imp__GlobalReAlloc@12    5f733034     kernel32:KERNEL32.dll
 0002:00000038       __imp__GlobalLock@4        5f733038     kernel32:KERNEL32.dll
 0002:0000003c       __imp__lstrcpyA@8          5f73303c     kernel32:KERNEL32.dll
 0002:00000040       __imp__GlobalFree@4        5f733040     kernel32:KERNEL32.dll
 0002:00000044       __imp__lstrlenA@4          5f733044     kernel32:KERNEL32.dll
 0002:00000048       __imp__OutputDebugStringW@4 5f733048     kernel32:KERNEL32.dll
 0002:0000004c       __imp__GlobalSize@4        5f73304c     kernel32:KERNEL32.dll
 0002:00000050       __imp__OutputDebugStringA@4 5f733050     kernel32:KERNEL32.dll
 0002:00000054       __imp__GetTickCount@0      5f733054     kernel32:KERNEL32.dll
 0002:00000058       __imp__SetLastError@4      5f733058     kernel32:KERNEL32.dll
 0002:0000005c       __imp__InterlockedExchange@8 5f73305c     kernel32:KERNEL32.dll
 0002:00000060       __imp__RaiseException@16   5f733060     kernel32:KERNEL32.dll
 0002:00000064       __imp__GetProcAddress@8    5f733064     kernel32:KERNEL32.dll
 0002:00000068       __imp__GetLastError@0      5f733068     kernel32:KERNEL32.dll
 0002:0000006c       \177KERNEL32_NULL_THUNK_DATA 5f73306c     kernel32:KERNEL32.dll
 0002:00000070       __imp_??YCString@@QAEABV0@ABV0@@Z 5f733070     MFC42UD:MFC42uD.DLL
 0002:00000074       __imp_?Left@CString@@QBE?AV1@H@Z 5f733074     MFC42UD:MFC42uD.DLL
 0002:00000078       __imp_?Find@CString@@QBEHG@Z 5f733078     MFC42UD:MFC42uD.DLL
 0002:0000007c       __imp_??ACString@@QBEGH@Z  5f73307c     MFC42UD:MFC42uD.DLL
 0002:00000080       __imp_?GetLength@CString@@QBEHXZ 5f733080     MFC42UD:MFC42uD.DLL
 0002:00000084       __imp_?IsEmpty@CString@@QBEHXZ 5f733084     MFC42UD:MFC42uD.DLL
 0002:00000088       __imp_??YCString@@QAEABV0@PBG@Z 5f733088     MFC42UD:MFC42uD.DLL
 0002:0000008c       __imp_??BCString@@QBEPBGXZ 5f73308c     MFC42UD:MFC42uD.DLL
 0002:00000090       __imp_??4CString@@QAEABV0@PBE@Z 5f733090     MFC42UD:MFC42uD.DLL
 0002:00000094       __imp_?AfxAssertValidObject@@YGXPBVCObject@@PBDH@Z 5f733094     MFC42UD:MFC42uD.DLL
 0002:00000098       __imp_?AfxIsValidString@@YGHPBGH@Z 5f733098     MFC42UD:MFC42uD.DLL
 0002:0000009c       __imp_??0CString@@QAE@PBG@Z 5f73309c     MFC42UD:MFC42uD.DLL
 0002:000000a0       __imp_?Empty@CString@@QAEXXZ 5f7330a0     MFC42UD:MFC42uD.DLL
 0002:000000a4       __imp_??1CObject@@UAE@XZ   5f7330a4     MFC42UD:MFC42uD.DLL
 0002:000000a8       __imp_??0CPtrList@@QAE@H@Z 5f7330a8     MFC42UD:MFC42uD.DLL
 0002:000000ac       __imp_??0CObject@@IAE@XZ   5f7330ac     MFC42UD:MFC42uD.DLL
 0002:000000b0       __imp_??1CPtrList@@UAE@XZ  5f7330b0     MFC42UD:MFC42uD.DLL
 0002:000000b4       __imp_??4CString@@QAEABV0@PBG@Z 5f7330b4     MFC42UD:MFC42uD.DLL
 0002:000000b8       __imp_?IsKindOf@CObject@@QBEHPBUCRuntimeClass@@@Z 5f7330b8     MFC42UD:MFC42uD.DLL
 0002:000000bc       __imp_?classCException@CException@@2UCRuntimeClass@@B 5f7330bc     MFC42UD:MFC42uD.DLL
 0002:000000c0       __imp_?AfxUnlockGlobals@@YGXH@Z 5f7330c0     MFC42UD:MFC42uD.DLL
 0002:000000c4       __imp_?GetHead@CPtrList@@QAEAAPAXXZ 5f7330c4     MFC42UD:MFC42uD.DLL
 0002:000000c8       __imp_?IsEmpty@CPtrList@@QBEHXZ 5f7330c8     MFC42UD:MFC42uD.DLL
 0002:000000cc       __imp_?AfxLockGlobals@@YGXH@Z 5f7330cc     MFC42UD:MFC42uD.DLL
 0002:000000d0       __imp_?Delete@CException@@QAEXXZ 5f7330d0     MFC42UD:MFC42uD.DLL
 0002:000000d4       __imp_??0CString@@QAE@PBD@Z 5f7330d4     MFC42UD:MFC42uD.DLL
 0002:000000d8       __imp_?afxTraceFlags@@3IA  5f7330d8     MFC42UD:MFC42uD.DLL
 0002:000000dc       __imp_?AfxThrowMemoryException@@YGXXZ 5f7330dc     MFC42UD:MFC42uD.DLL
 0002:000000e0       __imp_?GetSafeOwner_@CWnd@@SGPAUHWND__@@PAU2@PAPAU2@@Z 5f7330e0     MFC42UD:MFC42uD.DLL
 0002:000000e4       __imp_??4CString@@QAEABV0@PBD@Z 5f7330e4     MFC42UD:MFC42uD.DLL
 0002:000000e8       __imp_?GetDepth@CDumpContext@@QBEHXZ 5f7330e8     MFC42UD:MFC42uD.DLL
 0002:000000ec       __imp_??6CDumpContext@@QAEAAV0@K@Z 5f7330ec     MFC42UD:MFC42uD.DLL
 0002:000000f0       __imp_??6CDumpContext@@QAEAAV0@H@Z 5f7330f0     MFC42UD:MFC42uD.DLL
 0002:000000f4       __imp_??6@YGAAVCDumpContext@@AAV0@ABVCString@@@Z 5f7330f4     MFC42UD:MFC42uD.DLL
 0002:000000f8       __imp_??6CDumpContext@@QAEAAV0@PBX@Z 5f7330f8     MFC42UD:MFC42uD.DLL
 0002:000000fc       __imp_??6CDumpContext@@QAEAAV0@PBD@Z 5f7330fc     MFC42UD:MFC42uD.DLL
 0002:00000100       __imp_??1CMapPtrToPtr@@UAE@XZ 5f733100     MFC42UD:MFC42uD.DLL
 0002:00000104       __imp_?AddHead@CPtrList@@QAEPAU__POSITION@@PAX@Z 5f733104     MFC42UD:MFC42uD.DLL
 0002:00000108       __imp_?AfxIsValidAddress@@YGHPBXIH@Z 5f733108     MFC42UD:MFC42uD.DLL
 0002:0000010c       __imp_??0CMapPtrToPtr@@QAE@H@Z 5f73310c     MFC42UD:MFC42uD.DLL
 0002:00000110       __imp_?RemoveAt@CPtrList@@QAEXPAU__POSITION@@@Z 5f733110     MFC42UD:MFC42uD.DLL
 0002:00000114       __imp_?Find@CPtrList@@QBEPAU__POSITION@@PAXPAU2@@Z 5f733114     MFC42UD:MFC42uD.DLL
 0002:00000118       __imp_?Find@CString@@QBEHPBG@Z 5f733118     MFC42UD:MFC42uD.DLL
 0002:0000011c       __imp_??2@YAPAXIPBDH@Z     5f73311c     MFC42UD:MFC42uD.DLL
 0002:00000120       __imp_??3@YAXPAXPBDH@Z     5f733120     MFC42UD:MFC42uD.DLL
 0002:00000124       __imp_?GetBuffer@CString@@QAEPAGH@Z 5f733124     MFC42UD:MFC42uD.DLL
 0002:00000128       __imp_?GetBufferSetLength@CString@@QAEPAGH@Z 5f733128     MFC42UD:MFC42uD.DLL
 0002:0000012c       __imp_??9@YG_NABVCString@@0@Z 5f73312c     MFC42UD:MFC42uD.DLL
 0002:00000130       __imp_??3CObject@@SGXPAXPBDH@Z 5f733130     MFC42UD:MFC42uD.DLL
 0002:00000134       __imp_?ReleaseBuffer@CString@@QAEXH@Z 5f733134     MFC42UD:MFC42uD.DLL
 0002:00000138       __imp_?MakeUpper@CString@@QAEXXZ 5f733138     MFC42UD:MFC42uD.DLL
 0002:0000013c       __imp_?SetAt@CString@@QAEXHG@Z 5f73313c     MFC42UD:MFC42uD.DLL
 0002:00000140       __imp_?Lookup@CMapPtrToPtr@@QBEHPAXAAPAX@Z 5f733140     MFC42UD:MFC42uD.DLL
 0002:00000144       __imp_??8@YG_NABVCString@@PBG@Z 5f733144     MFC42UD:MFC42uD.DLL
 0002:00000148       __imp_??6CDumpContext@@QAEAAV0@PBVCObject@@@Z 5f733148     MFC42UD:MFC42uD.DLL
 0002:0000014c       __imp_??6CDumpContext@@QAEAAV0@J@Z 5f73314c     MFC42UD:MFC42uD.DLL
 0002:00000150       __imp_??6CDumpContext@@QAEAAV0@I@Z 5f733150     MFC42UD:MFC42uD.DLL
 0002:00000154       __imp_?classCObject@CObject@@2UCRuntimeClass@@B 5f733154     MFC42UD:MFC42uD.DLL
 0002:00000158       __imp_??1CProcessLocalObject@@QAE@XZ 5f733158     MFC42UD:MFC42uD.DLL
 0002:0000015c       __imp_?GetData@CProcessLocalObject@@QAEPAVCNoTrackObject@@P6GPAV2@XZ@Z 5f73315c     MFC42UD:MFC42uD.DLL
 0002:00000160       __imp_??3CNoTrackObject@@SGXPAX@Z 5f733160     MFC42UD:MFC42uD.DLL
 0002:00000164       __imp_??2CNoTrackObject@@SGPAXI@Z 5f733164     MFC42UD:MFC42uD.DLL
 0002:00000168       __imp_?GetData@CByteArray@@QAEPAEXZ 5f733168     MFC42UD:MFC42uD.DLL
 0002:0000016c       __imp_??YCString@@QAEABV0@D@Z 5f73316c     MFC42UD:MFC42uD.DLL
 0002:00000170       __imp_?SetAt@CMapPtrToPtr@@QAEXPAX0@Z 5f733170     MFC42UD:MFC42uD.DLL
 0002:00000174       __imp_??6CDumpContext@@QAEAAV0@PBG@Z 5f733174     MFC42UD:MFC42uD.DLL
 0002:00000178       __imp_?LockBuffer@CString@@QAEPAGXZ 5f733178     MFC42UD:MFC42uD.DLL
 0002:0000017c       __imp_??6CDumpContext@@QAEAAV0@E@Z 5f73317c     MFC42UD:MFC42uD.DLL
 0002:00000180       __imp_??0CByteArray@@QAE@XZ 5f733180     MFC42UD:MFC42uD.DLL
 0002:00000184       __imp_?SetSize@CByteArray@@QAEXHH@Z 5f733184     MFC42UD:MFC42uD.DLL
 0002:00000188       __imp_??ACByteArray@@QAEAAEH@Z 5f733188     MFC42UD:MFC42uD.DLL
 0002:0000018c       __imp_?GetSize@CByteArray@@QBEHXZ 5f73318c     MFC42UD:MFC42uD.DLL
 0002:00000190       __imp_??6@YGAAVCDumpContext@@AAV0@VCTime@@@Z 5f733190     MFC42UD:MFC42uD.DLL
 0002:00000194       __imp_??0CTime@@QAE@XZ     5f733194     MFC42UD:MFC42uD.DLL
 0002:00000198       __imp_??9CTime@@QBEHV0@@Z  5f733198     MFC42UD:MFC42uD.DLL
 0002:0000019c       __imp_??0CTime@@QAE@ABV0@@Z 5f73319c     MFC42UD:MFC42uD.DLL
 0002:000001a0       __imp_??0CTime@@QAE@HHHHHHH@Z 5f7331a0     MFC42UD:MFC42uD.DLL
 0002:000001a4       __imp_??4CTime@@QAEABV0@ABV0@@Z 5f7331a4     MFC42UD:MFC42uD.DLL
 0002:000001a8       __imp_??0CTime@@QAE@J@Z    5f7331a8     MFC42UD:MFC42uD.DLL
 0002:000001ac       __imp_?GetSecond@CTime@@QBEHXZ 5f7331ac     MFC42UD:MFC42uD.DLL
 0002:000001b0       __imp_?GetMinute@CTime@@QBEHXZ 5f7331b0     MFC42UD:MFC42uD.DLL
 0002:000001b4       __imp_?GetHour@CTime@@QBEHXZ 5f7331b4     MFC42UD:MFC42uD.DLL
 0002:000001b8       __imp_?GetDay@CTime@@QBEHXZ 5f7331b8     MFC42UD:MFC42uD.DLL
 0002:000001bc       __imp_?GetMonth@CTime@@QBEHXZ 5f7331bc     MFC42UD:MFC42uD.DLL
 0002:000001c0       __imp_?GetYear@CTime@@QBEHXZ 5f7331c0     MFC42UD:MFC42uD.DLL
 0002:000001c4       __imp_??6CDumpContext@@QAEAAV0@G@Z 5f7331c4     MFC42UD:MFC42uD.DLL
 0002:000001c8       __imp_??8CTime@@QBEHV0@@Z  5f7331c8     MFC42UD:MFC42uD.DLL
 0002:000001cc       __imp_??8@YG_NABVCString@@0@Z 5f7331cc     MFC42UD:MFC42uD.DLL
 0002:000001d0       __imp_?Copy@CByteArray@@QAEXABV1@@Z 5f7331d0     MFC42UD:MFC42uD.DLL
 0002:000001d4       __imp_?messageMap@CFormView@@1UAFX_MSGMAP@@B 5f7331d4     MFC42UD:MFC42uD.DLL
 0002:000001d8       __imp_?OnEndPrintPreview@CView@@MAEXPAVCDC@@PAUCPrintInfo@@UtagPOINT@@PAVCPreviewView@@@Z 5f7331d8     MFC42UD:MFC42uD.DLL
 0002:000001dc       __imp_?OnEndPrinting@CView@@MAEXPAVCDC@@PAUCPrintInfo@@@Z 5f7331dc     MFC42UD:MFC42uD.DLL
 0002:000001e0       __imp_?OnPrint@CView@@MAEXPAVCDC@@PAUCPrintInfo@@@Z 5f7331e0     MFC42UD:MFC42uD.DLL
 0002:000001e4       __imp_?OnBeginPrinting@CView@@MAEXPAVCDC@@PAUCPrintInfo@@@Z 5f7331e4     MFC42UD:MFC42uD.DLL
 0002:000001e8       __imp_?OnPreparePrinting@CView@@MAEHPAUCPrintInfo@@@Z 5f7331e8     MFC42UD:MFC42uD.DLL
 0002:000001ec       __imp_?OnDraw@CFormView@@MAEXPAVCDC@@@Z 5f7331ec     MFC42UD:MFC42uD.DLL
 0002:000001f0       __imp_?OnUpdate@CView@@MAEXPAV1@JPAVCObject@@@Z 5f7331f0     MFC42UD:MFC42uD.DLL
 0002:000001f4       __imp_??H@YG?AVCString@@PBGABV0@@Z 5f7331f4     MFC42UD:MFC42uD.DLL
 0002:000001f8       __imp_?Right@CString@@QBE?AV1@H@Z 5f7331f8     MFC42UD:MFC42uD.DLL
 0002:000001fc       __imp_?OnPrepareDC@CScrollView@@UAEXPAVCDC@@PAUCPrintInfo@@@Z 5f7331fc     MFC42UD:MFC42uD.DLL
 0002:00000200       __imp_?OnDragScroll@CView@@UAEKKVCPoint@@@Z 5f733200     MFC42UD:MFC42uD.DLL
 0002:00000204       __imp_?OnDropEx@CView@@UAEKPAVCOleDataObject@@KKVCPoint@@@Z 5f733204     MFC42UD:MFC42uD.DLL
 0002:00000208       __imp_?OnDrop@CView@@UAEHPAVCOleDataObject@@KVCPoint@@@Z 5f733208     MFC42UD:MFC42uD.DLL
 0002:0000020c       __imp_?OnDragLeave@CView@@UAEXXZ 5f73320c     MFC42UD:MFC42uD.DLL
 0002:00000210       __imp_?OnDragOver@CView@@UAEKPAVCOleDataObject@@KVCPoint@@@Z 5f733210     MFC42UD:MFC42uD.DLL
 0002:00000214       __imp_?OnDragEnter@CView@@UAEKPAVCOleDataObject@@KVCPoint@@@Z 5f733214     MFC42UD:MFC42uD.DLL
 0002:00000218       __imp_?OnScrollBy@CScrollView@@UAEHVCSize@@H@Z 5f733218     MFC42UD:MFC42uD.DLL
 0002:0000021c       __imp_?OnScroll@CScrollView@@UAEHIIH@Z 5f73321c     MFC42UD:MFC42uD.DLL
 0002:00000220       __imp_?IsSelected@CView@@UBEHPBVCObject@@@Z 5f733220     MFC42UD:MFC42uD.DLL
 0002:00000224       __imp_?SetOccDialogInfo@CFormView@@MAEHPAU_AFX_OCC_DIALOG_INFO@@@Z 5f733224     MFC42UD:MFC42uD.DLL
 0002:00000228       __imp_?IsFrameWnd@CWnd@@UBEHXZ 5f733228     MFC42UD:MFC42uD.DLL
 0002:0000022c       __imp_?CheckAutoCenter@CWnd@@UAEHXZ 5f73322c     MFC42UD:MFC42uD.DLL
 0002:00000230       __imp_?OnChildNotify@CWnd@@MAEHIIJPAJ@Z 5f733230     MFC42UD:MFC42uD.DLL
 0002:00000234       __imp_?PostNcDestroy@CView@@MAEXXZ 5f733234     MFC42UD:MFC42uD.DLL
 0002:00000238       __imp_?DefWindowProcW@CWnd@@MAEJIIJ@Z 5f733238     MFC42UD:MFC42uD.DLL
 0002:0000023c       __imp_?OnWndMsg@CWnd@@MAEHIIJPAJ@Z 5f73323c     MFC42UD:MFC42uD.DLL
 0002:00000240       __imp_?WindowProc@CWnd@@MAEJIIJ@Z 5f733240     MFC42UD:MFC42uD.DLL
 0002:00000244       __imp_?OnAmbientProperty@CWnd@@UAEHPAVCOleControlSite@@JPAUtagVARIANT@@@Z 5f733244     MFC42UD:MFC42uD.DLL
 0002:00000248       __imp_?PreTranslateMessage@CFormView@@MAEHPAUtagMSG@@@Z 5f733248     MFC42UD:MFC42uD.DLL
 0002:0000024c       __imp_?EndModalState@CWnd@@UAEXXZ 5f73324c     MFC42UD:MFC42uD.DLL
 0002:00000250       __imp_?BeginModalState@CWnd@@UAEXXZ 5f733250     MFC42UD:MFC42uD.DLL
 0002:00000254       __imp_?DoDataExchange@CWnd@@MAEXPAVCDataExchange@@@Z 5f733254     MFC42UD:MFC42uD.DLL
 0002:00000258       __imp_?GetSuperWndProcAddr@CWnd@@MAEPAP6GJPAUHWND__@@IIJ@ZXZ 5f733258     MFC42UD:MFC42uD.DLL
 0002:0000025c       __imp_?OnNotify@CWnd@@MAEHIJPAJ@Z 5f73325c     MFC42UD:MFC42uD.DLL
 0002:00000260       __imp_?OnCommand@CWnd@@MAEHIJ@Z 5f733260     MFC42UD:MFC42uD.DLL
 0002:00000264       __imp_?EndModalLoop@CWnd@@UAEXH@Z 5f733264     MFC42UD:MFC42uD.DLL
 0002:00000268       __imp_?ContinueModal@CWnd@@UAEHXZ 5f733268     MFC42UD:MFC42uD.DLL
 0002:0000026c       __imp_?WinHelpW@CWnd@@UAEXKI@Z 5f73326c     MFC42UD:MFC42uD.DLL
 0002:00000270       __imp_?GetScrollBarCtrl@CView@@UBEPAVCScrollBar@@H@Z 5f733270     MFC42UD:MFC42uD.DLL
 0002:00000274       __imp_?OnToolHitTest@CWnd@@UBEHVCPoint@@PAUtagTOOLINFOW@@@Z 5f733274     MFC42UD:MFC42uD.DLL
 0002:00000278       __imp_?CalcWindowRect@CScrollView@@UAEXPAUtagRECT@@I@Z 5f733278     MFC42UD:MFC42uD.DLL
 0002:0000027c       __imp_?PreCreateWindow@CView@@MAEHAAUtagCREATESTRUCTW@@@Z 5f73327c     MFC42UD:MFC42uD.DLL
 0002:00000280       __imp_?DestroyWindow@CWnd@@UAEHXZ 5f733280     MFC42UD:MFC42uD.DLL
 0002:00000284       __imp_?Create@CFormView@@MAEHPBG0KABUtagRECT@@PAVCWnd@@IPAUCCreateContext@@@Z 5f733284     MFC42UD:MFC42uD.DLL
 0002:00000288       __imp_?PreSubclassWindow@CWnd@@UAEXXZ 5f733288     MFC42UD:MFC42uD.DLL
 0002:0000028c       __imp_?GetConnectionHook@CCmdTarget@@MAEPAUIConnectionPoint@@ABU_GUID@@@Z 5f73328c     MFC42UD:MFC42uD.DLL
 0002:00000290       __imp_?GetExtraConnectionPoints@CCmdTarget@@MAEHPAVCPtrArray@@@Z 5f733290     MFC42UD:MFC42uD.DLL
 0002:00000294       __imp_?GetInterfaceHook@CCmdTarget@@UAEPAUIUnknown@@PBX@Z 5f733294     MFC42UD:MFC42uD.DLL
 0002:00000298       __imp_?OnCreateAggregates@CCmdTarget@@UAEHXZ 5f733298     MFC42UD:MFC42uD.DLL
 0002:0000029c       __imp_?AfxGetModuleState@@YGPAVAFX_MODULE_STATE@@XZ 5f73329c     MFC42UD:MFC42uD.DLL
 0002:000002a0       __imp_?GetInterfaceMap@CCmdTarget@@MBEPBUAFX_INTERFACEMAP@@XZ 5f7332a0     MFC42UD:MFC42uD.DLL
 0002:000002a4       __imp_?GetConnectionMap@CCmdTarget@@MBEPBUAFX_CONNECTIONMAP@@XZ 5f7332a4     MFC42UD:MFC42uD.DLL
 0002:000002a8       __imp_?GetDispatchMap@CCmdTarget@@MBEPBUAFX_DISPMAP@@XZ 5f7332a8     MFC42UD:MFC42uD.DLL
 0002:000002ac       __imp_?GetCommandMap@CCmdTarget@@MBEPBUAFX_OLECMDMAP@@XZ 5f7332ac     MFC42UD:MFC42uD.DLL
 0002:000002b0       __imp_?GetTypeLib@CCmdTarget@@UAEJKPAPAUITypeLib@@@Z 5f7332b0     MFC42UD:MFC42uD.DLL
 0002:000002b4       __imp_?GetTypeLibCache@CCmdTarget@@UAEPAVCTypeLibCache@@XZ 5f7332b4     MFC42UD:MFC42uD.DLL
 0002:000002b8       __imp_?GetTypeInfoCount@CCmdTarget@@UAEIXZ 5f7332b8     MFC42UD:MFC42uD.DLL
 0002:000002bc       __imp_?GetDispatchIID@CCmdTarget@@UAEHPAU_GUID@@@Z 5f7332bc     MFC42UD:MFC42uD.DLL
 0002:000002c0       __imp_?IsInvokeAllowed@CCmdTarget@@UAEHJ@Z 5f7332c0     MFC42UD:MFC42uD.DLL
 0002:000002c4       __imp_?OnFinalRelease@CWnd@@UAEXXZ 5f7332c4     MFC42UD:MFC42uD.DLL
 0002:000002c8       __imp_?OnCmdMsg@CView@@UAEHIHPAXPAUAFX_CMDHANDLERINFO@@@Z 5f7332c8     MFC42UD:MFC42uD.DLL
 0002:000002cc       __imp_??0CFormView@@IAE@PBG@Z 5f7332cc     MFC42UD:MFC42uD.DLL
 0002:000002d0       __imp_??0CFormView@@IAE@I@Z 5f7332d0     MFC42UD:MFC42uD.DLL
 0002:000002d4       __imp_??1CScrollView@@UAE@XZ 5f7332d4     MFC42UD:MFC42uD.DLL
 0002:000002d8       __imp_?OnInitialUpdate@CFormView@@UAEXXZ 5f7332d8     MFC42UD:MFC42uD.DLL
 0002:000002dc       __imp_??1CWaitCursor@@QAE@XZ 5f7332dc     MFC42UD:MFC42uD.DLL
 0002:000002e0       __imp_??0CWaitCursor@@QAE@XZ 5f7332e0     MFC42UD:MFC42uD.DLL
 0002:000002e4       __imp_?UpdateData@CWnd@@QAEHH@Z 5f7332e4     MFC42UD:MFC42uD.DLL
 0002:000002e8       __imp_?AfxSetWindowText@@YGXPAUHWND__@@PBG@Z 5f7332e8     MFC42UD:MFC42uD.DLL
 0002:000002ec       __imp_?PrepareEditCtrl@CDataExchange@@QAEPAUHWND__@@H@Z 5f7332ec     MFC42UD:MFC42uD.DLL
 0002:000002f0       __imp_?DDX_Text@@YGXPAVCDataExchange@@HAAH@Z 5f7332f0     MFC42UD:MFC42uD.DLL
 0002:000002f4       __imp_?DDX_Text@@YGXPAVCDataExchange@@HAAE@Z 5f7332f4     MFC42UD:MFC42uD.DLL
 0002:000002f8       __imp_?DDX_Text@@YGXPAVCDataExchange@@HAAI@Z 5f7332f8     MFC42UD:MFC42uD.DLL
 0002:000002fc       __imp_?DDX_Text@@YGXPAVCDataExchange@@HAAJ@Z 5f7332fc     MFC42UD:MFC42uD.DLL
 0002:00000300       __imp_?DDX_Text@@YGXPAVCDataExchange@@HAAK@Z 5f733300     MFC42UD:MFC42uD.DLL
 0002:00000304       __imp_?AfxFailMaxChars@@YGXPAVCDataExchange@@H@Z 5f733304     MFC42UD:MFC42uD.DLL
 0002:00000308       __imp_?GetAllocLength@CString@@QBEHXZ 5f733308     MFC42UD:MFC42uD.DLL
 0002:0000030c       __imp_?PrepareCtrl@CDataExchange@@QAEPAUHWND__@@H@Z 5f73330c     MFC42UD:MFC42uD.DLL
 0002:00000310       __imp_?DDX_LBIndex@@YGXPAVCDataExchange@@HAAH@Z 5f733310     MFC42UD:MFC42uD.DLL
 0002:00000314       __imp_?DDX_CBIndex@@YGXPAVCDataExchange@@HAAH@Z 5f733314     MFC42UD:MFC42uD.DLL
 0002:00000318       __imp_?DDX_Scroll@@YGXPAVCDataExchange@@HAAH@Z 5f733318     MFC42UD:MFC42uD.DLL
 0002:0000031c       __imp_?AfxFailRadio@@YGXPAVCDataExchange@@@Z 5f73331c     MFC42UD:MFC42uD.DLL
 0002:00000320       __imp_?DDX_Radio@@YGXPAVCDataExchange@@HAAH@Z 5f733320     MFC42UD:MFC42uD.DLL
 0002:00000324       __imp_?AssertValid@CFormView@@UBEXXZ 5f733324     MFC42UD:MFC42uD.DLL
 0002:00000328       __imp_?Dump@CFormView@@UBEXAAVCDumpContext@@@Z 5f733328     MFC42UD:MFC42uD.DLL
 0002:0000032c       __imp_?OnMove@CWnd@@IAEXHH@Z 5f73332c     MFC42UD:MFC42uD.DLL
 0002:00000330       __imp_?classCFormView@CFormView@@2UCRuntimeClass@@B 5f733330     MFC42UD:MFC42uD.DLL
 0002:00000334       __imp_??6CDumpContext@@QAEAAV0@M@Z 5f733334     MFC42UD:MFC42uD.DLL
 0002:00000338       __imp_??6CDumpContext@@QAEAAV0@N@Z 5f733338     MFC42UD:MFC42uD.DLL
 0002:0000033c       __imp_?AfxTextFloatFormat@@YGXPAVCDataExchange@@HPAXNH@Z 5f73333c     MFC42UD:MFC42uD.DLL
 0002:00000340       __imp_?IsEmpty@CMapPtrToPtr@@QBEHXZ 5f733340     MFC42UD:MFC42uD.DLL
 0002:00000344       __imp_?RemoveKey@CMapPtrToPtr@@QAEHPAX@Z 5f733344     MFC42UD:MFC42uD.DLL
 0002:00000348       __imp_?RemoveAll@CMapPtrToPtr@@QAEXXZ 5f733348     MFC42UD:MFC42uD.DLL
 0002:0000034c       __imp_?GetNextAssoc@CMapPtrToPtr@@QBEXAAPAU__POSITION@@AAPAX1@Z 5f73334c     MFC42UD:MFC42uD.DLL
 0002:00000350       __imp_?GetStartPosition@CMapPtrToPtr@@QBEPAU__POSITION@@XZ 5f733350     MFC42UD:MFC42uD.DLL
 0002:00000354       __imp_??0CString@@QAE@ABV0@@Z 5f733354     MFC42UD:MFC42uD.DLL
 0002:00000358       __imp_??3CNoTrackObject@@SGXPAXPBDH@Z 5f733358     MFC42UD:MFC42uD.DLL
 0002:0000035c       __imp_??2CNoTrackObject@@SGPAXIPBDH@Z 5f73335c     MFC42UD:MFC42uD.DLL
 0002:00000360       __imp_?AfxGetApp@@YGPAVCWinApp@@XZ 5f733360     MFC42UD:MFC42uD.DLL
 0002:00000364       __imp_??6CDumpContext@@QAEAAV0@ABVCObject@@@Z 5f733364     MFC42UD:MFC42uD.DLL
 0002:00000368       __imp_?DDX_Text@@YGXPAVCDataExchange@@HAAF@Z 5f733368     MFC42UD:MFC42uD.DLL
 0002:0000036c       __imp_?DDX_Text@@YGXPAVCDataExchange@@HAAM@Z 5f73336c     MFC42UD:MFC42uD.DLL
 0002:00000370       __imp_?DDX_Text@@YGXPAVCDataExchange@@HAAN@Z 5f733370     MFC42UD:MFC42uD.DLL
 0002:00000374       __imp_?DDX_Text@@YGXPAVCDataExchange@@HAAVCString@@@Z 5f733374     MFC42UD:MFC42uD.DLL
 0002:00000378       __imp_?DDX_Text@@YGXPAVCDataExchange@@HPAGH@Z 5f733378     MFC42UD:MFC42uD.DLL
 0002:0000037c       __imp_?DDX_Slider@@YGXPAVCDataExchange@@HAAH@Z 5f73337c     MFC42UD:MFC42uD.DLL
 0002:00000380       __imp_??4CString@@QAEABV0@ABV0@@Z 5f733380     MFC42UD:MFC42uD.DLL
 0002:00000384       __imp_??0CString@@QAE@XZ   5f733384     MFC42UD:MFC42uD.DLL
 0002:00000388       __imp_??H@YG?AVCString@@ABV0@PBG@Z 5f733388     MFC42UD:MFC42uD.DLL
 0002:0000038c       __imp_??0CException@@QAE@XZ 5f73338c     MFC42UD:MFC42uD.DLL
 0002:00000390       __imp_?Serialize@CObject@@UAEXAAVCArchive@@@Z 5f733390     MFC42UD:MFC42uD.DLL
 0002:00000394       __imp_??1CException@@UAE@XZ 5f733394     MFC42UD:MFC42uD.DLL
 0002:00000398       __imp_??1CString@@QAE@XZ   5f733398     MFC42UD:MFC42uD.DLL
 0002:0000039c       __imp_?ReportError@CException@@UAEHII@Z 5f73339c     MFC42UD:MFC42uD.DLL
 0002:000003a0       __imp_?AssertValid@CObject@@UBEXXZ 5f7333a0     MFC42UD:MFC42uD.DLL
 0002:000003a4       __imp_?Dump@CObject@@UBEXAAVCDumpContext@@@Z 5f7333a4     MFC42UD:MFC42uD.DLL
 0002:000003a8       __imp_?AfxTrace@@YAXPBGZZ  5f7333a8     MFC42UD:MFC42uD.DLL
 0002:000003ac       __imp_??2CObject@@SGPAXIPBDH@Z 5f7333ac     MFC42UD:MFC42uD.DLL
 0002:000003b0       __imp_?LoadStringW@CString@@QAEHI@Z 5f7333b0     MFC42UD:MFC42uD.DLL
 0002:000003b4       __imp_??2@YAPAXI@Z         5f7333b4     MFC42UD:MFC42uD.DLL
 0002:000003b8       __imp_??3CException@@SGXPAXPBDH@Z 5f7333b8     MFC42UD:MFC42uD.DLL
 0002:000003bc       __imp_??3CException@@SGXPAX@Z 5f7333bc     MFC42UD:MFC42uD.DLL
 0002:000003c0       __imp_??3CObject@@SGXPAX@Z 5f7333c0     MFC42UD:MFC42uD.DLL
 0002:000003c4       __imp_??3@YAXPAX@Z         5f7333c4     MFC42UD:MFC42uD.DLL
 0002:000003c8       __imp_?AfxGetAppModuleState@@YGPAVAFX_MODULE_STATE@@XZ 5f7333c8     MFC42UD:MFC42uD.DLL
 0002:000003cc       __imp_??2CObject@@SGPAXI@Z 5f7333cc     MFC42UD:MFC42uD.DLL
 0002:000003d0       __imp_?AfxInitExtensionModule@@YGHAAUAFX_EXTENSION_MODULE@@PAUHINSTANCE__@@@Z 5f7333d0     MFC42UD:MFC42uD.DLL
 0002:000003d4       __imp_?AfxAssertFailedLine@@YGHPBDH@Z 5f7333d4     MFC42UD:MFC42uD.DLL
 0002:000003d8       __imp_?AfxTermThread@@YGXPAUHINSTANCE__@@@Z 5f7333d8     MFC42UD:MFC42uD.DLL
 0002:000003dc       __imp_??0CDynLinkLibrary@@QAE@AAUAFX_EXTENSION_MODULE@@H@Z 5f7333dc     MFC42UD:MFC42uD.DLL
 0002:000003e0       __imp_?AfxTermExtensionModule@@YGXAAUAFX_EXTENSION_MODULE@@H@Z 5f7333e0     MFC42UD:MFC42uD.DLL
 0002:000003e4       __imp_?OnActivateFrame@CFormView@@MAEXIPAVCFrameWnd@@@Z 5f7333e4     MFC42UD:MFC42uD.DLL
 0002:000003e8       __imp_?OnActivateView@CFormView@@MAEXHPAVCView@@0@Z 5f7333e8     MFC42UD:MFC42uD.DLL
 0002:000003ec       __imp_?GetEventSinkMap@CCmdTarget@@MBEPBUAFX_EVENTSINKMAP@@XZ 5f7333ec     MFC42UD:MFC42uD.DLL
 0002:000003f0       \177MFC42uD_NULL_THUNK_DATA 5f7333f0     MFC42UD:MFC42uD.DLL
 0002:000003f4       __imp_?GetSecond@COleDateTime@@QBEHXZ 5f7333f4     MFCO42UD:MFCO42uD.DLL
 0002:000003f8       __imp_?SetStatus@COleCurrency@@QAEXW4CurrencyStatus@1@@Z 5f7333f8     MFCO42UD:MFCO42uD.DLL
 0002:000003fc       __imp_?GetStatus@COleCurrency@@QBE?AW4CurrencyStatus@1@XZ 5f7333fc     MFCO42UD:MFCO42uD.DLL
 0002:00000400       __imp_??0COleCurrency@@QAE@XZ 5f733400     MFCO42UD:MFCO42uD.DLL
 0002:00000404       __imp_??4COleCurrency@@QAEABV0@ABV0@@Z 5f733404     MFCO42UD:MFCO42uD.DLL
 0002:00000408       __imp_??9COleDateTime@@QBEHABV0@@Z 5f733408     MFCO42UD:MFCO42uD.DLL
 0002:0000040c       __imp_??9COleCurrency@@QBEHABV0@@Z 5f73340c     MFCO42UD:MFCO42uD.DLL
 0002:00000410       __imp_??4COleVariant@@QAEABV0@ABVCOleDateTime@@@Z 5f733410     MFCO42UD:MFCO42uD.DLL
 0002:00000414       __imp_??4COleVariant@@QAEABV0@N@Z 5f733414     MFCO42UD:MFCO42uD.DLL
 0002:00000418       __imp_??4COleVariant@@QAEABV0@M@Z 5f733418     MFCO42UD:MFCO42uD.DLL
 0002:0000041c       __imp_??4COleVariant@@QAEABV0@ABVCOleCurrency@@@Z 5f73341c     MFCO42UD:MFCO42uD.DLL
 0002:00000420       __imp_??4COleVariant@@QAEABV0@F@Z 5f733420     MFCO42UD:MFCO42uD.DLL
 0002:00000424       __imp_??4COleVariant@@QAEABV0@E@Z 5f733424     MFCO42UD:MFCO42uD.DLL
 0002:00000428       __imp_??4COleVariant@@QAEABV0@ABVCLongBinary@@@Z 5f733428     MFCO42UD:MFCO42uD.DLL
 0002:0000042c       __imp_??4COleVariant@@QAEABV0@ABVCByteArray@@@Z 5f73342c     MFCO42UD:MFCO42uD.DLL
 0002:00000430       __imp_??6@YGAAVCDumpContext@@AAV0@VCOleCurrency@@@Z 5f733430     MFCO42UD:MFCO42uD.DLL
 0002:00000434       __imp_??0COleCurrency@@QAE@ABV0@@Z 5f733434     MFCO42UD:MFCO42uD.DLL
 0002:00000438       __imp_??4COleVariant@@QAEABV0@ABV0@@Z 5f733438     MFCO42UD:MFCO42uD.DLL
 0002:0000043c       __imp_??8COleVariant@@QBEHABUtagVARIANT@@@Z 5f73343c     MFCO42UD:MFCO42uD.DLL
 0002:00000440       __imp_?DDX_Text@@YGXPAVCDataExchange@@HAAVCOleCurrency@@@Z 5f733440     MFCO42UD:MFCO42uD.DLL
 0002:00000444       __imp_?DDX_Text@@YGXPAVCDataExchange@@HAAVCOleDateTime@@@Z 5f733444     MFCO42UD:MFCO42uD.DLL
 0002:00000448       __imp_??0COleDateTime@@QAE@N@Z 5f733448     MFCO42UD:MFCO42uD.DLL
 0002:0000044c       __imp_??0COleVariant@@QAE@FG@Z 5f73344c     MFCO42UD:MFCO42uD.DLL
 0002:00000450       __imp_?SetStatus@COleDateTime@@QAEXW4DateTimeStatus@1@@Z 5f733450     MFCO42UD:MFCO42uD.DLL
 0002:00000454       __imp_??0COleDateTime@@QAE@HHHHHH@Z 5f733454     MFCO42UD:MFCO42uD.DLL
 0002:00000458       __imp_??4COleDateTime@@QAEABV0@ABV0@@Z 5f733458     MFCO42UD:MFCO42uD.DLL
 0002:0000045c       __imp_?GetStatus@COleDateTime@@QBE?AW4DateTimeStatus@1@XZ 5f73345c     MFCO42UD:MFCO42uD.DLL
 0002:00000460       __imp_?Format@COleDateTime@@QBE?AVCString@@KK@Z 5f733460     MFCO42UD:MFCO42uD.DLL
 0002:00000464       __imp_?GetMinute@COleDateTime@@QBEHXZ 5f733464     MFCO42UD:MFCO42uD.DLL
 0002:00000468       __imp_?GetHour@COleDateTime@@QBEHXZ 5f733468     MFCO42UD:MFCO42uD.DLL
 0002:0000046c       __imp_?GetDay@COleDateTime@@QBEHXZ 5f73346c     MFCO42UD:MFCO42uD.DLL
 0002:00000470       __imp_?GetMonth@COleDateTime@@QBEHXZ 5f733470     MFCO42UD:MFCO42uD.DLL
 0002:00000474       __imp_?GetYear@COleDateTime@@QBEHXZ 5f733474     MFCO42UD:MFCO42uD.DLL
 0002:00000478       __imp_??8COleDateTime@@QBEHABV0@@Z 5f733478     MFCO42UD:MFCO42uD.DLL
 0002:0000047c       __imp_??0COleDateTime@@QAE@XZ 5f73347c     MFCO42UD:MFCO42uD.DLL
 0002:00000480       __imp_??BCOleVariant@@QAEPAUtagVARIANT@@XZ 5f733480     MFCO42UD:MFCO42uD.DLL
 0002:00000484       __imp_??1COleVariant@@QAE@XZ 5f733484     MFCO42UD:MFCO42uD.DLL
 0002:00000488       __imp_??6@YGAAVCDumpContext@@AAV0@VCOleVariant@@@Z 5f733488     MFCO42UD:MFCO42uD.DLL
 0002:0000048c       __imp_??0COleDateTime@@QAE@ABV0@@Z 5f73348c     MFCO42UD:MFCO42uD.DLL
 0002:00000490       __imp_??0COleVariant@@QAE@JG@Z 5f733490     MFCO42UD:MFCO42uD.DLL
 0002:00000494       __imp_??4COleVariant@@QAEABV0@QBG@Z 5f733494     MFCO42UD:MFCO42uD.DLL
 0002:00000498       __imp_??0COleVariant@@QAE@ABV0@@Z 5f733498     MFCO42UD:MFCO42uD.DLL
 0002:0000049c       __imp_??0COleVariant@@QAE@ABUtagVARIANT@@@Z 5f73349c     MFCO42UD:MFCO42uD.DLL
 0002:000004a0       __imp_??6@YGAAVCDumpContext@@AAV0@VCOleDateTime@@@Z 5f7334a0     MFCO42UD:MFCO42uD.DLL
 0002:000004a4       __imp_?Clear@COleVariant@@QAEXXZ 5f7334a4     MFCO42UD:MFCO42uD.DLL
 0002:000004a8       __imp_??0COleVariant@@QAE@PBGG@Z 5f7334a8     MFCO42UD:MFCO42uD.DLL
 0002:000004ac       __imp_??4COleDateTime@@QAEABV0@ABUtagVARIANT@@@Z 5f7334ac     MFCO42UD:MFCO42uD.DLL
 0002:000004b0       __imp_??4COleVariant@@QAEABV0@J@Z 5f7334b0     MFCO42UD:MFCO42uD.DLL
 0002:000004b4       __imp_??0COleVariant@@QAE@XZ 5f7334b4     MFCO42UD:MFCO42uD.DLL
 0002:000004b8       \177MFCO42uD_NULL_THUNK_DATA 5f7334b8     MFCO42UD:MFCO42uD.DLL
 0002:000004bc       __imp___adjust_fdiv        5f7334bc     msvcrtd:MSVCRTD.dll
 0002:000004c0       __imp___onexit             5f7334c0     msvcrtd:MSVCRTD.dll
 0002:000004c4       __imp___initterm           5f7334c4     msvcrtd:MSVCRTD.dll
 0002:000004c8       __imp___free_dbg           5f7334c8     msvcrtd:MSVCRTD.dll
 0002:000004cc       __imp___except_handler3    5f7334cc     msvcrtd:MSVCRTD.dll
 0002:000004d0       __imp____dllonexit         5f7334d0     msvcrtd:MSVCRTD.dll
 0002:000004d4       __imp_??1type_info@@UAE@XZ 5f7334d4     msvcrtd:MSVCRTD.dll
 0002:000004d8       __imp___vsnwprintf         5f7334d8     msvcrtd:MSVCRTD.dll
 0002:000004dc       __imp___purecall           5f7334dc     msvcrtd:MSVCRTD.dll
 0002:000004e0       __imp__memcmp              5f7334e0     msvcrtd:MSVCRTD.dll
 0002:000004e4       __imp__labs                5f7334e4     msvcrtd:MSVCRTD.dll
 0002:000004e8       __imp__abs                 5f7334e8     msvcrtd:MSVCRTD.dll
 0002:000004ec       __imp__wcsstr              5f7334ec     msvcrtd:MSVCRTD.dll
 0002:000004f0       __imp__memcpy              5f7334f0     msvcrtd:MSVCRTD.dll
 0002:000004f4       __imp__memset              5f7334f4     msvcrtd:MSVCRTD.dll
 0002:000004f8       __imp___CrtDbgReport       5f7334f8     msvcrtd:MSVCRTD.dll
 0002:000004fc       __imp___wcsnicmp           5f7334fc     msvcrtd:MSVCRTD.dll
 0002:00000500       __imp___CxxThrowException@8 5f733500     msvcrtd:MSVCRTD.dll
 0002:00000504       __imp____CxxFrameHandler   5f733504     msvcrtd:MSVCRTD.dll
 0002:00000508       __imp_?terminate@@YAXXZ    5f733508     msvcrtd:MSVCRTD.dll
 0002:0000050c       __imp___malloc_dbg         5f73350c     msvcrtd:MSVCRTD.dll
 0002:00000510       __imp__strcmp              5f733510     msvcrtd:MSVCRTD.dll
 0002:00000514       __imp__strcpy              5f733514     msvcrtd:MSVCRTD.dll
 0002:00000518       \177MSVCRTD_NULL_THUNK_DATA 5f733518     msvcrtd:MSVCRTD.dll
 0002:0000051c       __imp__GetWindowTextLengthW@4 5f73351c     user32:USER32.dll
 0002:00000520       __imp__GetWindowLongW@8    5f733520     user32:USER32.dll
 0002:00000524       __imp__SendMessageW@16     5f733524     user32:USER32.dll
 0002:00000528       __imp__GetWindowTextW@12   5f733528     user32:USER32.dll
 0002:0000052c       __imp__GetDesktopWindow@0  5f73352c     user32:USER32.dll
 0002:00000530       __imp__EnableWindow@8      5f733530     user32:USER32.dll
 0002:00000534       __imp__wsprintfW           5f733534     user32:USER32.dll
 0002:00000538       \177USER32_NULL_THUNK_DATA 5f733538     user32:USER32.dll
 0002:00000560       _IID_IDocHostUIHandlerDispatch 5f733560     dlldb.obj
 0002:00000570       _IID_IInternalConnection   5f733570     dlldb.obj
 0002:00000580       _IID_IAxWinAmbientDispatch 5f733580     dlldb.obj
 0002:00000590       _IID_IAxWinHostWindow      5f733590     dlldb.obj
 0002:000005a0       _IID_IRegistrar            5f7335a0     dlldb.obj
 0002:000005b0       _CLSID_Registrar           5f7335b0     dlldb.obj
 0002:000005c0       _LIBID_ATLLib              5f7335c0     dlldb.obj
 0002:000005d0       ??_C@_0N@IJBO@MFCO42UD?4DLL?$AA@ 5f7335d0     dlldb.obj
 0002:000005e0       ??_C@_0M@IGON@MFC42UD?4DLL?$AA@ 5f7335e0     dlldb.obj
 0002:000005f0       ?classCRecordset@CRecordset@@2UCRuntimeClass@@B 5f7335f0     dbcore.obj
 0002:00000608       ??_C@_0L@FKJL@CRecordset?$AA@ 5f733608     dbcore.obj
 0002:00000618       ?classCDatabase@CDatabase@@2UCRuntimeClass@@B 5f733618     dbcore.obj
 0002:00000630       ??_C@_09CDJB@CDatabase?$AA@ 5f733630     dbcore.obj
 0002:00000640       ?classCDBException@CDBException@@2UCRuntimeClass@@B 5f733640     dbcore.obj
 0002:00000658       ??_C@_0N@GGEG@CDBException?$AA@ 5f733658     dbcore.obj
 0002:00000668       ?_afxODBCDLL@@3QBDB        5f733668     dbcore.obj
 0002:00000674       ?_afxDriverNotCapable@@3QBGB 5f733674     dbcore.obj
 0002:0000068c       ?_afxOutOfSequence@@3QBGB  5f73368c     dbcore.obj
 0002:000006a4       ?_afxInfoRange@@3QBGB      5f7336a4     dbcore.obj
 0002:000006bc       ?_afxDataTruncated@@3QBGB  5f7336bc     dbcore.obj
 0002:000006d4       ?_afxRowFetch@@3QBGB       5f7336d4     dbcore.obj
 0002:000006ec       ?_afxForUpdate@@3QBGB      5f7336ec     dbcore.obj
 0002:00000708       ?_afxOrderBy@@3QBGB        5f733708     dbcore.obj
 0002:00000720       ?_afxWhere@@3QBGB          5f733720     dbcore.obj
 0002:00000730       ?_afxFrom@@3QBGB           5f733730     dbcore.obj
 0002:00000740       ?_afxSelect@@3QBGB         5f733740     dbcore.obj
 0002:00000750       ?_afxParamCall@@3QBGB      5f733750     dbcore.obj
 0002:00000758       ?_afxCall@@3QBGB           5f733758     dbcore.obj
 0002:00000768       ?_afxLiteralSeparator@@3GB 5f733768     dbcore.obj
 0002:0000076c       ?_afxComma@@3QBGB          5f73376c     dbcore.obj
 0002:00000770       ?_afxODBCTrail@@3QBGB      5f733770     dbcore.obj
 0002:0000077c       ??_C@_17JNCL@?$AA?$CF?$AAs?$AA?6?$AA?$AA@ 5f73377c     dbcore.obj
 0002:00000788       ??_7CDBException@@6B@      5f733788     dbcore.obj
 0002:000007a8       ??_C@_1O@JCG@?$AAS?$AAt?$AAa?$AAt?$AAe?$AA?3?$AA?$AA@ 5f7337a8     dbcore.obj
 0002:000007b8       ??_C@_13DEJI@?$AA?6?$AA?$AA@ 5f7337b8     dbcore.obj
 0002:000007bc       ??_C@_1CI@LDEF@?$AA?0?$AAN?$AAa?$AAt?$AAi?$AAv?$AAe?$AA?3?$AA?$CF?$AAl?$AAd?$AA?0?$AAO?$AAr?$AAi?$AAg?$AAi?$AAn?$AA?3?$AA?$AA@ 5f7337bc     dbcore.obj
 0002:000007e4       ??_C@_1M@MKCN@?$AA0?$AA0?$AA0?$AA0?$AA0?$AA?$AA@ 5f7337e4     dbcore.obj
 0002:000007f4       ??_7CDatabase@@6B@         5f7337f4     dbcore.obj
 0002:00000824       ??_C@_1M@BHKK@?$AA?$DL?$AAD?$AAS?$AAN?$AA?$DN?$AA?$AA@ 5f733824     dbcore.obj
 0002:00000830       ??_C@_15DEDE@?$AA?$CF?$AAs?$AA?$AA@ 5f733830     dbcore.obj
 0002:00000838       ??_C@_1GC@FDFL@?$AAE?$AAr?$AAr?$AAo?$AAr?$AA?3?$AA?5?$AAM?$AAi?$AAs?$AAs?$AAi?$AAn?$AAg?$AA?5?$AA?8?$AAO?$AAD?$AAB?$AAC@ 5f733838     dbcore.obj
 0002:0000089c       ??_C@_08PEKM@lpa?5?$CB?$DN?50?$AA@ 5f73389c     dbcore.obj
 0002:000008a8       ??_C@_0CH@HNPI@F?3?29782?2vc98?2mfc?2atl?2include?2atl@ 5f7338a8     dbcore.obj
 0002:000008d0       ??_C@_08NDGO@lpw?5?$CB?$DN?50?$AA@ 5f7338d0     dbcore.obj
 0002:000008dc       ??_C@_1HC@GCMH@?$AAE?$AAr?$AAr?$AAo?$AAr?$AA?3?$AA?5?$AAS?$AAQ?$AAL?$AAF?$AAr?$AAe?$AAe?$AAE?$AAn?$AAv?$AA?5?$AAf?$AAa@ 5f7338dc     dbcore.obj
 0002:00000950       ??_C@_1IM@MBOF@?$AAE?$AAr?$AAr?$AAo?$AAr?$AA?3?$AA?5?$AAe?$AAx?$AAc?$AAe?$AAp?$AAt?$AAi?$AAo?$AAn?$AA?5?$AAb?$AAy?$AA?5@ 5f733950     dbcore.obj
 0002:000009dc       ??_C@_1EE@PKHL@?$AAW?$AAa?$AAr?$AAn?$AAi?$AAn?$AAg?$AA?3?$AA?5?$AAO?$AAD?$AAB?$AAC?$AA?5?$AAS?$AAu?$AAc?$AAc?$AAe?$AAs@ 5f7339dc     dbcore.obj
 0002:00000a20       ??_C@_1GC@IKIO@?$AAW?$AAa?$AAr?$AAn?$AAi?$AAn?$AAg?$AA?3?$AA?5?$AAF?$AAa?$AAi?$AAl?$AAu?$AAr?$AAe?$AA?5?$AAs?$AAe?$AAt@ 5f733a20     dbcore.obj
 0002:00000a84       ??_C@_1FC@ECMP@?$AAW?$AAa?$AAr?$AAn?$AAi?$AAn?$AAg?$AA?3?$AA?5?$AAF?$AAa?$AAi?$AAl?$AAu?$AAr?$AAe?$AA?5?$AAs?$AAe?$AAt@ 5f733a84     dbcore.obj
 0002:00000ad8       ??_C@_0N@PKHK@odbccall?4txt?$AA@ 5f733ad8     dbcore.obj
 0002:00000ae8       ??_C@_1JE@FNFO@?$AAE?$AAr?$AAr?$AAo?$AAr?$AA?3?$AA?5?$AAN?$AAo?$AA?5?$AAd?$AAe?$AAf?$AAa?$AAu?$AAl?$AAt?$AA?5?$AAw?$AAi@ 5f733ae8     dbcore.obj
 0002:00000b7c       ??_C@_1BO@PBOK@?$AA?0?$AA?5?$AAV?$AAe?$AAr?$AAs?$AAi?$AAo?$AAn?$AA?3?$AA?5?$AA?$CF?$AAs?$AA?6?$AA?$AA@ 5f733b7c     dbcore.obj
 0002:00000b9c       ??_C@_1BE@PKHH@?$AAD?$AAB?$AAM?$AAS?$AA?3?$AA?5?$AA?$CF?$AAs?$AA?6?$AA?$AA@ 5f733b9c     dbcore.obj
 0002:00000bb0       ??_C@_1EG@GIAC@?$AAW?$AAa?$AAr?$AAn?$AAi?$AAn?$AAg?$AA?3?$AA?5?$AAd?$AAa?$AAt?$AAa?$AA?5?$AAs?$AAo?$AAu?$AAr?$AAc?$AAe@ 5f733bb0     dbcore.obj
 0002:00000bf8       ??_C@_01PCJP@Y?$AA@        5f733bf8     dbcore.obj
 0002:00000bfc       ??_C@_01BJG@?6?$AA@        5f733bfc     dbcore.obj
 0002:00000c00       ??_C@_0BI@MNAB@?6?7henvAllConnections?5?$DN?5?$AA@ 5f733c00     dbcore.obj
 0002:00000c18       ??_C@_0BA@LDLC@?6?7nAllocated?5?$DN?5?$AA@ 5f733c18     dbcore.obj
 0002:00000c28       ??_C@_0L@OKHO@?6with?5env?3?$AA@ 5f733c28     dbcore.obj
 0002:00000c34       ??_C@_0BF@DMHA@?6m_dwQueryTimeout?5?$DN?5?$AA@ 5f733c34     dbcore.obj
 0002:00000c4c       ??_C@_0BF@BECC@?6m_dwLoginTimeout?5?$DN?5?$AA@ 5f733c4c     dbcore.obj
 0002:00000c64       ??_C@_0BK@IHG@?6m_bTransactionPending?5?$DN?5?$AA@ 5f733c64     dbcore.obj
 0002:00000c80       ??_C@_0BE@HNE@?6m_bTransactions?5?$DN?5?$AA@ 5f733c80     dbcore.obj
 0002:00000c94       ??_C@_0BB@FGMM@?6m_bUpdatable?5?$DN?5?$AA@ 5f733c94     dbcore.obj
 0002:00000ca8       ??_C@_0BB@MLGK@?6m_strConnect?5?$DN?5?$AA@ 5f733ca8     dbcore.obj
 0002:00000cbc       ??_C@_09DBDF@m_hdbc?5?$DN?5?$AA@ 5f733cbc     dbcore.obj
 0002:00000ccc       ??_7CRecordset@@6B@        5f733ccc     dbcore.obj
 0002:00000d34       ??_C@_1FI@LOMJ@?$AAE?$AAr?$AAr?$AAo?$AAr?$AA?3?$AA?5?$AAE?$AAx?$AAc?$AAe?$AAp?$AAt?$AAi?$AAo?$AAn?$AA?5?$AAi?$AAg?$AAn@ 5f733d34     dbcore.obj
 0002:00000d8c       ??_C@_1FA@JJEP@?$AA?6?$AAt?$AAo?$AA?5?$AAC?$AAl?$AAo?$AAs?$AAe?$AA?5?$AAo?$AAr?$AA?5?$AAm?$AAe?$AAm?$AAo?$AAr?$AAy?$AA?5@ 5f733d8c     dbcore.obj
 0002:00000ddc       ??_C@_1FO@BMOB@?$AA?6?$AAU?$AAs?$AAe?$AA?5?$AAo?$AAf?$AA?5?$AAm?$AAu?$AAl?$AAt?$AAi?$AA?5?$AAr?$AAo?$AAw?$AA?5?$AAf?$AAe@ 5f733ddc     dbcore.obj
 0002:00000e3c       ??_C@_1GG@HFNK@?$AA?6?$AAW?$AAA?$AAR?$AAN?$AAI?$AAN?$AAG?$AA?3?$AA?5?$AAC?$AAl?$AAo?$AAs?$AAe?$AA?5?$AAc?$AAa?$AAl?$AAl@ 5f733e3c     dbcore.obj
 0002:00000ea4       ??_C@_1IC@IKNF@?$AAW?$AAA?$AAR?$AAN?$AAI?$AAN?$AAG?$AA?3?$AA?5?$AAC?$AAR?$AAe?$AAc?$AAo?$AAr?$AAd?$AAs?$AAe?$AAt?$AA?5@ 5f733ea4     dbcore.obj
 0002:00000f28       ??_C@_1GC@IMCJ@?$AAE?$AAr?$AAr?$AAo?$AAr?$AA?3?$AA?5?$AAS?$AAQ?$AAL?$AAN?$AAu?$AAm?$AAR?$AAe?$AAs?$AAu?$AAl?$AAt?$AAC@ 5f733f28     dbcore.obj
 0002:00000f8c       ??_C@_1EE@IMDG@?$AAW?$AAa?$AAr?$AAn?$AAi?$AAn?$AAg?$AA?3?$AA?5?$AAO?$AAD?$AAB?$AAC?$AA?5?$AAS?$AAu?$AAc?$AAc?$AAe?$AAs@ 5f733f8c     dbcore.obj
 0002:00000fd0       ??_C@_1EE@MLLI@?$AAE?$AAr?$AAr?$AAo?$AAr?$AA?3?$AA?5?$AAf?$AAe?$AAt?$AAc?$AAh?$AAi?$AAn?$AAg?$AA?5?$AAr?$AAo?$AAw?$AA?5@ 5f733fd0     dbcore.obj
 0002:00001014       ??_C@_1GA@EOEG@?$AAE?$AAr?$AAr?$AAo?$AAr?$AA?3?$AA?5?$AAf?$AAi?$AAe?$AAl?$AAd?$AA?5?$AAd?$AAa?$AAt?$AAa?$AA?5?$AAt?$AAr@ 5f734014     dbcore.obj
 0002:00001074       ??_C@_1EM@CBAG@?$AAE?$AAr?$AAr?$AAo?$AAr?$AA?3?$AA?5?$AAG?$AAe?$AAt?$AAB?$AAo?$AAo?$AAk?$AAm?$AAa?$AAr?$AAk?$AA?5?$AAo@ 5f734074     dbcore.obj
 0002:000010c0       ??_C@_1HI@MFN@?$AAE?$AAr?$AAr?$AAo?$AAr?$AA?3?$AA?5?$AAa?$AAt?$AAt?$AAe?$AAm?$AAp?$AAt?$AA?5?$AAt?$AAo?$AA?5?$AAl?$AAo@ 5f7340c0     dbcore.obj
 0002:00001138       ??_C@_1FO@PJLA@?$AAE?$AAr?$AAr?$AAo?$AAr?$AA?3?$AA?5?$AAE?$AAd?$AAi?$AAt?$AA?5?$AAa?$AAt?$AAt?$AAe?$AAm?$AAp?$AAt?$AA?5@ 5f734138     dbcore.obj
 0002:00001198       ??_C@_1HA@MJPF@?$AAE?$AAr?$AAr?$AAo?$AAr?$AA?3?$AA?5?$AAm?$AAu?$AAs?$AAt?$AA?5?$AAe?$AAn?$AAt?$AAe?$AAr?$AA?5?$AAE?$AAd@ 5f734198     dbcore.obj
 0002:00001208       ??_C@_1IA@KHHB@?$AAE?$AAr?$AAr?$AAo?$AAr?$AA?3?$AA?5?$AAa?$AAt?$AAt?$AAe?$AAm?$AAp?$AAt?$AAe?$AAd?$AA?5?$AAt?$AAo?$AA?5@ 5f734208     dbcore.obj
 0002:00001288       ??_C@_1EO@NPH@?$AAE?$AAr?$AAr?$AAo?$AAr?$AA?3?$AA?5?$AAa?$AAt?$AAt?$AAe?$AAm?$AAp?$AAt?$AA?5?$AAF?$AAl?$AAu?$AAs?$AAh@ 5f734288     dbcore.obj
 0002:000012d8       ??_C@_1EA@LJGK@?$AAE?$AAr?$AAr?$AAo?$AAr?$AA?3?$AA?5?$AAR?$AAe?$AAq?$AAu?$AAe?$AAr?$AAy?$AA?5?$AAa?$AAt?$AAt?$AAe?$AAm@ 5f7342d8     dbcore.obj
 0002:00001318       ??_C@_11A@?$AA?$AA@        5f734318     dbcore.obj
 0002:0000131c       ??_C@_1GE@ENCI@?$AAW?$AAa?$AAr?$AAn?$AAi?$AAn?$AAg?$AA?3?$AA?5?$AAS?$AAe?$AAt?$AAt?$AAi?$AAn?$AAg?$AA?5?$AAf?$AAo?$AAr@ 5f73431c     dbcore.obj
 0002:00001380       ??_C@_1GA@JKDO@?$AAE?$AAr?$AAr?$AAo?$AAr?$AA?3?$AA?5?$AAC?$AAD?$AAa?$AAt?$AAa?$AAb?$AAa?$AAs?$AAe?$AA?5?$AAc?$AAr?$AAe@ 5f734380     dbcore.obj
 0002:000013e0       ??_C@_1GO@CABB@?$AAE?$AAr?$AAr?$AAo?$AAr?$AA?3?$AA?5?$AAO?$AAD?$AAB?$AAC?$AA?5?$AAf?$AAa?$AAi?$AAl?$AAu?$AAr?$AAe?$AA?5@ 5f7343e0     dbcore.obj
 0002:00001450       ??_C@_1EO@KAHP@?$AA?7?$AAM?$AAa?$AAr?$AAk?$AAi?$AAn?$AAg?$AA?5?$AAC?$AAR?$AAe?$AAc?$AAo?$AAr?$AAd?$AAs?$AAe?$AAt?$AA?5@ 5f734450     dbcore.obj
 0002:000014a0       ??_C@_1FC@CANC@?$AAW?$AAa?$AAr?$AAn?$AAi?$AAn?$AAg?$AA?3?$AA?5?$AAC?$AAo?$AAn?$AAc?$AAu?$AAr?$AAr?$AAe?$AAn?$AAc?$AAy@ 5f7344a0     dbcore.obj
 0002:000014f4       ??_C@_1GI@BFIP@?$AAE?$AAr?$AAr?$AAo?$AAr?$AA?3?$AA?5?$AAO?$AAD?$AAB?$AAC?$AA?5?$AAf?$AAa?$AAi?$AAl?$AAu?$AAr?$AAe?$AA?5@ 5f7344f4     dbcore.obj
 0002:0000155c       ??_C@_1GI@OEHO@?$AAE?$AAr?$AAr?$AAo?$AAr?$AA?3?$AA?5?$AAO?$AAD?$AAB?$AAC?$AA?5?$AAf?$AAa?$AAi?$AAl?$AAu?$AAr?$AAe?$AA?5@ 5f73455c     dbcore.obj
 0002:000015c4       ??_C@_1EO@PBJM@?$AAW?$AAa?$AAr?$AAn?$AAi?$AAn?$AAg?$AA?3?$AA?5?$AAS?$AAe?$AAt?$AAt?$AAi?$AAn?$AAg?$AA?5?$AAr?$AAe?$AAc@ 5f7345c4     dbcore.obj
 0002:00001614       ??_C@_1HC@NIEI@?$AAW?$AAa?$AAr?$AAn?$AAi?$AAn?$AAg?$AA?3?$AA?5?$AAD?$AAr?$AAi?$AAv?$AAe?$AAr?$AA?5?$AAd?$AAo?$AAe?$AAs@ 5f734614     dbcore.obj
 0002:00001688       ??_C@_1DA@JIHM@?$AAf?$AAo?$AAr?$AA?5?$AAu?$AAs?$AAe?$AA?5?$AAw?$AAi?$AAt?$AAh?$AA?5?$AAS?$AAQ?$AAL?$AAF?$AAe?$AAt?$AAc@ 5f734688     dbcore.obj
 0002:000016b8       ??_C@_1HA@KAAN@?$AAa?$AAn?$AAd?$AA?1?$AAo?$AAr?$AA?5?$AAc?$AAu?$AAr?$AAs?$AAo?$AAr?$AA?5?$AAl?$AAi?$AAb?$AAr?$AAa?$AAr@ 5f7346b8     dbcore.obj
 0002:00001728       ??_C@_1GG@DFEH@?$AAW?$AAa?$AAr?$AAn?$AAi?$AAn?$AAg?$AA?3?$AA?5?$AAS?$AAQ?$AAL?$AAE?$AAx?$AAt?$AAe?$AAn?$AAd?$AAe?$AAd@ 5f734728     dbcore.obj
 0002:00001790       ??_C@_1IE@IGCD@?$AAE?$AAr?$AAr?$AAo?$AAr?$AA?3?$AA?5?$AAO?$AAD?$AAB?$AAC?$AA?5?$AAf?$AAa?$AAi?$AAl?$AAu?$AAr?$AAe?$AA?5@ 5f734790     dbcore.obj
 0002:00001814       ??_C@_1FK@GDGL@?$AAE?$AAr?$AAr?$AAo?$AAr?$AA?3?$AA?5?$AAO?$AAD?$AAB?$AAC?$AA?5?$AAf?$AAa?$AAi?$AAl?$AAu?$AAr?$AAe?$AA?5@ 5f734814     dbcore.obj
 0002:00001870       ??_C@_1DM@IDP@?$AAE?$AAr?$AAr?$AAo?$AAr?$AA?3?$AA?5?$AAC?$AAa?$AAn?$AA?8?$AAt?$AA?5?$AAg?$AAe?$AAt?$AA?5?$AAf?$AAi?$AAe@ 5f734870     dbcore.obj
 0002:000018ac       ??_C@_1EO@FAIK@?$AAE?$AAr?$AAr?$AAo?$AAr?$AA?3?$AA?5?$AAC?$AAa?$AAn?$AA?8?$AAt?$AA?5?$AAe?$AAn?$AAa?$AAb?$AAl?$AAe?$AA?5@ 5f7348ac     dbcore.obj
 0002:000018fc       ??_C@_1GI@DJFL@?$AAE?$AAr?$AAr?$AAo?$AAr?$AA?3?$AA?5?$AAO?$AAD?$AAB?$AAC?$AA?5?$AAf?$AAa?$AAi?$AAl?$AAu?$AAr?$AAe?$AA?5@ 5f7348fc     dbcore.obj
 0002:00001964       ??_C@_1HM@IPPG@?$AAW?$AAa?$AAr?$AAn?$AAi?$AAn?$AAg?$AA?3?$AA?5?$AAl?$AAo?$AAc?$AAk?$AAi?$AAn?$AAg?$AA?5?$AAn?$AAo?$AAt@ 5f734964     dbcore.obj
 0002:000019e0       ??_C@_1GM@LADD@?$AAE?$AAr?$AAr?$AAo?$AAr?$AA?3?$AA?5?$AAO?$AAD?$AAB?$AAC?$AA?5?$AAf?$AAa?$AAi?$AAl?$AAu?$AAr?$AAe?$AA?5@ 5f7349e0     dbcore.obj
 0002:00001a4c       ??_C@_1GM@ENHA@?$AAW?$AAa?$AAr?$AAn?$AAi?$AAn?$AAg?$AA?3?$AA?5?$AAS?$AAQ?$AAL?$AA?5?$AAc?$AAo?$AAn?$AAt?$AAa?$AAi?$AAn@ 5f734a4c     dbcore.obj
 0002:00001ab8       ??_C@_1HG@DJNJ@?$AAW?$AAa?$AAr?$AAn?$AAi?$AAn?$AAg?$AA?3?$AA?5?$AAS?$AAQ?$AAL?$AA?5?$AAc?$AAo?$AAn?$AAt?$AAa?$AAi?$AAn@ 5f734ab8     dbcore.obj
 0002:00001b30       ??_C@_1BA@FFIB@?$AA?5?$AAU?$AAN?$AAI?$AAO?$AAN?$AA?5?$AA?$AA@ 5f734b30     dbcore.obj
 0002:00001b40       ??_C@_1HM@CAKC@?$AAW?$AAa?$AAr?$AAn?$AAi?$AAn?$AAg?$AA?3?$AA?5?$AAS?$AAQ?$AAL?$AA?5?$AAc?$AAo?$AAn?$AAt?$AAa?$AAi?$AAn@ 5f734b40     dbcore.obj
 0002:00001bbc       ??_C@_1BG@CONM@?$AA?5?$AAG?$AAR?$AAO?$AAU?$AAP?$AA?5?$AAB?$AAY?$AA?5?$AA?$AA@ 5f734bbc     dbcore.obj
 0002:00001bd4       ??_C@_1GK@HMOJ@?$AAW?$AAa?$AAr?$AAn?$AAi?$AAn?$AAg?$AA?3?$AA?5?$AAM?$AAi?$AAs?$AAs?$AAi?$AAn?$AAg?$AA?5?$AA?8?$AA?5?$AAF@ 5f734bd4     dbcore.obj
 0002:00001c40       ??_C@_1O@LFLK@?$AA?5?$AAJ?$AAO?$AAI?$AAN?$AA?5?$AA?$AA@ 5f734c40     dbcore.obj
 0002:00001c50       ??_C@_1EM@NJB@?$AAE?$AAr?$AAr?$AAo?$AAr?$AA?3?$AA?5?$AAa?$AAt?$AAt?$AAe?$AAm?$AAp?$AAt?$AAe?$AAd?$AA?5?$AAt?$AAo?$AA?5@ 5f734c50     dbcore.obj
 0002:00001c9c       ??_C@_1EI@GPFM@?$AAE?$AAr?$AAr?$AAo?$AAr?$AA?3?$AA?5?$AAa?$AAt?$AAt?$AAe?$AAm?$AAp?$AAt?$AAe?$AAd?$AA?5?$AAt?$AAo?$AA?5@ 5f734c9c     dbcore.obj
 0002:00001ce4       ??_C@_1HC@CIAE@?$AAE?$AAr?$AAr?$AAo?$AAr?$AA?3?$AA?5?$AAa?$AAt?$AAt?$AAe?$AAm?$AAp?$AAt?$AAe?$AAd?$AA?5?$AAt?$AAo?$AA?5@ 5f734ce4     dbcore.obj
 0002:00001d58       ??_C@_1GO@CMCO@?$AAE?$AAr?$AAr?$AAo?$AAr?$AA?3?$AA?5?$AAf?$AAo?$AAr?$AAw?$AAa?$AAr?$AAd?$AA?9?$AAo?$AAn?$AAl?$AAy?$AA?5@ 5f734d58     dbcore.obj
 0002:00001dc8       ??_C@_1FM@MFNO@?$AAE?$AAr?$AAr?$AAo?$AAr?$AA?3?$AA?5?$AAn?$AAo?$AA?5?$AAf?$AAi?$AAe?$AAl?$AAd?$AA?5?$AAn?$AAa?$AAm?$AAe@ 5f734dc8     dbcore.obj
 0002:00001e24       ??_C@_13JKDK@?$AA?0?$AA?$AA@ 5f734e24     dbcore.obj
 0002:00001e28       ??_C@_1JC@FFNF@?$AAW?$AAa?$AAr?$AAn?$AAi?$AAn?$AAg?$AA?3?$AA?5?$AAS?$AAe?$AAt?$AAt?$AAi?$AAn?$AAg?$AA?5?$AAr?$AAe?$AAc@ 5f734e28     dbcore.obj
 0002:00001ebc       ??_C@_1EE@DHLD@?$AA?7?$AAW?$AAi?$AAl?$AAl?$AA?5?$AAu?$AAs?$AAe?$AA?5?$AAp?$AAo?$AAs?$AAi?$AAt?$AAi?$AAo?$AAn?$AAe?$AAd@ 5f734ebc     dbcore.obj
 0002:00001f00       ??_C@_1IC@EACK@?$AAW?$AAa?$AAr?$AAn?$AAi?$AAn?$AAg?$AA?3?$AA?5?$AAC?$AAa?$AAn?$AA?8?$AAt?$AA?5?$AAu?$AAs?$AAe?$AA?5?$AAS@ 5f734f00     dbcore.obj
 0002:00001f84       ??_C@_1EC@LHPG@?$AAE?$AAr?$AAr?$AAo?$AAr?$AA?3?$AA?5?$AAf?$AAa?$AAi?$AAl?$AAu?$AAr?$AAe?$AA?5?$AAu?$AAp?$AAd?$AAa?$AAt@ 5f734f84     dbcore.obj
 0002:00001fc8       ??_C@_1FM@DCDN@?$AAE?$AAr?$AAr?$AAo?$AAr?$AA?3?$AA?5?$AAf?$AAa?$AAi?$AAl?$AAu?$AAr?$AAe?$AA?5?$AAt?$AAo?$AA?5?$AAa?$AAl@ 5f734fc8     dbcore.obj
 0002:00002024       ??_C@_1CG@BIKJ@?$AA?5?$AAW?$AAH?$AAE?$AAR?$AAE?$AA?5?$AAC?$AAU?$AAR?$AAR?$AAE?$AAN?$AAT?$AA?5?$AAO?$AAF?$AA?5?$AA?$AA@ 5f735024     dbcore.obj
 0002:0000204c       ??_C@_1M@FJED@?$AA?5?$AAS?$AAE?$AAT?$AA?5?$AA?$AA@ 5f73504c     dbcore.obj
 0002:00002058       ??_C@_1BA@MDEN@?$AAU?$AAP?$AAD?$AAA?$AAT?$AAE?$AA?5?$AA?$AA@ 5f735058     dbcore.obj
 0002:00002068       ??_C@_1BE@LEJJ@?$AA?5?$AAV?$AAA?$AAL?$AAU?$AAE?$AAS?$AA?5?$AA?$CI?$AA?$AA@ 5f735068     dbcore.obj
 0002:0000207c       ??_C@_15NGMK@?$AA?5?$AA?$CI?$AA?$AA@ 5f73507c     dbcore.obj
 0002:00002084       ??_C@_1BK@ECOF@?$AAI?$AAN?$AAS?$AAE?$AAR?$AAT?$AA?5?$AAI?$AAN?$AAT?$AAO?$AA?5?$AA?$AA@ 5f735084     dbcore.obj
 0002:000020a0       ??_C@_1BK@FPKL@?$AAD?$AAE?$AAL?$AAE?$AAT?$AAE?$AA?5?$AAF?$AAR?$AAO?$AAM?$AA?5?$AA?$AA@ 5f7350a0     dbcore.obj
 0002:000020bc       ??_C@_1HK@IFFI@?$AAW?$AAa?$AAr?$AAn?$AAi?$AAn?$AAg?$AA?3?$AA?5?$AA?$CF?$AAu?$AA?5?$AAr?$AAo?$AAw?$AAs?$AA?5?$AAa?$AAf?$AAf@ 5f7350bc     dbcore.obj
 0002:00002138       ??_C@_1HE@KANF@?$AAE?$AAr?$AAr?$AAo?$AAr?$AA?3?$AA?5?$AAf?$AAa?$AAi?$AAl?$AAu?$AAr?$AAe?$AA?5?$AAh?$AAa?$AAn?$AAd?$AAl@ 5f735138     dbcore.obj
 0002:000021ac       ??_C@_1IG@NFEH@?$AAE?$AAr?$AAr?$AAo?$AAr?$AA?3?$AA?5?$AAa?$AAt?$AAt?$AAe?$AAm?$AAp?$AAt?$AAi?$AAn?$AAg?$AA?5?$AAt?$AAo@ 5f7351ac     dbcore.obj
 0002:00002234       ??_C@_1GG@CEAL@?$AAE?$AAr?$AAr?$AAo?$AAr?$AA?3?$AA?5?$AAa?$AAt?$AAt?$AAe?$AAm?$AAp?$AAt?$AAe?$AAd?$AA?5?$AAt?$AAo?$AA?5@ 5f735234     dbcore.obj
 0002:0000229c       ??_C@_1HI@NPFJ@?$AAE?$AAr?$AAr?$AAo?$AAr?$AA?3?$AA?5?$AAa?$AAt?$AAt?$AAe?$AAm?$AAp?$AAt?$AAe?$AAd?$AA?5?$AAt?$AAo?$AA?5@ 5f73529c     dbcore.obj
 0002:00002314       ??_C@_1EO@CKND@?$AA?7?$AAD?$AAa?$AAt?$AAa?$AA?5?$AAa?$AAl?$AAr?$AAe?$AAa?$AAd?$AAy?$AA?5?$AAf?$AAe?$AAt?$AAc?$AAh?$AAe@ 5f735314     dbcore.obj
 0002:00002364       ??_C@_1GI@CONN@?$AAE?$AAr?$AAr?$AAo?$AAr?$AA?3?$AA?5?$AAG?$AAe?$AAt?$AAF?$AAi?$AAe?$AAl?$AAd?$AAV?$AAa?$AAl?$AAu?$AAe@ 5f735364     dbcore.obj
 0002:000023cc       ??_C@_1FM@LIBK@?$AAW?$AAa?$AAr?$AAn?$AAi?$AAn?$AAg?$AA?3?$AA?5?$AAO?$AAD?$AAB?$AAC?$AA?5?$AAS?$AAu?$AAc?$AAc?$AAe?$AAs@ 5f7353cc     dbcore.obj
 0002:00002428       ??_C@_0BA@BGHA@with?5database?3?5?$AA@ 5f735428     dbcore.obj
 0002:00002438       ??_C@_0BC@MKGN@with?5no?5database?6?$AA@ 5f735438     dbcore.obj
 0002:0000244c       ??_C@_0CP@HPBB@?6Dump?5values?5for?5each?5field?5in?5c@ 5f73544c     dbcore.obj
 0002:0000247c       ??_C@_0BC@JNKN@?6m_hstmtUpdate?5?$DN?5?$AA@ 5f73547c     dbcore.obj
 0002:00002490       ??_C@_0BE@OFAF@?6m_strCursorName?5?$DN?5?$AA@ 5f735490     dbcore.obj
 0002:000024a4       ??_C@_0BA@CDEP@?6m_nEditMode?5?$DN?5?$AA@ 5f7354a4     dbcore.obj
 0002:000024b4       ??_C@_0BA@GJB@?6m_bLockMode?5?$DN?5?$AA@ 5f7354b4     dbcore.obj
 0002:000024c4       ??_C@_0P@NFAJ@?6m_bDeleted?5?$DN?5?$AA@ 5f7354c4     dbcore.obj
 0002:000024d4       ??_C@_0L@IPIJ@?6m_bBOF?5?$DN?5?$AA@ 5f7354d4     dbcore.obj
 0002:000024e0       ??_C@_0L@GHOJ@?6m_bEOF?5?$DN?5?$AA@ 5f7354e0     dbcore.obj
 0002:000024ec       ??_C@_0O@DPF@?6m_nParams?5?$DN?5?$AA@ 5f7354ec     dbcore.obj
 0002:000024fc       ??_C@_0BD@GPPK@?6m_nFieldsBound?5?$DN?5?$AA@ 5f7354fc     dbcore.obj
 0002:00002510       ??_C@_0O@ECP@?6m_nFields?5?$DN?5?$AA@ 5f735510     dbcore.obj
 0002:00002520       ??_C@_0BC@IMFD@?6m_bAppendable?5?$DN?5?$AA@ 5f735520     dbcore.obj
 0002:00002534       ??_C@_0BC@CBKM@?6m_bScrollable?5?$DN?5?$AA@ 5f735534     dbcore.obj
 0002:00002548       ??_C@_0M@CNKH@?6m_lOpen?5?$DN?5?$AA@ 5f735548     dbcore.obj
 0002:00002554       ??_C@_0BD@DHNL@?6m_bRecordsetDb?5?$DN?5?$AA@ 5f735554     dbcore.obj
 0002:00002568       ??_C@_0M@JKLH@?6m_hstmt?5?$DN?5?$AA@ 5f735568     dbcore.obj
 0002:00002574       ??_C@_0N@MDHJ@?6m_strSQL?5?$DN?5?$AA@ 5f735574     dbcore.obj
 0002:00002584       ??_C@_0P@KPIA@m_nOpenType?5?$DN?5?$AA@ 5f735584     dbcore.obj
 0002:00002594       ??_C@_1HG@CEAC@?$AAE?$AAr?$AAr?$AAo?$AAr?$AA?3?$AA?5?$AAS?$AAe?$AAt?$AAS?$AAy?$AAn?$AAc?$AAh?$AAr?$AAo?$AAn?$AAo?$AAu@ 5f735594     dbcore.obj
 0002:0000260c       ??_C@_0CH@FAFL@F?3?29782?2vc98?2mfc?2mfc?2include?2afx@ 5f73560c     dbcore.obj
 0002:00002638       ??_7_AFX_DB_STATE@@6B@     5f735638     dbcore.obj
 0002:00002640       ??_7CNoTrackObject@@6B@    5f735640     dbcore.obj
 0002:00002644       ??_C@_1FO@CG@?$AAE?$AAr?$AAr?$AAo?$AAr?$AA?3?$AA?5?$AAf?$AAi?$AAe?$AAl?$AAd?$AA?5?$AAa?$AAd?$AAd?$AAr?$AAe?$AAs?$AAs@ 5f735644     dbrfx.obj
 0002:000026a4       ??_C@_03FGJK@?5?$DN?5?$AA@ 5f7356a4     dbrfx.obj
 0002:000026a8       ??_C@_1GA@LPOM@?$AAE?$AAr?$AAr?$AAo?$AAr?$AA?3?$AA?5?$AAb?$AAu?$AAf?$AAf?$AAe?$AAr?$AA?5?$AA?$CI?$AAc?$AAo?$AAl?$AAu?$AAm@ 5f7356a8     dbrfx.obj
 0002:00002708       ??_C@_1FM@KDBP@?$AAW?$AAa?$AAr?$AAn?$AAi?$AAn?$AAg?$AA?3?$AA?5?$AAs?$AAt?$AAr?$AAi?$AAn?$AAg?$AA?5?$AAc?$AAo?$AAn?$AAv@ 5f735708     dbrfx.obj
 0002:00002764       ??_C@_1HA@IBMC@?$AAE?$AAr?$AAr?$AAo?$AAr?$AA?3?$AA?5?$AAC?$AAS?$AAt?$AAr?$AAi?$AAn?$AAg?$AA?5?$AAb?$AAu?$AAf?$AAf?$AAe@ 5f735764     dbrfx.obj
 0002:000027d4       ??_C@_1FO@OFHM@?$AAW?$AAa?$AAr?$AAn?$AAi?$AAn?$AAg?$AA?3?$AA?5?$AAC?$AAS?$AAt?$AAr?$AAi?$AAn?$AAg?$AA?5?$AAc?$AAo?$AAn@ 5f7357d4     dbrfx.obj
 0002:00002834       ??_C@_1FG@FIKO@?$AAW?$AAa?$AAr?$AAn?$AAi?$AAn?$AAg?$AA?3?$AA?5?$AAi?$AAn?$AAt?$AA?5?$AAc?$AAo?$AAn?$AAv?$AAe?$AAr?$AAt@ 5f735834     dbrfx.obj
 0002:0000288c       ??_C@_1FI@BKDC@?$AAW?$AAa?$AAr?$AAn?$AAi?$AAn?$AAg?$AA?3?$AA?5?$AAl?$AAo?$AAn?$AAg?$AA?5?$AAc?$AAo?$AAn?$AAv?$AAe?$AAr@ 5f73588c     dbrfx.obj
 0002:000028e4       ??_C@_1FI@OIHI@?$AAW?$AAa?$AAr?$AAn?$AAi?$AAn?$AAg?$AA?3?$AA?5?$AAB?$AAY?$AAT?$AAE?$AA?5?$AAc?$AAo?$AAn?$AAv?$AAe?$AAr@ 5f7358e4     dbrfx.obj
 0002:0000293c       ??_C@_1FI@MODJ@?$AAW?$AAa?$AAr?$AAn?$AAi?$AAn?$AAg?$AA?3?$AA?5?$AAB?$AAO?$AAO?$AAL?$AA?5?$AAc?$AAo?$AAn?$AAv?$AAe?$AAr@ 5f73593c     dbrfx.obj
 0002:00002994       ??_C@_01PKAG@?3?$AA@       5f735994     dbrfx.obj
 0002:00002998       ??_C@_1GE@KBIF@?$AAW?$AAa?$AAr?$AAn?$AAi?$AAn?$AAg?$AA?3?$AA?5?$AAC?$AAB?$AAy?$AAt?$AAe?$AAA?$AAr?$AAr?$AAa?$AAy?$AA?5@ 5f735998     dbrfx.obj
 0002:000029fc       ??_C@_1EC@JJBD@?$AAW?$AAa?$AAr?$AAn?$AAi?$AAn?$AAg?$AA?3?$AA?5?$AAi?$AAg?$AAn?$AAo?$AAr?$AAi?$AAn?$AAg?$AA?5?$AAm?$AAi@ 5f7359fc     dbrfx.obj
 0002:00002a40       ??_C@_1HC@POCA@?$AAW?$AAa?$AAr?$AAn?$AAi?$AAn?$AAg?$AA?3?$AA?5?$AAd?$AAa?$AAt?$AAe?$AA?5?$AAv?$AAa?$AAl?$AAu?$AAe?$AA?5@ 5f735a40     dbrfx.obj
 0002:00002ab4       ??_C@_1FK@JFDN@?$AAW?$AAa?$AAr?$AAn?$AAi?$AAn?$AAg?$AA?3?$AA?5?$AAC?$AAT?$AAi?$AAm?$AAe?$AA?5?$AAc?$AAo?$AAn?$AAv?$AAe@ 5f735ab4     dbrfx.obj
 0002:00002b10       ??_C@_0N@OGBI@?4fraction?5?$DN?5?$AA@ 5f735b10     dbrfx.obj
 0002:00002b20       ??_C@_0L@BFHB@?4second?5?$DN?5?$AA@ 5f735b20     dbrfx.obj
 0002:00002b2c       ??_C@_0L@JFIG@?4minute?5?$DN?5?$AA@ 5f735b2c     dbrfx.obj
 0002:00002b38       ??_C@_08PGJP@?4hour?5?$DN?5?$AA@ 5f735b38     dbrfx.obj
 0002:00002b44       ??_C@_07JEIM@?4day?5?$DN?5?$AA@ 5f735b44     dbrfx.obj
 0002:00002b4c       ??_C@_09DKMF@?4month?5?$DN?5?$AA@ 5f735b4c     dbrfx.obj
 0002:00002b58       ??_C@_08DFNB@?4year?5?$DN?5?$AA@ 5f735b58     dbrfx.obj
 0002:00002b64       ??_C@_1HA@GLOK@?$AAW?$AAa?$AAr?$AAn?$AAi?$AAn?$AAg?$AA?3?$AA?5?$AAT?$AAI?$AAM?$AAE?$AAS?$AAT?$AAA?$AAM?$AAP?$AA_?$AAS@ 5f735b64     dbrfx.obj
 0002:00002bd4       ??_C@_1GI@EJOD@?$AAW?$AAa?$AAr?$AAn?$AAi?$AAn?$AAg?$AA?3?$AA?5?$AAC?$AAO?$AAl?$AAe?$AAD?$AAa?$AAt?$AAe?$AAT?$AAi?$AAm@ 5f735bd4     dbrfx.obj
 0002:00002c3c       ??_C@_1BI@HDAA@?$AAS?$AAt?$AAa?$AAt?$AAe?$AA?3?$AA0?$AA1?$AA0?$AA0?$AA4?$AA?$AA@ 5f735c3c     dbrfx.obj
 0002:00002c58       ?classCRecordView@CRecordView@@2UCRuntimeClass@@B 5f735c58     dbview.obj
 0002:00002c70       ??_C@_0M@EAFL@CRecordView?$AA@ 5f735c70     dbview.obj
 0002:00002c80       ?messageMap@CRecordView@@1UAFX_MSGMAP@@B 5f735c80     dbview.obj
 0002:00002c88       ?_messageEntries@CRecordView@@0QBUAFX_MSGMAP_ENTRY@@B 5f735c88     dbview.obj
 0002:00002d64       ??_7CRecordView@@6B@       5f735d64     dbview.obj
 0002:00002e7c       ??_C@_1EI@FFBM@?$AAW?$AAa?$AAr?$AAn?$AAi?$AAn?$AAg?$AA?3?$AA?5?$AAn?$AAo?$AA?5?$AAl?$AAi?$AAs?$AAt?$AAb?$AAo?$AAx?$AA?5@ 5f735e7c     dbview.obj
 0002:00002ec4       ??_C@_1EK@OEMJ@?$AAW?$AAa?$AAr?$AAn?$AAi?$AAn?$AAg?$AA?3?$AA?5?$AAn?$AAo?$AA?5?$AAc?$AAo?$AAm?$AAb?$AAo?$AAb?$AAo?$AAx@ 5f735ec4     dbview.obj
 0002:00002f10       ??_C@_1HA@DPGA@?$AAW?$AAa?$AAr?$AAn?$AAi?$AAn?$AAg?$AA?3?$AA?5?$AAd?$AAi?$AAa?$AAl?$AAo?$AAg?$AA?5?$AAd?$AAa?$AAt?$AAa@ 5f735f10     dbview.obj
 0002:00002f80       ??_C@_1HE@NOFM@?$AAW?$AAa?$AAr?$AAn?$AAi?$AAn?$AAg?$AA?3?$AA?5?$AAf?$AAi?$AAe?$AAl?$AAd?$AA?5?$AAN?$AAU?$AAL?$AAL?$AA?5@ 5f735f80     dbview.obj
 0002:00002ff4       ??_C@_1IA@HLN@?$AAW?$AAa?$AAr?$AAn?$AAi?$AAn?$AAg?$AA?3?$AA?5?$AAc?$AAh?$AAe?$AAc?$AAk?$AAb?$AAo?$AAx?$AA?5?$AAv?$AAa@ 5f735ff4     dbview.obj
 0002:00003074       ??_C@_0BE@JDG@?6m_bOnLastRecord?5?$DN?5?$AA@ 5f736074     dbview.obj
 0002:00003088       ??_C@_0BE@GCEL@m_bOnFirstRecord?5?$DN?5?$AA@ 5f736088     dbview.obj
 0002:000030b0       ??_C@_1FK@HFKA@?$AAW?$AAa?$AAr?$AAn?$AAi?$AAn?$AAg?$AA?3?$AA?5?$AAf?$AAl?$AAo?$AAa?$AAt?$AA?5?$AAc?$AAo?$AAn?$AAv?$AAe@ 5f7360b0     dbflt.obj
 0002:0000310c       ??_C@_1FM@EACM@?$AAW?$AAa?$AAr?$AAn?$AAi?$AAn?$AAg?$AA?3?$AA?5?$AAd?$AAo?$AAu?$AAb?$AAl?$AAe?$AA?5?$AAc?$AAo?$AAn?$AAv@ 5f73610c     dbflt.obj
 0002:00003168       ?classCLongBinary@CLongBinary@@2UCRuntimeClass@@B 5f736168     dblong.obj
 0002:00003180       ??_C@_0M@DJA@CLongBinary?$AA@ 5f736180     dblong.obj
 0002:00003190       ??_7CLongBinary@@6B@       5f736190     dblong.obj
 0002:000031a4       ??_C@_0BD@HHCG@?6m_dwDataLength?5?$DN?5?$AA@ 5f7361a4     dblong.obj
 0002:000031b8       ??_C@_0L@DGJD@m_hData?5?$DN?5?$AA@ 5f7361b8     dblong.obj
 0002:000031c8       ??_7CDBVariant@@6B@        5f7361c8     dbvar.obj
 0002:000031d0       ?classCDaoRecordset@CDaoRecordset@@2UCRuntimeClass@@B 5f7361d0     daocore.obj
 0002:000031e8       ??_C@_0O@JOIL@CDaoRecordset?$AA@ 5f7361e8     daocore.obj
 0002:000031f8       ?classCDaoQueryDef@CDaoQueryDef@@2UCRuntimeClass@@B 5f7361f8     daocore.obj
 0002:00003210       ??_C@_0N@NGH@CDaoQueryDef?$AA@ 5f736210     daocore.obj
 0002:00003220       ?classCDaoTableDef@CDaoTableDef@@2UCRuntimeClass@@B 5f736220     daocore.obj
 0002:00003238       ??_C@_0N@PHMG@CDaoTableDef?$AA@ 5f736238     daocore.obj
 0002:00003248       ?classCDaoDatabase@CDaoDatabase@@2UCRuntimeClass@@B 5f736248     daocore.obj
 0002:00003260       ??_C@_0N@DDLP@CDaoDatabase?$AA@ 5f736260     daocore.obj
 0002:00003270       ?classCDaoWorkspace@CDaoWorkspace@@2UCRuntimeClass@@B 5f736270     daocore.obj
 0002:00003288       ??_C@_0O@IEJG@CDaoWorkspace?$AA@ 5f736288     daocore.obj
 0002:00003298       ?classCDaoException@CDaoException@@2UCRuntimeClass@@B 5f736298     daocore.obj
 0002:000032b0       ??_C@_0O@OIMH@CDaoException?$AA@ 5f7362b0     daocore.obj
 0002:000032c0       ?_afxTable2@@3QBGB         5f7362c0     daocore.obj
 0002:000032d0       ?_afxTransform2@@3QBGB     5f7362d0     daocore.obj
 0002:000032e8       ?_afxOrderBy2@@3QBGB       5f7362e8     daocore.obj
 0002:00003300       ?_afxWhere2@@3QBGB         5f736300     daocore.obj
 0002:00003310       ?_afxFrom2@@3QBGB          5f736310     daocore.obj
 0002:00003320       ?_afxSelect2@@3QBGB        5f736320     daocore.obj
 0002:00003330       ?_afxParameters2@@3QBGB    5f736330     daocore.obj
 0002:0000334c       ??_7_AFX_DAO_STATE@@6B@    5f73634c     daocore.obj
 0002:00003350       ??_C@_1BM@FCKC@?$AA?6?$AA?7?$AAs?$AAc?$AAo?$AAd?$AAe?$AA?5?$AA?$DN?$AA?5?$AA?$CF?$AAX?$AA?6?$AA?$AA@ 5f736350     daocore.obj
 0002:0000336c       ??_C@_1DC@ENFN@?$AA?6?$AA?7?$AAI?$AAn?$AA?5?$AAf?$AAi?$AAl?$AAe?$AA?5?$AA?$CF?$AAh?$AAs?$AA?5?$AAo?$AAn?$AA?5?$AAl?$AAi?$AAn@ 5f73636c     daocore.obj
 0002:000033a0       ??_C@_1M@LOF@?$AA?6?$AA?7?$AA?$CF?$AAh?$AAs?$AA?$AA@ 5f7363a0     daocore.obj
 0002:000033ac       ??_C@_1CE@CGEC@?$AA?6?$AAD?$AAA?$AAO?$AA?5?$AAC?$AAa?$AAl?$AAl?$AA?5?$AAF?$AAa?$AAi?$AAl?$AAe?$AAd?$AA?4?$AA?$AA@ 5f7363ac     daocore.obj
 0002:000033d0       ??_C@_1BI@OIDH@?$AAs?$AAc?$AAo?$AAd?$AAe?$AA?5?$AA?$DN?$AA?5?$AA?$CF?$AAX?$AA?6?$AA?$AA@ 5f7363d0     daocore.obj
 0002:000033e8       ??_C@_1DC@NDDC@?$AA?6?$AAI?$AAn?$AA?5?$AAf?$AAi?$AAl?$AAe?$AA?5?$AA?$CF?$AAh?$AAs?$AA?5?$AAo?$AAn?$AA?5?$AAl?$AAi?$AAn?$AAe@ 5f7363e8     daocore.obj
 0002:0000341c       ??_C@_19MMFM@?$AA?6?$AA?$CF?$AAh?$AAs?$AA?$AA@ 5f73641c     daocore.obj
 0002:00003428       ??_C@_1CI@BBLE@?$AA?6?$AAD?$AAA?$AAO?$AA?5?$AAC?$AAa?$AAl?$AAl?$AA?5?$AAF?$AAa?$AAi?$AAl?$AAe?$AAd?$AA?4?$AA?6?$AA?7?$AA?$AA@ 5f736428     daocore.obj
 0002:00003450       ??_C@_0BD@JMBE@?6m_lHelpContext?5?$DN?5?$AA@ 5f736450     daocore.obj
 0002:00003464       ??_C@_0BC@FOHM@?6m_strHelpFile?5?$DN?5?$AA@ 5f736464     daocore.obj
 0002:00003478       ??_C@_0BF@JHNL@?6m_strDescription?5?$DN?5?$AA@ 5f736478     daocore.obj
 0002:00003490       ??_C@_0BA@HMPD@?6m_strSource?5?$DN?5?$AA@ 5f736490     daocore.obj
 0002:000034a0       ??_C@_0BB@CCFD@?6m_lErrorCode?5?$DN?5?$AA@ 5f7364a0     daocore.obj
 0002:000034b4       ??_C@_0BE@OGG@a?5CDaoErrorInfo?5at?5?$AA@ 5f7364b4     daocore.obj
 0002:000034c8       ??_C@_0BJ@HLFP@?6b?5?$DN?5m_bIsolateODBCTrans?$AA@ 5f7364c8     daocore.obj
 0002:000034e4       ??_C@_0BC@HDK@?6m_strUserName?5?$DN?5?$AA@ 5f7364e4     daocore.obj
 0002:000034f8       ??_C@_0O@FEGP@?6m_strName?5?$DN?5?$AA@ 5f7364f8     daocore.obj
 0002:00003508       ??_C@_0BI@EJIL@a?5CDaoWorkspaceInfo?5at?5?$AA@ 5f736508     daocore.obj
 0002:00003520       ??_C@_0BE@JLEN@?6m_nQueryTimeout?5?$DN?5?$AA@ 5f736520     daocore.obj
 0002:00003534       ??_C@_0BG@ILBM@?6m_lCollatingOrder?5?$DN?5?$AA@ 5f736534     daocore.obj
 0002:0000354c       ??_C@_0BB@LEGM@?6m_strVersion?5?$DN?5?$AA@ 5f73654c     daocore.obj
 0002:00003560       ??_C@_0BH@FIEC@a?5CDaoDatabaseInfo?5at?5?$AA@ 5f736560     daocore.obj
 0002:00003578       ??_C@_0BD@FJAC@?6m_lRecordCount?5?$DN?5?$AA@ 5f736578     daocore.obj
 0002:0000358c       ??_C@_0BI@JMNH@?6m_strValidationText?5?$DN?5?$AA@ 5f73658c     daocore.obj
 0002:000035a4       ??_C@_0BI@NDBL@?6m_strValidationRule?5?$DN?5?$AA@ 5f7365a4     daocore.obj
 0002:000035bc       ??_C@_0BG@FOBO@?6m_strSrcTableName?5?$DN?5?$AA@ 5f7365bc     daocore.obj
 0002:000035d4       ??_C@_0BG@PCL@?6m_dateLastUpdated?5?$DN?5?$AA@ 5f7365d4     daocore.obj
 0002:000035ec       ??_C@_0BG@FOFB@?6m_dateDateCreated?5?$DN?5?$AA@ 5f7365ec     daocore.obj
 0002:00003604       ??_C@_0BC@KBNC@?6m_lAttributes?5?$DN?5?$AA@ 5f736604     daocore.obj
 0002:00003618       ??_C@_0BH@JFIA@a?5CDaoTableDefInfo?5at?5?$AA@ 5f736618     daocore.obj
 0002:00003630       ??_C@_0BG@MHMB@?6m_strDefaultValue?5?$DN?5?$AA@ 5f736630     daocore.obj
 0002:00003648       ??_C@_0BF@HCFN@?6m_strSourceTable?5?$DN?5?$AA@ 5f736648     daocore.obj
 0002:00003660       ??_C@_0BF@NJHG@?6m_strSourceField?5?$DN?5?$AA@ 5f736660     daocore.obj
 0002:00003678       ??_C@_0BF@KILJ@?6m_strForeignName?5?$DN?5?$AA@ 5f736678     daocore.obj
 0002:00003690       ??_C@_0BH@BCFG@?6m_bAllowZeroLength?5?$DN?5?$AA@ 5f736690     daocore.obj
 0002:000036a8       ??_C@_0BA@OOHL@?6m_bRequired?5?$DN?5?$AA@ 5f7366a8     daocore.obj
 0002:000036b8       ??_C@_0BH@IMAL@?6m_nOrdinalPosition?5?$DN?5?$AA@ 5f7366b8     daocore.obj
 0002:000036d0       ??_C@_0M@EOEG@?6m_lSize?5?$DN?5?$AA@ 5f7366d0     daocore.obj
 0002:000036dc       ??_C@_0M@MJB@?6m_nType?5?$DN?5?$AA@ 5f7366dc     daocore.obj
 0002:000036e8       ??_C@_0BE@PODE@a?5CDaoFieldInfo?5at?5?$AA@ 5f7366e8     daocore.obj
 0002:000036fc       ??_C@_0BC@ILAA@?6m_bDescending?5?$DN?5?$AA@ 5f7366fc     daocore.obj
 0002:00003710       ??_C@_0BK@KCFC@?5a?5CDaoIndexFieldInfo?5at?5?$AA@ 5f736710     daocore.obj
 0002:00003730       ??_7CDaoIndexInfo@@6B@     5f736730     daocore.obj
 0002:00003738       ??_C@_0BF@LIJD@?6m_lDistinctCount?5?$DN?5?$AA@ 5f736738     daocore.obj
 0002:00003750       ??_C@_0P@DLHL@?6m_bForeign?5?$DN?5?$AA@ 5f736750     daocore.obj
 0002:00003760       ??_C@_0BD@MAED@?6m_bIgnoreNulls?5?$DN?5?$AA@ 5f736760     daocore.obj
 0002:00003774       ??_C@_0BB@FFL@?6m_bClustered?5?$DN?5?$AA@ 5f736774     daocore.obj
 0002:00003788       ??_C@_0O@NMC@?6m_bUnique?5?$DN?5?$AA@ 5f736788     daocore.obj
 0002:00003798       ??_C@_0P@FFEB@?6m_bPrimary?5?$DN?5?$AA@ 5f736798     daocore.obj
 0002:000037a8       ??_C@_0BE@OGHD@a?5CDaoIndexInfo?5at?5?$AA@ 5f7367a8     daocore.obj
 0002:000037bc       ??_C@_0BN@BEAM@?5a?5CDaoRelationFieldInfo?5at?5?$AA@ 5f7367bc     daocore.obj
 0002:000037e0       ??_7CDaoRelationInfo@@6B@  5f7367e0     daocore.obj
 0002:000037e8       ??_C@_0BG@NBH@?6m_strForeignTable?5?$DN?5?$AA@ 5f7367e8     daocore.obj
 0002:00003800       ??_C@_0P@CHOL@?6m_strTable?5?$DN?5?$AA@ 5f736800     daocore.obj
 0002:00003810       ??_C@_0BH@ICPE@a?5CDaoRelationInfo?5at?5?$AA@ 5f736810     daocore.obj
 0002:00003828       ??_C@_0BD@BKGA@?6m_nODBCTimeout?5?$DN?5?$AA@ 5f736828     daocore.obj
 0002:0000383c       ??_C@_0BG@JDEE@?6m_bReturnsRecords?5?$DN?5?$AA@ 5f73683c     daocore.obj
 0002:00003854       ??_C@_0BC@DDHJ@?6m_dateCreated?5?$DN?5?$AA@ 5f736854     daocore.obj
 0002:00003868       ??_C@_0BH@OPB@a?5CDaoQueryDefInfo?5at?5?$AA@ 5f736868     daocore.obj
 0002:00003880       ??_C@_0P@MIHC@?6m_varValue?5?$DN?5?$AA@ 5f736880     daocore.obj
 0002:00003890       ??_C@_0BI@NAFD@a?5CDaoParameterInfo?5at?5?$AA@ 5f736890     daocore.obj
 0002:000038ac       ??_7CDaoException@@6B@     5f7368ac     daocore.obj
 0002:000038c8       ??_C@_0CC@NFIM@m_pDAOErrors?9?$DOget_Count?$CI?$CGnErrors@ 5f7368c8     daocore.obj
 0002:000038ec       ??_C@_0EB@MBDI@m_pDAOErrors?9?$DOget_Item?$CI?5COleVari@ 5f7368ec     daocore.obj
 0002:00003930       ??_C@_0DG@CEPE@pDaoState?9?$DOm_pDAODBEngine?9?$DOget_E@ 5f736930     daocore.obj
 0002:00003968       ??_C@_0DN@LLAK@m_pDAOError?9?$DOget_HelpContext?$CI?5?$CGm@ 5f736968     daocore.obj
 0002:000039a8       ??_C@_0CJ@LALL@m_pDAOError?9?$DOget_HelpFile?$CI?$CGV_BST@ 5f7369a8     daocore.obj
 0002:000039d4       ??_C@_0CM@BAFD@m_pDAOError?9?$DOget_Description?$CI?$CGV_@ 5f7369d4     daocore.obj
 0002:00003a00       ??_C@_0CH@NNNO@m_pDAOError?9?$DOget_Source?$CI?$CGV_BSTR?$CI@ 5f736a00     daocore.obj
 0002:00003a28       ??_C@_0DG@GHAH@m_pDAOError?9?$DOget_Number?$CI?5?$CGm_pErr@ 5f736a28     daocore.obj
 0002:00003a64       ??_7CDaoErrorInfo@@6B@     5f736a64     daocore.obj
 0002:00003a68       ??_C@_1CE@BPEH@?$AAD?$AAe?$AAs?$AAc?$AAr?$AAi?$AAp?$AAt?$AAi?$AAo?$AAn?$AA?5?$AA?$DN?$AA?5?$AA?$CF?$AAs?$AA?6?$AA?$AA@ 5f736a68     daocore.obj
 0002:00003a8c       ??_C@_1BK@LBAO@?$AAS?$AAo?$AAu?$AAr?$AAc?$AAe?$AA?5?$AA?$DN?$AA?5?$AA?$CF?$AAs?$AA?6?$AA?$AA@ 5f736a8c     daocore.obj
 0002:00003aa8       ??_C@_1CE@GONH@?$AA?6?$AAE?$AAr?$AAr?$AAo?$AAr?$AA?5?$AAC?$AAo?$AAd?$AAe?$AA?5?$AA?$DN?$AA?5?$AA?$CF?$AAd?$AA?6?$AA?$AA@ 5f736aa8     daocore.obj
 0002:00003ad0       ??_7CDaoWorkspace@@6B@     5f736ad0     daocore.obj
 0002:00003af8       ??_C@_0IA@IMA@pDaoState?9?$DOm_pDAODBEngine?9?$DO_30_C@ 5f736af8     daocore.obj
 0002:00003b78       ??_C@_0CI@OLEJ@pDAOWorkspaces?9?$DOAppend?$CIm_pDAOWor@ 5f736b78     daocore.obj
 0002:00003ba0       ??_C@_0DL@KMOM@pDaoState?9?$DOm_pDAODBEngine?9?$DOget_W@ 5f736ba0     daocore.obj
 0002:00003bdc       ??_C@_0DC@BHKN@m_pDAOWorkspaces?9?$DOget_Item?$CIvar?0?5@ 5f736bdc     daocore.obj
 0002:00003c10       ??_C@_0DO@NCLP@pDaoState?9?$DOm_pDAODBEngine?9?$DOget_W@ 5f736c10     daocore.obj
 0002:00003c50       ??_C@_0BJ@BAIF@m_pDAOWorkspace?9?$DOClose?$CI?$CJ?$AA@ 5f736c50     daocore.obj
 0002:00003c6c       ??_C@_0DG@EKI@pDaoState?9?$DOm_pDAODBEngine?9?$DOget_V@ 5f736c6c     daocore.obj
 0002:00003ca4       ??_C@_0DG@POMJ@pDaoState?9?$DOm_pDAODBEngine?9?$DOget_I@ 5f736ca4     daocore.obj
 0002:00003cdc       ??_C@_0DF@FAOI@pDaoState?9?$DOm_pDAODBEngine?9?$DOput_I@ 5f736cdc     daocore.obj
 0002:00003d14       ??_C@_0DJ@GIII@pDaoState?9?$DOm_pDAODBEngine?9?$DOput_D@ 5f736d14     daocore.obj
 0002:00003d50       ??_C@_0DO@ONCK@pDaoState?9?$DOm_pDAODBEngine?9?$DOput_D@ 5f736d50     daocore.obj
 0002:00003d90       ??_C@_0DH@FIK@pDaoState?9?$DOm_pDAODBEngine?9?$DOget_L@ 5f736d90     daocore.obj
 0002:00003dc8       ??_C@_0DG@FCKN@pDaoState?9?$DOm_pDAODBEngine?9?$DOput_L@ 5f736dc8     daocore.obj
 0002:00003e00       ??_C@_0CJ@PIID@m_pDAOWorkspace?9?$DOget_Name?$CI?$CGV_BST@ 5f736e00     daocore.obj
 0002:00003e2c       ??_C@_0CN@LNMJ@m_pDAOWorkspace?9?$DOget_UserName?$CI?$CGV@ 5f736e2c     daocore.obj
 0002:00003e5c       ??_C@_0GC@MAIK@m_pDAOWorkspace?9?$DOput_IsolateODBC@ 5f736e5c     daocore.obj
 0002:00003ec0       ??_C@_0DK@BNMM@m_pDAOWorkspace?9?$DOget_IsolateODBC@ 5f736ec0     daocore.obj
 0002:00003efc       ??_C@_0PC@HCAP@pDaoState?9?$DOm_pDAODBEngine?9?$DOCompa@ 5f736efc     daocore.obj
 0002:00003ff0       ??_C@_0DN@CKIJ@pDaoState?9?$DOm_pDAODBEngine?9?$DORepai@ 5f736ff0     daocore.obj
 0002:00004030       ??_C@_0DN@BCJE@pDaoState?9?$DOm_pDAODBEngine?9?$DOIdle?$CI@ 5f737030     daocore.obj
 0002:00004070       ??_C@_0CG@MKCN@m_pDAOWorkspaces?9?$DOget_Count?$CI?$CGnFi@ 5f737070     daocore.obj
 0002:00004098       ??_C@_0EH@MIPG@m_pDAOWorkspaces?9?$DOget_Item?$CI?5COle@ 5f737098     daocore.obj
 0002:000040e0       ??_C@_0EN@CDCO@m_pDAOWorkspaces?9?$DOget_Item?$CI?5COle@ 5f7370e0     daocore.obj
 0002:00004130       ??_C@_0CF@NKKO@m_pDAODatabases?9?$DOget_Count?$CI?$CGnFie@ 5f737130     daocore.obj
 0002:00004158       ??_C@_0EF@MAIH@m_pDAODatabases?9?$DOget_Item?$CI?5COleV@ 5f737158     daocore.obj
 0002:000041a0       ??_C@_0EL@BNEE@m_pDAODatabases?9?$DOget_Item?$CI?5COleV@ 5f7371a0     daocore.obj
 0002:000041ec       ??_C@_0BO@IBKO@m_pDAOWorkspace?9?$DOBeginTrans?$CI?$CJ?$AA@ 5f7371ec     daocore.obj
 0002:0000420c       ??_C@_0BO@ONLB@?$CIm_pDAOWorkspace?9?$DO?$CKpMethod?$CJ?$CI?$CJ?$AA@ 5f73720c     daocore.obj
 0002:0000422c       ??_C@_0CA@PBAE@m_pDAOWorkspace?9?$DOCommitTrans?$CI0?$CJ?$AA@ 5f73722c     daocore.obj
 0002:0000424c       ??_C@_0BM@BBEN@m_pDAOWorkspace?9?$DORollback?$CI?$CJ?$AA@ 5f73724c     daocore.obj
 0002:00004268       ??_C@_0CM@PHDL@pDAOWorkspace?9?$DOget_IsolateODBCTr@ 5f737268     daocore.obj
 0002:00004294       ??_C@_0CL@LFDC@pDAOWorkspace?9?$DOget_UserName?$CI?$CGV_B@ 5f737294     daocore.obj
 0002:000042c0       ??_C@_0CH@NIA@pDAOWorkspace?9?$DOget_Name?$CI?$CGV_BSTR?$CI@ 5f7372c0     daocore.obj
 0002:000042e8       ??_C@_0DB@FMO@m_pDAOWorkspace?9?$DOget_Databases?$CI?$CG@ 5f7372e8     daocore.obj
 0002:0000431c       ??_C@_0CK@GLDA@pDAODatabase?9?$DOget_Connect?$CI?5?$CGV_BS@ 5f73731c     daocore.obj
 0002:00004348       ??_C@_0DJ@LMDF@pDAODatabase?9?$DOget_QueryTimeout?$CI?5@ 5f737348     daocore.obj
 0002:00004384       ??_C@_0DN@CAFO@pDAODatabase?9?$DOget_CollatingOrder@ 5f737384     daocore.obj
 0002:000043c4       ??_C@_0CK@LGL@pDAODatabase?9?$DOget_Version?$CI?5?$CGV_BS@ 5f7373c4     daocore.obj
 0002:000043f0       ??_C@_0CH@GLGK@pDAODatabase?9?$DOget_Transactions?$CI?$CG@ 5f7373f0     daocore.obj
 0002:00004418       ??_C@_0CE@GDMB@pDAODatabase?9?$DOget_Updatable?$CI?$CGnBo@ 5f737418     daocore.obj
 0002:0000443c       ??_C@_0CG@GEI@pDAODatabase?9?$DOget_Name?$CI?$CGV_BSTR?$CI?$CG@ 5f73743c     daocore.obj
 0002:00004464       ??_C@_0O@KPOJ@?6m_nStatus?5?$DN?5?$AA@ 5f737464     daocore.obj
 0002:00004474       ??_C@_0L@OLPD@?6m_bNew?5?$DN?5?$AA@ 5f737474     daocore.obj
 0002:00004480       ??_C@_0L@FNFF@m_bOpen?5?$DN?5?$AA@ 5f737480     daocore.obj
 0002:00004490       ??_7CDaoDatabase@@6B@      5f737490     daocore.obj
 0002:000044b4       ??_C@_0IC@FKK@m_pWorkspace?9?$DOm_pDAOWorkspace?9?$DOC@ 5f7374b4     daocore.obj
 0002:00004538       ??_C@_0LP@CIKN@m_pWorkspace?9?$DOm_pDAOWorkspace?9?$DOO@ 5f737538     daocore.obj
 0002:000045f8       ??_C@_0BI@NBCE@m_pDAODatabase?9?$DOClose?$CI?$CJ?$AA@ 5f7375f8     daocore.obj
 0002:00004610       ??_C@_0CL@ELFI@m_pDAODatabase?9?$DOget_Updatable?$CI?$CGn@ 5f737610     daocore.obj
 0002:0000463c       ??_C@_0DB@POJO@m_pDAODatabase?9?$DOget_Transactions@ 5f73763c     daocore.obj
 0002:00004670       ??_C@_0CI@FCO@m_pDAODatabase?9?$DOget_Name?$CI?$CGV_BSTR@ 5f737670     daocore.obj
 0002:00004698       ??_C@_0CL@OIPD@m_pDAODatabase?9?$DOget_Connect?$CI?$CGV_B@ 5f737698     daocore.obj
 0002:000046c4       ??_C@_0CL@LDKH@m_pDAODatabase?9?$DOget_Version?$CI?$CGV_B@ 5f7376c4     daocore.obj
 0002:000046f0       ??_C@_0DB@NKM@m_pDAODatabase?9?$DOget_QueryTimeout@ 5f7376f0     daocore.obj
 0002:00004724       ??_C@_0CL@CMOO@m_pDAODatabase?9?$DOput_QueryTimeout@ 5f737724     daocore.obj
 0002:00004750       ??_C@_0DH@EED@m_pDAODatabase?9?$DOget_RecordsAffec@ 5f737750     daocore.obj
 0002:00004788       ??_C@_0CG@DPNF@m_pDAOTableDefs?9?$DODelete?$CIV_BSTR?$CI?$CG@ 5f737788     daocore.obj
 0002:000047b0       ??_C@_0CG@PEFD@m_pDAOQueryDefs?9?$DODelete?$CIV_BSTR?$CI?$CG@ 5f7377b0     daocore.obj
 0002:000047dc       ??_7CDaoRelationFieldInfo@@6B@ 5f7377dc     daocore.obj
 0002:000047e0       ??_C@_0CG@KOHE@m_pDAORelations?9?$DOAppend?$CIpDAORela@ 5f7377e0     daocore.obj
 0002:00004808       ??_C@_0BO@PKCL@pDAOFields?9?$DOAppend?$CIpDAOField?$CJ?$AA@ 5f737808     daocore.obj
 0002:00004828       ??_C@_0CJ@GPBE@pDAOField?9?$DOput_ForeignName?$CIV_BST@ 5f737828     daocore.obj
 0002:00004854       ??_C@_0JB@FHMF@pDAORelation?9?$DOCreateField?$CI?5COleV@ 5f737854     daocore.obj
 0002:000048e8       ??_C@_0CG@INKG@pDAORelation?9?$DOget_Fields?$CI?$CGpDAOFi@ 5f7378e8     daocore.obj
 0002:00004910       ??_C@_0NK@LJKP@m_pDAODatabase?9?$DOCreateRelation?$CI?5@ 5f737910     daocore.obj
 0002:000049ec       ??_C@_0CG@BJFH@m_pDAORelations?9?$DODelete?$CIV_BSTR?$CI?$CG@ 5f7379ec     daocore.obj
 0002:00004a14       ??_C@_0EE@KEMK@m_pDAODatabase?9?$DOExecute?$CI?5V_BSTR?$CI@ 5f737a14     daocore.obj
 0002:00004a58       ??_C@_0CF@JLMN@m_pDAOTableDefs?9?$DOget_Count?$CI?$CGnTab@ 5f737a58     daocore.obj
 0002:00004a80       ??_C@_0EF@FBLA@m_pDAOTableDefs?9?$DOget_Item?$CI?5COleV@ 5f737a80     daocore.obj
 0002:00004ac8       ??_C@_0EL@KPGC@m_pDAOTableDefs?9?$DOget_Item?$CI?5COleV@ 5f737ac8     daocore.obj
 0002:00004b14       ??_C@_0CI@LDJE@m_pDAORelations?9?$DOget_Count?$CI?$CGnRel@ 5f737b14     daocore.obj
 0002:00004b3c       ??_C@_0EF@IIIA@m_pDAORelations?9?$DOget_Item?$CI?5COleV@ 5f737b3c     daocore.obj
 0002:00004b84       ??_C@_0EL@IHJB@m_pDAORelations?9?$DOget_Item?$CI?5COleV@ 5f737b84     daocore.obj
 0002:00004bd0       ??_C@_0CI@MEAB@m_pDAOQueryDefs?9?$DOget_Count?$CI?$CGnQue@ 5f737bd0     daocore.obj
 0002:00004bf8       ??_C@_0EF@NBOE@m_pDAOQueryDefs?9?$DOget_Item?$CI?5COleV@ 5f737bf8     daocore.obj
 0002:00004c40       ??_C@_0EL@IINM@m_pDAOQueryDefs?9?$DOget_Item?$CI?5COleV@ 5f737c40     daocore.obj
 0002:00004c8c       ??_C@_0DA@GLPP@m_pDAODatabase?9?$DOget_TableDefs?$CI?$CGm@ 5f737c8c     daocore.obj
 0002:00004cbc       ??_C@_0DN@PBMP@pDAOTableDef?9?$DOget_RecordCount?$CI?5?$CG@ 5f737cbc     daocore.obj
 0002:00004cfc       ??_C@_0DB@KOFA@pDAOTableDef?9?$DOget_ValidationText@ 5f737cfc     daocore.obj
 0002:00004d30       ??_C@_0DB@HJKE@pDAOTableDef?9?$DOget_ValidationRule@ 5f737d30     daocore.obj
 0002:00004d64       ??_C@_0CK@LEHN@pDAOTableDef?9?$DOget_Connect?$CI?5?$CGV_BS@ 5f737d64     daocore.obj
 0002:00004d90       ??_C@_0DC@BFFJ@pDAOTableDef?9?$DOget_SourceTableNam@ 5f737d90     daocore.obj
 0002:00004dc4       ??_C@_0CE@FNDA@pDAOTableDef?9?$DOget_LastUpdated?$CI?$CGv@ 5f737dc4     daocore.obj
 0002:00004de8       ??_C@_0CE@NEPA@pDAOTableDef?9?$DOget_DateCreated?$CI?$CGv@ 5f737de8     daocore.obj
 0002:00004e0c       ??_C@_0DL@DLNJ@pDAOTableDef?9?$DOget_Attributes?$CI?5?$CGt@ 5f737e0c     daocore.obj
 0002:00004e48       ??_C@_0CE@GAKL@pDAOTableDef?9?$DOget_Updatable?$CI?$CGnBo@ 5f737e48     daocore.obj
 0002:00004e6c       ??_C@_0CG@GGLM@pDAOTableDef?9?$DOget_Name?$CI?$CGV_BSTR?$CI?$CG@ 5f737e6c     daocore.obj
 0002:00004e94       ??_C@_0DA@JLIC@m_pDAODatabase?9?$DOget_Relations?$CI?$CGm@ 5f737e94     daocore.obj
 0002:00004ec4       ??_C@_0CK@LAFA@pDAOField?9?$DOget_ForeignName?$CI?$CGV_BS@ 5f737ec4     daocore.obj
 0002:00004ef0       ??_C@_0CD@BJOA@pDAOField?9?$DOget_Name?$CI?$CGV_BSTR?$CI?$CGvar@ 5f737ef0     daocore.obj
 0002:00004f14       ??_C@_0DN@MJFF@pDAOFields?9?$DOget_Item?$CI?5COleVarian@ 5f737f14     daocore.obj
 0002:00004f54       ??_C@_0BP@FFPK@pDAOFields?9?$DOget_Count?$CI?$CGnCount?$CJ?$AA@ 5f737f54     daocore.obj
 0002:00004f74       ??_C@_0DG@DMNE@pDAORelation?9?$DOget_Attributes?$CI?5?$CGr@ 5f737f74     daocore.obj
 0002:00004fac       ??_C@_0CP@PIMH@pDAORelation?9?$DOget_ForeignTable?$CI?5@ 5f737fac     daocore.obj
 0002:00004fdc       ??_C@_0CH@LDAN@pDAORelation?9?$DOget_Table?$CI?$CGV_BSTR?$CI@ 5f737fdc     daocore.obj
 0002:00005004       ??_C@_0CG@NDBG@pDAORelation?9?$DOget_Name?$CI?$CGV_BSTR?$CI?$CG@ 5f738004     daocore.obj
 0002:0000502c       ??_C@_0DA@BPAN@m_pDAODatabase?9?$DOget_QueryDefs?$CI?$CGm@ 5f73802c     daocore.obj
 0002:0000505c       ??_C@_0DE@DPOF@pDAOQueryDef?9?$DOget_Connect?$CI?$CGV_BST@ 5f73805c     daocore.obj
 0002:00005090       ??_C@_0CF@HFEL@pDAOQueryDef?9?$DOget_SQL?$CI?$CGV_BSTR?$CI?$CGv@ 5f738090     daocore.obj
 0002:000050b8       ??_C@_0CJ@KFGF@pDAOQueryDef?9?$DOget_ReturnsRecords@ 5f7380b8     daocore.obj
 0002:000050e4       ??_C@_0CE@JGLG@pDAOQueryDef?9?$DOget_LastUpdated?$CI?$CGv@ 5f7380e4     daocore.obj
 0002:00005108       ??_C@_0CE@BPHG@pDAOQueryDef?9?$DOget_DateCreated?$CI?$CGv@ 5f738108     daocore.obj
 0002:0000512c       ??_C@_0CE@KLCN@pDAOQueryDef?9?$DOget_Updatable?$CI?$CGnBo@ 5f73812c     daocore.obj
 0002:00005150       ??_C@_0CO@FAJF@pDAOQueryDef?9?$DOget_Type?$CI?$CGquerydef@ 5f738150     daocore.obj
 0002:00005180       ??_C@_0CG@DIGJ@pDAOQueryDef?9?$DOget_Name?$CI?$CGV_BSTR?$CI?$CG@ 5f738180     daocore.obj
 0002:000051ac       ??_7CDaoTableDef@@6B@      5f7381ac     daocore.obj
 0002:000051d4       ??_C@_0MC@IBMF@m_pDatabase?9?$DOm_pDAODatabase?9?$DOCre@ 5f7381d4     daocore.obj
 0002:00005298       ??_C@_0CG@KMEO@pDAOTableDefs?9?$DOAppend?$CIm_pDAOTabl@ 5f738298     daocore.obj
 0002:000052c0       ??_C@_0DM@GNOH@m_pDatabase?9?$DOm_pDAODatabase?9?$DOget@ 5f7382c0     daocore.obj
 0002:000052fc       ??_C@_0EK@DHEO@pDAOTableDefs?9?$DOget_Item?$CI?5COleVar@ 5f7382fc     daocore.obj
 0002:00005348       ??_C@_0CL@GMF@m_pDAOTableDef?9?$DOget_Updatable?$CI?$CGn@ 5f738348     daocore.obj
 0002:00005374       ??_C@_0CH@LFFO@m_pDAOTableDef?9?$DOput_Name?$CIV_BSTR?$CI@ 5f738374     daocore.obj
 0002:0000539c       ??_C@_0CI@GFNK@m_pDAOTableDef?9?$DOget_Name?$CI?$CGV_BSTR@ 5f73839c     daocore.obj
 0002:000053c4       ??_C@_0DD@FHOC@m_pDAOTableDef?9?$DOput_SourceTableN@ 5f7383c4     daocore.obj
 0002:000053f8       ??_C@_0DE@CBJH@m_pDAOTableDef?9?$DOget_SourceTableN@ 5f7383f8     daocore.obj
 0002:0000542c       ??_C@_0CK@PHKK@m_pDAOTableDef?9?$DOput_Connect?$CIV_BS@ 5f73842c     daocore.obj
 0002:00005458       ??_C@_0CL@KFGO@m_pDAOTableDef?9?$DOget_Connect?$CI?$CGV_B@ 5f738458     daocore.obj
 0002:00005484       ??_C@_0CM@DGAH@m_pDAOTableDef?9?$DOput_Attributes?$CIl@ 5f738484     daocore.obj
 0002:000054b0       ??_C@_0CN@EPFM@m_pDAOTableDef?9?$DOget_Attributes?$CI?$CG@ 5f7384b0     daocore.obj
 0002:000054e0       ??_C@_0CK@CKHH@m_pDAOTableDef?9?$DOget_DateCreated?$CI@ 5f7384e0     daocore.obj
 0002:0000550c       ??_C@_0CK@ODEK@m_pDAOTableDef?9?$DOget_LastUpdated?$CI@ 5f73850c     daocore.obj
 0002:00005538       ??_C@_0DC@EKFC@m_pDAOTableDef?9?$DOput_ValidationRu@ 5f738538     daocore.obj
 0002:0000556c       ??_C@_0DD@LHDC@m_pDAOTableDef?9?$DOget_ValidationRu@ 5f73856c     daocore.obj
 0002:000055a0       ??_C@_0DC@LOBP@m_pDAOTableDef?9?$DOput_ValidationTe@ 5f7385a0     daocore.obj
 0002:000055d4       ??_C@_0DD@GAMG@m_pDAOTableDef?9?$DOget_ValidationTe@ 5f7385d4     daocore.obj
 0002:00005608       ??_C@_0CP@NCFA@m_pDAOTableDef?9?$DOget_RecordCount?$CI@ 5f738608     daocore.obj
 0002:0000563c       ??_7CDaoFieldInfo@@6B@     5f73863c     daocore.obj
 0002:00005640       ??_C@_0CA@KBPE@m_pDAOFields?9?$DOAppend?$CIpDAOField?$CJ?$AA@ 5f738640     daocore.obj
 0002:00005660       ??_C@_0JF@NDIH@m_pDAOTableDef?9?$DOCreateField?$CI?5COl@ 5f738660     daocore.obj
 0002:000056f8       ??_C@_0CD@MPAH@m_pDAOFields?9?$DODelete?$CIV_BSTR?$CI?$CGvar@ 5f7386f8     daocore.obj
 0002:0000571c       ??_C@_0CB@GDE@m_pDAOIndexes?9?$DOAppend?$CIpDAOIndex?$CJ@ 5f73871c     daocore.obj
 0002:00005740       ??_C@_0FF@LAGC@m_pDAOTableDef?9?$DOCreateIndex?$CI?5COl@ 5f738740     daocore.obj
 0002:00005798       ??_C@_0CE@GGDB@m_pDAOIndexes?9?$DODelete?$CIV_BSTR?$CI?$CGva@ 5f738798     daocore.obj
 0002:000057bc       ??_C@_0CC@GCCM@m_pDAOFields?9?$DOget_Count?$CI?$CGnFields@ 5f7387bc     daocore.obj
 0002:000057e0       ??_C@_0DP@FPAO@m_pDAOFields?9?$DOget_Item?$CI?5COleVari@ 5f7387e0     daocore.obj
 0002:00005820       ??_C@_0EF@MHNO@m_pDAOFields?9?$DOget_Item?$CI?5COleVari@ 5f738820     daocore.obj
 0002:00005868       ??_C@_0CE@LMII@m_pDAOIndexes?9?$DOget_Count?$CI?$CGnIndex@ 5f738868     daocore.obj
 0002:0000588c       ??_C@_0EA@IAJA@m_pDAOIndexes?9?$DOget_Item?$CI?5COleVar@ 5f73888c     daocore.obj
 0002:000058cc       ??_C@_0EG@GOCN@m_pDAOIndexes?9?$DOget_Item?$CI?5COleVar@ 5f7388cc     daocore.obj
 0002:00005914       ??_C@_0BO@KAIF@m_pDAOTableDef?9?$DORefreshLink?$CI?$CJ?$AA@ 5f738914     daocore.obj
 0002:00005934       ??_C@_0CK@MDGM@m_pDAOTableDef?9?$DOget_Fields?$CI?$CGm_pD@ 5f738934     daocore.obj
 0002:00005960       ??_C@_0CM@GLNB@m_pDAOTableDef?9?$DOget_Indexes?$CI?$CGm_p@ 5f738960     daocore.obj
 0002:00005990       ??_7CDaoQueryDef@@6B@      5f738990     daocore.obj
 0002:000059cc       ??_C@_0GI@HNGJ@m_pDatabase?9?$DOm_pDAODatabase?9?$DOCre@ 5f7389cc     daocore.obj
 0002:00005a34       ??_C@_0HN@FLN@m_pDatabase?9?$DOm_pDAODatabase?9?$DOCre@ 5f738a34     daocore.obj
 0002:00005ab4       ??_C@_0CG@FLGB@pDAOQueryDefs?9?$DOAppend?$CIm_pDAOQuer@ 5f738ab4     daocore.obj
 0002:00005adc       ??_C@_0DM@IIMB@m_pDatabase?9?$DOm_pDAODatabase?9?$DOget@ 5f738adc     daocore.obj
 0002:00005b18       ??_C@_0EO@KMBN@m_pDatabase?9?$DOm_pDAODatabase?9?$DOOpe@ 5f738b18     daocore.obj
 0002:00005b68       ??_C@_0HC@LEBM@m_pDatabase?9?$DOm_pDAODatabase?9?$DOCre@ 5f738b68     daocore.obj
 0002:00005bdc       ??_C@_0BI@GPHC@m_pDAOQueryDef?9?$DOClose?$CI?$CJ?$AA@ 5f738bdc     daocore.obj
 0002:00005bf4       ??_C@_0CL@HEGE@m_pDAOQueryDef?9?$DOget_Updatable?$CI?$CGn@ 5f738bf4     daocore.obj
 0002:00005c20       ??_C@_0CI@DLAP@m_pDAOQueryDef?9?$DOget_Name?$CI?$CGV_BSTR@ 5f738c20     daocore.obj
 0002:00005c48       ??_C@_0CH@GAJF@m_pDAOQueryDef?9?$DOput_Name?$CIV_BSTR?$CI@ 5f738c48     daocore.obj
 0002:00005c70       ??_C@_0CH@BDHB@m_pDAOQueryDef?9?$DOget_SQL?$CI?$CGV_BSTR?$CI@ 5f738c70     daocore.obj
 0002:00005c98       ??_C@_0CG@HMBA@m_pDAOQueryDef?9?$DOput_SQL?$CIV_BSTR?$CI?$CG@ 5f738c98     daocore.obj
 0002:00005cc0       ??_C@_0CB@IFD@m_pDAOQueryDef?9?$DOget_Type?$CI?$CGnType?$CJ@ 5f738cc0     daocore.obj
 0002:00005ce4       ??_C@_0CK@ILJJ@m_pDAOQueryDef?9?$DOget_DateCreated?$CI@ 5f738ce4     daocore.obj
 0002:00005d10       ??_C@_0CK@ECKE@m_pDAOQueryDef?9?$DOget_LastUpdated?$CI@ 5f738d10     daocore.obj
 0002:00005d3c       ??_C@_0CL@NHMP@m_pDAOQueryDef?9?$DOget_Connect?$CI?$CGV_B@ 5f738d3c     daocore.obj
 0002:00005d68       ??_C@_0CK@FGEE@m_pDAOQueryDef?9?$DOput_Connect?$CIV_BS@ 5f738d68     daocore.obj
 0002:00005d94       ??_C@_0CL@ODLC@m_pDAOQueryDef?9?$DOget_ODBCTimeout?$CI@ 5f738d94     daocore.obj
 0002:00005dc0       ??_C@_0CO@EFO@m_pDAOQueryDef?9?$DOput_ODBCTimeout?$CI@ 5f738dc0     daocore.obj
 0002:00005df0       ??_C@_0DF@JBJO@m_pDAOQueryDef?9?$DOget_ReturnsRecor@ 5f738df0     daocore.obj
 0002:00005e28       ??_C@_0FN@IFJL@m_pDAOQueryDef?9?$DOput_ReturnsRecor@ 5f738e28     daocore.obj
 0002:00005e88       ??_C@_0DH@IBAL@m_pDAOQueryDef?9?$DOget_RecordsAffec@ 5f738e88     daocore.obj
 0002:00005ec0       ??_C@_0DF@FIBD@m_pDAOQueryDef?9?$DOExecute?$CICOleVari@ 5f738ec0     daocore.obj
 0002:00005ef8       ??_C@_0BP@JAF@pDAOParameter?9?$DOget_Value?$CI?$CGvar?$CJ?$AA@ 5f738ef8     daocore.obj
 0002:00005f18       ??_C@_0EN@DKKA@m_pDAOParameters?9?$DOget_Item?$CI?5COle@ 5f738f18     daocore.obj
 0002:00005f68       ??_C@_0EH@EAEJ@m_pDAOParameters?9?$DOget_Item?$CI?5COle@ 5f738f68     daocore.obj
 0002:00005fb0       ??_C@_0CD@KIO@pDAOParameter?9?$DOput_Value?$CIvarValu@ 5f738fb0     daocore.obj
 0002:00005fd4       ??_C@_0CK@MAHP@m_pDAOParameters?9?$DOget_Count?$CI?$CGnPa@ 5f738fd4     daocore.obj
 0002:00006000       ??_C@_0CK@GCIC@m_pDAOQueryDef?9?$DOget_Fields?$CI?$CGm_pD@ 5f739000     daocore.obj
 0002:0000602c       ??_C@_0DC@LDGL@m_pDAOQueryDef?9?$DOget_Parameters?$CI?$CG@ 5f73902c     daocore.obj
 0002:00006060       ??_C@_0DB@JEPD@pDAOParameter?9?$DOget_Value?$CI?5?$CGparam@ 5f739060     daocore.obj
 0002:00006094       ??_C@_0CN@IAMG@pDAOParameter?9?$DOget_Type?$CI?5?$CGparami@ 5f739094     daocore.obj
 0002:000060c4       ??_C@_0CH@MNLB@pDAOParameter?9?$DOget_Name?$CI?$CGV_BSTR?$CI@ 5f7390c4     daocore.obj
 0002:000060f0       ??_7CDaoRecordset@@6B@     5f7390f0     daocore.obj
 0002:00006170       ??_C@_0IB@OLCO@m_pQueryDef?9?$DOm_pDAOQueryDef?9?$DO_30@ 5f739170     daocore.obj
 0002:000061f4       ??_C@_0HN@DBDN@m_pTableDef?9?$DOm_pDAOTableDef?9?$DOOpe@ 5f7391f4     daocore.obj
 0002:00006274       ??_C@_0BJ@NGAG@m_pDAORecordset?9?$DOClose?$CI?$CJ?$AA@ 5f739274     daocore.obj
 0002:00006290       ??_C@_0CO@ENEN@m_pDAORecordset?9?$DORequery?$CI_afxOpt@ 5f739290     daocore.obj
 0002:000062c0       ??_C@_0CC@EHJO@m_pDAORecordset?9?$DORequery?$CIvarDisp@ 5f7392c0     daocore.obj
 0002:000062e4       ??_C@_0CA@OPCI@m_pDAORecordset?9?$DOget_BOF?$CI?$CGnBOF?$CJ?$AA@ 5f7392e4     daocore.obj
 0002:00006304       ??_C@_0CA@LKNJ@m_pDAORecordset?9?$DOget_EOF?$CI?$CGnEOF?$CJ?$AA@ 5f739304     daocore.obj
 0002:00006324       ??_C@_0CM@BOKG@m_pDAORecordset?9?$DOget_Updatable?$CI?$CG@ 5f739324     daocore.obj
 0002:00006350       ??_C@_0DA@PJGA@m_pDAORecordset?9?$DOget_Restartable@ 5f739350     daocore.obj
 0002:00006380       ??_C@_0DC@DHEI@m_pDAORecordset?9?$DOget_Transaction@ 5f739380     daocore.obj
 0002:000063b4       ??_C@_0DC@BDFH@m_pDAORecordset?9?$DOget_Bookmarkabl@ 5f7393b4     daocore.obj
 0002:000063e8       ??_C@_0CJ@DDPM@m_pDAORecordset?9?$DOget_Name?$CI?$CGV_BST@ 5f7393e8     daocore.obj
 0002:00006414       ??_C@_0CC@NAA@m_pDAORecordset?9?$DOget_Type?$CI?$CGnType@ 5f739414     daocore.obj
 0002:00006438       ??_C@_0CK@OCGL@m_pDAORecordset?9?$DOget_EditMode?$CI?$CGn@ 5f739438     daocore.obj
 0002:00006464       ??_C@_0CL@EJNE@m_pDAORecordset?9?$DOget_DateCreated@ 5f739464     daocore.obj
 0002:00006490       ??_C@_0CL@IAOJ@m_pDAORecordset?9?$DOget_LastUpdated@ 5f739490     daocore.obj
 0002:000064bc       ??_C@_0CP@EDLK@m_pDAORecordset?9?$DOget_LastModifie@ 5f7394bc     daocore.obj
 0002:000064ec       ??_C@_0DD@KGH@m_pDAORecordset?9?$DOget_ValidationR@ 5f7394ec     daocore.obj
 0002:00006520       ??_C@_0DD@POCK@m_pDAORecordset?9?$DOget_ValidationT@ 5f739520     daocore.obj
 0002:00006554       ??_C@_0CK@NNM@m_pDAORecordset?9?$DOget_Index?$CI?$CGV_BS@ 5f739554     daocore.obj
 0002:00006580       ??_C@_0CJ@CEAC@m_pDAORecordset?9?$DOput_Index?$CIV_BST@ 5f739580     daocore.obj
 0002:000065ac       ??_C@_0DA@CFBI@m_pDAORecordset?9?$DOget_RecordCount@ 5f7395ac     daocore.obj
 0002:000065dc       ??_C@_0CL@BMFG@m_pDAORecordset?9?$DOget_Bookmark?$CI?$CGv@ 5f7395dc     daocore.obj
 0002:00006608       ??_C@_0DD@MOL@m_pDAORecordset?9?$DOput_Bookmark?$CI?$CGv@ 5f739608     daocore.obj
 0002:0000663c       ??_C@_0DC@GDMD@m_pDAORecordset?9?$DOget_AbsolutePos@ 5f73963c     daocore.obj
 0002:00006670       ??_C@_0DB@GLNO@m_pDAORecordset?9?$DOput_AbsolutePos@ 5f739670     daocore.obj
 0002:000066a4       ??_C@_0DB@LIAP@m_pDAORecordset?9?$DOget_PercentPosi@ 5f7396a4     daocore.obj
 0002:000066d8       ??_C@_0DA@MHMB@m_pDAORecordset?9?$DOput_PercentPosi@ 5f7396d8     daocore.obj
 0002:00006708       ??_C@_0CM@OLNL@m_pDAORecordset?9?$DOMove?$CIlRows?0?5COl@ 5f739708     daocore.obj
 0002:00006734       ??_C@_0CA@IGPM@m_pDAORecordset?9?$DO_30_MoveLast?$CI?$CJ?$AA@ 5f739734     daocore.obj
 0002:00006754       ??_C@_0BN@OKBK@m_pDAORecordset?9?$DOMoveFirst?$CI?$CJ?$AA@ 5f739754     daocore.obj
 0002:00006774       ??_C@_0CA@PGPJ@m_pDAORecordset?9?$DOMovePrevious?$CI?$CJ?$AA@ 5f739774     daocore.obj
 0002:00006794       ??_C@_0BM@KCOP@m_pDAORecordset?9?$DOMoveNext?$CI?$CJ?$AA@ 5f739794     daocore.obj
 0002:000067b0       ??_C@_0CI@BDFN@m_pDAORecordset?9?$DOFindLast?$CIV_BSTR@ 5f7397b0     daocore.obj
 0002:000067d8       ??_C@_0CJ@NOGD@m_pDAORecordset?9?$DOFindFirst?$CIV_BST@ 5f7397d8     daocore.obj
 0002:00006804       ??_C@_0CM@CFIG@m_pDAORecordset?9?$DOFindPrevious?$CIV_@ 5f739804     daocore.obj
 0002:00006830       ??_C@_0CI@IEGA@m_pDAORecordset?9?$DOFindNext?$CIV_BSTR@ 5f739830     daocore.obj
 0002:00006858       ??_C@_0BKF@GBHJ@m_pDAORecordset?9?$DOSeek?$CIV_BSTR?$CI?$CGva@ 5f739858     daocore.obj
 0002:00006a00       ??_C@_0PE@MNIL@m_pDAORecordset?9?$DOSeek?$CIV_BSTR?$CI?$CGva@ 5f739a00     daocore.obj
 0002:00006af4       ??_C@_0CE@GKGD@m_pDAORecordset?9?$DO_30_CancelUpdat@ 5f739af4     daocore.obj
 0002:00006b18       ??_C@_0FG@JILN@m_pDAORecordset?9?$DOput_LockEdits?$CI?5@ 5f739b18     daocore.obj
 0002:00006b70       ??_C@_0CM@FJGM@m_pDAORecordset?9?$DOget_LockEdits?$CI?$CG@ 5f739b70     daocore.obj
 0002:00006b9c       ??_C@_0DF@NEPL@m_pDAORecordset?9?$DOput_CacheStart?$CI@ 5f739b9c     daocore.obj
 0002:00006bd4       ??_C@_0CN@BBCI@m_pDAORecordset?9?$DOget_CacheStart?$CI@ 5f739bd4     daocore.obj
 0002:00006c04       ??_C@_0CG@GPJG@m_pDAORecordset?9?$DOput_CacheSize?$CIl@ 5f739c04     daocore.obj
 0002:00006c2c       ??_C@_0CH@FFJB@m_pDAORecordset?9?$DOget_CacheSize?$CI?$CG@ 5f739c2c     daocore.obj
 0002:00006c54       ??_C@_0JP@FOGE@m_pDAORecordset?9?$DOFillCache?$CI?5pSiz@ 5f739c54     daocore.obj
 0002:00006cf4       ??_C@_0BK@MEND@m_pDAORecordset?9?$DOAddNew?$CI?$CJ?$AA@ 5f739cf4     daocore.obj
 0002:00006d10       ??_C@_0BI@CNBL@m_pDAORecordset?9?$DOEdit?$CI?$CJ?$AA@ 5f739d10     daocore.obj
 0002:00006d28       ??_C@_0BO@JCIA@m_pDAORecordset?9?$DO_30_Update?$CI?$CJ?$AA@ 5f739d28     daocore.obj
 0002:00006d48       ??_C@_0BK@DPAI@m_pDAORecordset?9?$DODelete?$CI?$CJ?$AA@ 5f739d48     daocore.obj
 0002:00006d64       ??_C@_0EK@CMJC@m_pDAORecordset?9?$DOget_Collect?$CI?5CO@ 5f739d64     daocore.obj
 0002:00006db0       ??_C@_0EE@NBLG@m_pDAORecordset?9?$DOget_Collect?$CI?5CO@ 5f739db0     daocore.obj
 0002:00006df4       ??_C@_0EJ@FHEM@m_pDAORecordset?9?$DOput_Collect?$CI?5CO@ 5f739df4     daocore.obj
 0002:00006e40       ??_C@_0ED@ENAG@m_pDAORecordset?9?$DOput_Collect?$CI?5CO@ 5f739e40     daocore.obj
 0002:00006e84       ??_C@_0CL@KAMP@m_pDAORecordset?9?$DOget_Fields?$CI?$CGm_p@ 5f739e84     daocore.obj
 0002:00006eb0       ??_C@_0DJ@FHAD@m_pTableDef?9?$DOm_pDAOTableDef?9?$DOget@ 5f739eb0     daocore.obj
 0002:00006eec       ??_C@_13FDB@?$AA?$DL?$AA?$AA@ 5f739eec     daocore.obj
 0002:00006ef0       ??_C@_0FI@LEEG@m_pDAORecordset?9?$DOQueryInterface?$CI@ 5f739ef0     daocore.obj
 0002:00006f48       ??_C@_0CI@ILFL@m_pDAORecordset?9?$DOget_NoMatch?$CI?$CGnN@ 5f739f48     daocore.obj
 0002:00006f70       ??_C@_0CA@MLFB@?6m_bCheckCacheForDirtyFields?5?$DN?5?$AA@ 5f739f70     daocore.obj
 0002:00006f90       ??_C@_0BF@FEP@?6m_strRequerySort?5?$DN?5?$AA@ 5f739f90     daocore.obj
 0002:00006fa8       ??_C@_0BH@NPKA@?6m_strRequeryFilter?5?$DN?5?$AA@ 5f739fa8     daocore.obj
 0002:00006fc0       ??_C@_0BE@OAFC@?6m_strRequerySQL?5?$DN?5?$AA@ 5f739fc0     daocore.obj
 0002:00006fd4       ??_C@_0O@JOGM@?6m_strSort?5?$DN?5?$AA@ 5f739fd4     daocore.obj
 0002:00006fe4       ??_C@_0BA@ICBM@?6m_strFilter?5?$DN?5?$AA@ 5f739fe4     daocore.obj
 0002:00006ff4       ??_C@_0P@CAKJ@?6m_nOptions?5?$DN?5?$AA@ 5f739ff4     daocore.obj
 0002:00007004       ??_C@_0BD@FPPO@?6m_nDefaultType?5?$DN?5?$AA@ 5f73a004     daocore.obj
 0002:00007018       ??_C@_0BA@DPMC@?6m_nOpenType?5?$DN?5?$AA@ 5f73a018     daocore.obj
 0002:00007028       ??_C@_0M@NMDE@?6m_bOpen?5?$DN?5?$AA@ 5f73a028     daocore.obj
 0002:00007034       ??_C@_0CN@LODG@pDAOField?9?$DOget_ValidationText?$CI?$CGV@ 5f73a034     daocore.obj
 0002:00007064       ??_C@_0CN@EKHL@pDAOField?9?$DOget_ValidationRule?$CI?$CGV@ 5f73a064     daocore.obj
 0002:00007094       ??_C@_0CK@NMNF@pDAOField?9?$DOget_SourceTable?$CI?$CGV_BS@ 5f73a094     daocore.obj
 0002:000070c0       ??_C@_0CK@NMGJ@pDAOField?9?$DOget_SourceField?$CI?$CGV_BS@ 5f73a0c0     daocore.obj
 0002:000070ec       ??_C@_0DN@PLFL@pDAOField?9?$DOget_CollatingOrder?$CI?5?$CG@ 5f73a0ec     daocore.obj
 0002:0000712c       ??_C@_0CH@BDEE@pDAOField?9?$DOget_AllowZeroLength?$CI?$CG@ 5f73a12c     daocore.obj
 0002:00007154       ??_C@_0CA@GJNH@pDAOField?9?$DOget_Required?$CI?$CGnBool?$CJ?$AA@ 5f73a154     daocore.obj
 0002:00007174       ??_C@_0DP@GBEA@pDAOField?9?$DOget_OrdinalPosition?$CI?5@ 5f73a174     daocore.obj
 0002:000071b4       ??_C@_0DE@DLJC@pDAOField?9?$DOget_Attributes?$CI?$CGfield@ 5f73a1b4     daocore.obj
 0002:000071e8       ??_C@_0CI@DFJD@pDAOField?9?$DOget_Size?$CI?$CGfieldinfo?4m@ 5f73a1e8     daocore.obj
 0002:00007210       ??_C@_0CI@LPDA@pDAOField?9?$DOget_Type?$CI?$CGfieldinfo?4m@ 5f73a210     daocore.obj
 0002:00007238       ??_C@_0CM@OIHD@pDAOField?9?$DOput_ValidationText?$CIV_@ 5f73a238     daocore.obj
 0002:00007264       ??_C@_0CM@KFNC@pDAOField?9?$DOput_ValidationRule?$CIV_@ 5f73a264     daocore.obj
 0002:00007290       ??_C@_0CN@ECE@pDAOField?9?$DOput_AllowZeroLength?$CIA@ 5f73a290     daocore.obj
 0002:000072c0       ??_C@_0CG@NDE@pDAOField?9?$DOput_Required?$CIAFX_DAO_@ 5f73a2c0     daocore.obj
 0002:000072e8       ??_C@_0DO@LDPI@pDAOField?9?$DOput_OrdinalPosition?$CI?5@ 5f73a2e8     daocore.obj
 0002:00007328       ??_C@_0DD@KMNM@pDAOField?9?$DOput_Attributes?$CIfieldi@ 5f73a328     daocore.obj
 0002:0000735c       ??_C@_0CF@IAPF@?$CIpDAOField?9?$DO?$CKpMethod?$CJ?$CI?$CGV_BSTR?$CI?$CGv@ 5f73a35c     daocore.obj
 0002:00007384       ??_C@_0CC@GCFC@pDAOField?9?$DOget_DefaultValue?$CI?$CGvar@ 5f73a384     daocore.obj
 0002:000073a8       ??_C@_0CE@DCCL@?$CIpDAOField?9?$DO?$CKpMethod?$CJ?$CIV_BSTR?$CI?$CGva@ 5f73a3a8     daocore.obj
 0002:000073cc       ??_C@_0CB@DPPD@pDAOField?9?$DOput_DefaultValue?$CIvar?$CJ@ 5f73a3cc     daocore.obj
 0002:000073f0       ??_C@_0DL@MFON@pDAOIndex?9?$DOget_DistinctCount?$CI?5?$CGi@ 5f73a3f0     daocore.obj
 0002:0000742c       ??_C@_0BP@GBPC@pDAOIndex?9?$DOget_Foreign?$CI?$CGnBool?$CJ?$AA@ 5f73a42c     daocore.obj
 0002:0000744c       ??_C@_0CA@LEOO@pDAOIndex?9?$DOget_Required?$CI?$CGnBool?$CJ?$AA@ 5f73a44c     daocore.obj
 0002:0000746c       ??_C@_0CD@PNHL@pDAOIndex?9?$DOget_IgnoreNulls?$CI?$CGnBoo@ 5f73a46c     daocore.obj
 0002:00007490       ??_C@_0CB@MCH@pDAOIndex?9?$DOget_Clustered?$CI?$CGnBool?$CJ@ 5f73a490     daocore.obj
 0002:000074b4       ??_C@_0BO@HDBC@pDAOIndex?9?$DOget_Unique?$CI?$CGnBool?$CJ?$AA@ 5f73a4b4     daocore.obj
 0002:000074d4       ??_C@_0BP@JAAH@pDAOIndex?9?$DOget_Primary?$CI?$CGnBool?$CJ?$AA@ 5f73a4d4     daocore.obj
 0002:000074f4       ??_C@_0CD@MEGG@pDAOIndex?9?$DOget_Name?$CI?$CGV_BSTR?$CI?$CGvar@ 5f73a4f4     daocore.obj
 0002:00007518       ??_C@_0CG@NMKH@pDAOIndex?9?$DOput_Required?$CIAFX_DAO_@ 5f73a518     daocore.obj
 0002:00007540       ??_C@_0CJ@GEID@pDAOIndex?9?$DOput_IgnoreNulls?$CIAFX_D@ 5f73a540     daocore.obj
 0002:0000756c       ??_C@_0CH@PIFK@pDAOIndex?9?$DOput_Clustered?$CIAFX_DAO@ 5f73a56c     daocore.obj
 0002:00007594       ??_C@_0CE@PPGA@pDAOIndex?9?$DOput_Unique?$CIAFX_DAO_TR@ 5f73a594     daocore.obj
 0002:000075b8       ??_C@_0CF@ONFI@pDAOIndex?9?$DOput_Primary?$CIAFX_DAO_T@ 5f73a5b8     daocore.obj
 0002:000075e0       ??_C@_0EJ@HLNA@var?4pdispVal?9?$DOQueryInterface?$CI?5gu@ 5f73a5e0     daocore.obj
 0002:0000762c       ??_C@_0BM@FLME@pDAOIndex?9?$DOget_Fields?$CI?$CGvar?$CJ?$AA@ 5f73a62c     daocore.obj
 0002:00007648       ??_C@_0CI@GIHF@pDAOField?9?$DOget_Attributes?$CI?$CGlAttr@ 5f73a648     daocore.obj
 0002:00007670       ??_C@_0DN@MHHF@var?4pdispVal?9?$DOQueryInterface?$CI?5gu@ 5f73a670     daocore.obj
 0002:000076b0       ??_C@_0DF@CLB@pDAOIndexFields?9?$DOget_Item?$CICOleVa@ 5f73a6b0     daocore.obj
 0002:000076e8       ??_C@_0CE@GNBF@pDAOIndexFields?9?$DOget_Count?$CI?$CGnCou@ 5f73a6e8     daocore.obj
 0002:00007710       ??_7CDaoIndexFieldInfo@@6B@ 5f73a710     daocore.obj
 0002:00007714       ??_C@_0CH@BPFN@pDAOField?9?$DOput_Attributes?$CIlAttri@ 5f73a714     daocore.obj
 0002:0000773c       ??_C@_0JA@MEIF@pDAOIndex?9?$DOCreateField?$CI?5COleVari@ 5f73a73c     daocore.obj
 0002:000077cc       ??_C@_1CO@HEDE@?$AAI?$AAC?$AAD?$AAA?$AAO?$AAR?$AAe?$AAc?$AAo?$AAr?$AAd?$AAs?$AAe?$AAt?$AA?4?$AAG?$AAe?$AAt?$AAR?$AAo@ 5f73a7cc     daocore.obj
 0002:000077fc       ??_C@_0GH@DHEN@pCF2?9?$DOCreateInstanceLic?$CI?5NULL?0?5N@ 5f73a7fc     daocore.obj
 0002:00007864       ??_C@_0GA@FMGC@?3?3CoGetClassObject?$CIclsidEngine?0?5@ 5f73a864     daocore.obj
 0002:000078c4       ??_C@_1EK@JJKF@?$AAm?$AAj?$AAg?$AAc?$AAq?$AAc?$AAe?$AAj?$AAf?$AAc?$AAh?$AAc?$AAi?$AAj?$AAe?$AAc?$AAp?$AAd?$AAh?$AAc@ 5f73a8c4     daocore.obj
 0002:00007910       ??_C@_1EK@JBEF@?$AAm?$AAb?$AAm?$AAa?$AAb?$AAp?$AAt?$AAe?$AAb?$AAk?$AAj?$AAc?$AAd?$AAl?$AAg?$AAt?$AAj?$AAm?$AAs?$AAk@ 5f73a910     daocore.obj
 0002:0000795c       ??_C@_0BF@DC@?3?3CoInitialize?$CINULL?$CJ?$AA@ 5f73a95c     daocore.obj
 0002:00007978       ?_afxDoublePseudoNull@@3NB 5f73a978     daodfx.obj
 0002:00007980       ?_afxFloatPseudoNull@@3MB  5f73a980     daodfx.obj
 0002:00007984       ??_C@_09CGOK@?5DateTime?$AA@ 5f73a984     daodfx.obj
 0002:00007990       ??_C@_0M@BGKI@?5IEEEDouble?$AA@ 5f73a990     daodfx.obj
 0002:0000799c       ??_C@_0M@GOBO@?5IEEESingle?$AA@ 5f73a99c     daodfx.obj
 0002:000079a8       ??_C@_09GDCP@?5Currency?$AA@ 5f73a9a8     daodfx.obj
 0002:000079b4       ??_C@_05BJMF@?5Long?$AA@   5f73a9b4     daodfx.obj
 0002:000079bc       ??_C@_06KOJB@?5Short?$AA@  5f73a9bc     daodfx.obj
 0002:000079c4       ??_C@_05IGCC@?5Byte?$AA@   5f73a9c4     daodfx.obj
 0002:000079cc       ??_C@_04KDMA@?5Bit?$AA@    5f73a9cc     daodfx.obj
 0002:000079d4       ??_C@_0M@MOAI@?5LongBinary?$AA@ 5f73a9d4     daodfx.obj
 0002:000079e0       ??_C@_05BJHD@?5Text?$AA@   5f73a9e0     daodfx.obj
 0002:000079e8       ??_C@_01KMAE@?0?$AA@       5f73a9e8     daodfx.obj
 0002:000079f0       ?messageMap@CDaoRecordView@@1UAFX_MSGMAP@@B 5f73a9f0     daoview.obj
 0002:000079f8       ?_messageEntries@CDaoRecordView@@0QBUAFX_MSGMAP_ENTRY@@B 5f73a9f8     daoview.obj
 0002:00007ad0       ?classCDaoRecordView@CDaoRecordView@@2UCRuntimeClass@@B 5f73aad0     daoview.obj
 0002:00007ae8       ??_C@_0P@KPJP@CDaoRecordView?$AA@ 5f73aae8     daoview.obj
 0002:00007afc       ??_7CDaoRecordView@@6B@    5f73aafc     daoview.obj
 0002:00007c14       ??_C@_1GG@NJGF@?$AAW?$AAa?$AAr?$AAn?$AAi?$AAn?$AAg?$AA?3?$AA?5?$AAc?$AAa?$AAn?$AA?8?$AAt?$AA?5?$AAs?$AAe?$AAt?$AA?5?$AAc@ 5f73ac14     daoview.obj
 0002:00007c7c       ??_C@_1GG@MNDJ@?$AAW?$AAa?$AAr?$AAn?$AAi?$AAn?$AAg?$AA?3?$AA?5?$AAc?$AAa?$AAn?$AA?8?$AAt?$AA?5?$AAs?$AAe?$AAt?$AA?5?$AAf@ 5f73ac7c     daoview.obj
 0002:00007ce4       ??_C@_0BE@CLIM@m_varBookmarkLast?5?$DN?$AA@ 5f73ace4     daoview.obj
 0002:00007cf8       ??_C@_0BF@EDLD@m_varBookmarkFirst?5?$DN?$AA@ 5f73acf8     daoview.obj
 0002:00007d10       ??_C@_0BH@FBNH@m_varBookmarkCurrent?5?$DN?$AA@ 5f73ad10     daoview.obj
 0002:00007d28       ??_C@_0M@LNMN@m_nStatus?5?$DN?$AA@ 5f73ad28     daoview.obj
 0002:00007d38       ?classCOleDBRecordView@COleDBRecordView@@2UCRuntimeClass@@B 5f73ad38     viewoled.obj
 0002:00007d50       ??_C@_0BB@HKOA@COleDBRecordView?$AA@ 5f73ad50     viewoled.obj
 0002:00007d68       ?messageMap@COleDBRecordView@@1UAFX_MSGMAP@@B 5f73ad68     viewoled.obj
 0002:00007d70       ?_messageEntries@COleDBRecordView@@0QBUAFX_MSGMAP_ENTRY@@B 5f73ad70     viewoled.obj
 0002:00007e48       ??_C@_1EC@DLJM@?$AAG?$AAe?$AAt?$AAD?$AAa?$AAt?$AAa?$AA?5?$AAf?$AAa?$AAi?$AAl?$AAe?$AAd?$AA?5?$AA?9?$AA?5?$AAH?$AAR?$AAE@ 5f73ae48     viewoled.obj
 0002:00007e8c       ??_C@_0BB@OJDA@m_pAccessor?5?$CB?$DN?50?$AA@ 5f73ae8c     viewoled.obj
 0002:00007ea0       ??_C@_0CI@EIDC@F?3?29782?2vc98?2mfc?2atl?2include?2atl@ 5f73aea0     viewoled.obj
 0002:00007ec8       ??_C@_0BA@EFBK@m_spRowset?5?$CB?$DN?50?$AA@ 5f73aec8     viewoled.obj
 0002:00007ed8       ??_C@_1M@JIAP@?$AAA?$AAT?$AAL?$AA?3?$AA?5?$AA?$AA@ 5f73aed8     viewoled.obj
 0002:00007ee4       ??_C@_09PLJB@atlbase?4h?$AA@ 5f73aee4     viewoled.obj
 0002:00007ef0       ??_C@_0BI@CIAH@nBuf?5?$DM?5sizeof?$CIszBuffer?$CJ?$AA@ 5f73aef0     viewoled.obj
 0002:00007f08       ??_C@_1FO@OKAP@?$AAG?$AAe?$AAt?$AAD?$AAa?$AAt?$AAa?$AA?5?$AAf?$AAr?$AAo?$AAm?$AA?5?$AAM?$AAo?$AAv?$AAe?$AAL?$AAa?$AAs@ 5f73af08     viewoled.obj
 0002:00007f68       ??_C@_0BF@GPJA@m_pAccessorInfo?5?$CB?$DN?50?$AA@ 5f73af68     viewoled.obj
 0002:00007f80       ??_C@_0BJ@NICA@nAccessor?5?$DM?5m_nAccessors?$AA@ 5f73af80     viewoled.obj
 0002:00007f9c       ??_C@_0M@DLL@m_hRow?5?$CB?$DN?50?$AA@ 5f73af9c     viewoled.obj
 0002:00007fa8       ??_C@_0BH@DLBO@nAccessor?$DMm_nAccessors?$AA@ 5f73afa8     viewoled.obj
 0002:00007fc0       ??_C@_04GBK@p?$CB?$DN0?$AA@ 5f73afc0     viewoled.obj
 0002:00007ff8       ??_7type_info@@6B@         5f73aff8     msvcrtd:ti_inst.obj
 0002:00007ffc       ??_C@_08JKC@crtdll?4c?$AA@ 5f73affc     msvcrtd:crtdll.obj
 0002:00008008       _IID_IClassFactory2        5f73b008     uuid:ocidl_i_guid4.obj
 0002:00008018       _LIBID_CJETSQLHELP         5f73b018     daouuid:daouuid.obj
 0002:00008028       _LIBID_CDAO                5f73b028     daouuid:daouuid.obj
 0002:00008038       _LIBID_CDAO25              5f73b038     daouuid:daouuid.obj
 0002:00008048       _BETA_LIBID_CDAO           5f73b048     daouuid:daouuid.obj
 0002:00008058       _BETA_LIBID_CDAO25         5f73b058     daouuid:daouuid.obj
 0002:00008068       _IID_IDAOStdObject         5f73b068     daouuid:daouuid.obj
 0002:00008078       _IID_IDAOStdCollection     5f73b078     daouuid:daouuid.obj
 0002:00008088       _CLSID_CDAODBEngine        5f73b088     daouuid:daouuid.obj
 0002:00008098       _CLSID_CDAOPrivDBEngine    5f73b098     daouuid:daouuid.obj
 0002:000080a8       _CLSID_CDAOConnection      5f73b0a8     daouuid:daouuid.obj
 0002:000080b8       _CLSID_CDAOTableDef        5f73b0b8     daouuid:daouuid.obj
 0002:000080c8       _CLSID_CDAOField           5f73b0c8     daouuid:daouuid.obj
 0002:000080d8       _CLSID_CDAOIndex           5f73b0d8     daouuid:daouuid.obj
 0002:000080e8       _CLSID_CDAOGroup           5f73b0e8     daouuid:daouuid.obj
 0002:000080f8       _CLSID_CDAOUser            5f73b0f8     daouuid:daouuid.obj
 0002:00008108       _CLSID_CDAOQueryDef        5f73b108     daouuid:daouuid.obj
 0002:00008118       _CLSID_CDAORelation        5f73b118     daouuid:daouuid.obj
 0002:00008128       _CLSID35_CDAODBEngine      5f73b128     daouuid:daouuid.obj
 0002:00008138       _CLSID35_CDAOPrivDBEngine  5f73b138     daouuid:daouuid.obj
 0002:00008148       _CLSID35_CDAOConnection    5f73b148     daouuid:daouuid.obj
 0002:00008158       _CLSID35_CDAOTableDef      5f73b158     daouuid:daouuid.obj
 0002:00008168       _CLSID35_CDAOField         5f73b168     daouuid:daouuid.obj
 0002:00008178       _CLSID35_CDAOIndex         5f73b178     daouuid:daouuid.obj
 0002:00008188       _CLSID35_CDAOGroup         5f73b188     daouuid:daouuid.obj
 0002:00008198       _CLSID35_CDAOUser          5f73b198     daouuid:daouuid.obj
 0002:000081a8       _CLSID35_CDAOQueryDef      5f73b1a8     daouuid:daouuid.obj
 0002:000081b8       _CLSID35_CDAORelation      5f73b1b8     daouuid:daouuid.obj
 0002:000081c8       _IID_IDAODBEngine          5f73b1c8     daouuid:daouuid.obj
 0002:000081d8       _IID_IDAODBEngineW         5f73b1d8     daouuid:daouuid.obj
 0002:000081e8       _IID_IDAOError             5f73b1e8     daouuid:daouuid.obj
 0002:000081f8       _IID_IDAOErrorW            5f73b1f8     daouuid:daouuid.obj
 0002:00008208       _IID_IDAOErrors            5f73b208     daouuid:daouuid.obj
 0002:00008218       _IID_IDAOErrorsW           5f73b218     daouuid:daouuid.obj
 0002:00008228       _IID_IDAOProperty          5f73b228     daouuid:daouuid.obj
 0002:00008238       _IID_IDAOPropertyW         5f73b238     daouuid:daouuid.obj
 0002:00008248       _IID_IDAOProperties        5f73b248     daouuid:daouuid.obj
 0002:00008258       _IID_IDAOPropertiesW       5f73b258     daouuid:daouuid.obj
 0002:00008268       _IID_IDAORecordset         5f73b268     daouuid:daouuid.obj
 0002:00008278       _IID_IDAORecordsetW        5f73b278     daouuid:daouuid.obj
 0002:00008288       _IID_IDAORecordsets        5f73b288     daouuid:daouuid.obj
 0002:00008298       _IID_IDAORecordsetsW       5f73b298     daouuid:daouuid.obj
 0002:000082a8       _IID_ICDAORecordset        5f73b2a8     daouuid:daouuid.obj
 0002:000082b8       _IID_IDAOWorkspace         5f73b2b8     daouuid:daouuid.obj
 0002:000082c8       _IID_IDAOWorkspaceW        5f73b2c8     daouuid:daouuid.obj
 0002:000082d8       _IID_IDAOWorkspaces        5f73b2d8     daouuid:daouuid.obj
 0002:000082e8       _IID_IDAOWorkspacesW       5f73b2e8     daouuid:daouuid.obj
 0002:000082f8       _IID_IDAOConnection        5f73b2f8     daouuid:daouuid.obj
 0002:00008308       _IID_IDAOConnectionW       5f73b308     daouuid:daouuid.obj
 0002:00008318       _IID_IDAOConnections       5f73b318     daouuid:daouuid.obj
 0002:00008328       _IID_IDAOConnectionsW      5f73b328     daouuid:daouuid.obj
 0002:00008338       _IID_IDAOTableDef          5f73b338     daouuid:daouuid.obj
 0002:00008348       _IID_IDAOTableDefW         5f73b348     daouuid:daouuid.obj
 0002:00008358       _IID_IDAOTableDefs         5f73b358     daouuid:daouuid.obj
 0002:00008368       _IID_IDAOTableDefsW        5f73b368     daouuid:daouuid.obj
 0002:00008378       _IID_IDAOField             5f73b378     daouuid:daouuid.obj
 0002:00008388       _IID_IDAOFieldW            5f73b388     daouuid:daouuid.obj
 0002:00008398       _IID_IDAOFields            5f73b398     daouuid:daouuid.obj
 0002:000083a8       _IID_IDAOFieldsW           5f73b3a8     daouuid:daouuid.obj
 0002:000083b8       _IID_IDAOIndex             5f73b3b8     daouuid:daouuid.obj
 0002:000083c8       _IID_IDAOIndexW            5f73b3c8     daouuid:daouuid.obj
 0002:000083d8       _IID_IDAOIndexes           5f73b3d8     daouuid:daouuid.obj
 0002:000083e8       _IID_IDAOIndexesW          5f73b3e8     daouuid:daouuid.obj
 0002:000083f8       _IID_IDAOIndexFields       5f73b3f8     daouuid:daouuid.obj
 0002:00008408       _IID_IDAOIndexFieldsW      5f73b408     daouuid:daouuid.obj
 0002:00008418       _IID_IDAOGroup             5f73b418     daouuid:daouuid.obj
 0002:00008428       _IID_IDAOGroupW            5f73b428     daouuid:daouuid.obj
 0002:00008438       _IID_IDAOGroups            5f73b438     daouuid:daouuid.obj
 0002:00008448       _IID_IDAOGroupsW           5f73b448     daouuid:daouuid.obj
 0002:00008458       _IID_IDAOUser              5f73b458     daouuid:daouuid.obj
 0002:00008468       _IID_IDAOUserW             5f73b468     daouuid:daouuid.obj
 0002:00008478       _IID_IDAOUsers             5f73b478     daouuid:daouuid.obj
 0002:00008488       _IID_IDAOUsersW            5f73b488     daouuid:daouuid.obj
 0002:00008498       _IID_IDAODatabase          5f73b498     daouuid:daouuid.obj
 0002:000084a8       _IID_IDAODatabaseW         5f73b4a8     daouuid:daouuid.obj
 0002:000084b8       _IID_IDAODatabases         5f73b4b8     daouuid:daouuid.obj
 0002:000084c8       _IID_IDAODatabasesW        5f73b4c8     daouuid:daouuid.obj
 0002:000084d8       _IID_IDAOQueryDef          5f73b4d8     daouuid:daouuid.obj
 0002:000084e8       _IID_IDAOQueryDefW         5f73b4e8     daouuid:daouuid.obj
 0002:000084f8       _IID_IDAOQueryDefs         5f73b4f8     daouuid:daouuid.obj
 0002:00008508       _IID_IDAOQueryDefsW        5f73b508     daouuid:daouuid.obj
 0002:00008518       _IID_IDAOParameter         5f73b518     daouuid:daouuid.obj
 0002:00008528       _IID_IDAOParameterW        5f73b528     daouuid:daouuid.obj
 0002:00008538       _IID_IDAOParameters        5f73b538     daouuid:daouuid.obj
 0002:00008548       _IID_IDAOParametersW       5f73b548     daouuid:daouuid.obj
 0002:00008558       _IID_IDAORelation          5f73b558     daouuid:daouuid.obj
 0002:00008568       _IID_IDAORelationW         5f73b568     daouuid:daouuid.obj
 0002:00008578       _IID_IDAORelations         5f73b578     daouuid:daouuid.obj
 0002:00008588       _IID_IDAORelationsW        5f73b588     daouuid:daouuid.obj
 0002:00008598       _IID_IDAOContainer         5f73b598     daouuid:daouuid.obj
 0002:000085a8       _IID_IDAOContainerW        5f73b5a8     daouuid:daouuid.obj
 0002:000085b8       _IID_IDAOContainers        5f73b5b8     daouuid:daouuid.obj
 0002:000085c8       _IID_IDAOContainersW       5f73b5c8     daouuid:daouuid.obj
 0002:000085d8       _IID_IDAODocument          5f73b5d8     daouuid:daouuid.obj
 0002:000085e8       _IID_IDAODocumentW         5f73b5e8     daouuid:daouuid.obj
 0002:000085f8       _IID_IDAODocuments         5f73b5f8     daouuid:daouuid.obj
 0002:00008608       _IID_IDAODocumentsW        5f73b608     daouuid:daouuid.obj
 0002:00008618       _IID_IDAOCollection        5f73b618     daouuid:daouuid.obj
 0002:00008628       _IID_IDAODynaCollection    5f73b628     daouuid:daouuid.obj
 0002:00008638       _IID_IDAOQueryCP           5f73b638     daouuid:daouuid.obj
 0002:00008648       _IID_IDAOQueryAS           5f73b648     daouuid:daouuid.obj
 0002:00008658       _IID_ICDAOJETDBEngine      5f73b658     daouuid:daouuid.obj
 0002:00008668       _IID_ICDAOJETError         5f73b668     daouuid:daouuid.obj
 0002:00008678       _IID_ICDAOJETRecordset     5f73b678     daouuid:daouuid.obj
 0002:00008688       _IID_ICDAOJETWorkspace     5f73b688     daouuid:daouuid.obj
 0002:00008698       _IID_ICDAOJETField         5f73b698     daouuid:daouuid.obj
 0002:000086a8       _IID_ICDAOJETDatabase      5f73b6a8     daouuid:daouuid.obj
 0002:000086b8       _IID_IDAOSnapshot          5f73b6b8     daouuid:daouuid.obj
 0002:000086c8       _IID_IDAOTable             5f73b6c8     daouuid:daouuid.obj
 0002:000086d8       _IID_IDAODynaset           5f73b6d8     daouuid:daouuid.obj
 0002:000086e8       _IID_IDisconnect           5f73b6e8     daouuid:daouuid.obj
 0002:000086f8       _IID_IDisconnectAll        5f73b6f8     daouuid:daouuid.obj
 0002:00008708       _IID_IDSCAdviseSink        5f73b708     daouuid:daouuid.obj
 0002:00008718       _IID_IDSCConnectionPoint   5f73b718     daouuid:daouuid.obj
 0002:00008728       _IID_IDBAdviseSink         5f73b728     daouuid:daouuid.obj
 0002:00008738       _IID_IDBConnectionPoint    5f73b738     daouuid:daouuid.obj
 0002:00008748       _LIBID30_CDAO              5f73b748     daouuid:daouuid.obj
 0002:00008758       _LIBID30_CDAO25            5f73b758     daouuid:daouuid.obj
 0002:00008768       _IID30_IDAOStdObject       5f73b768     daouuid:daouuid.obj
 0002:00008778       _IID30_IDAOStdCollection   5f73b778     daouuid:daouuid.obj
 0002:00008788       _CLSID30_CDAODBEngine      5f73b788     daouuid:daouuid.obj
 0002:00008798       _IID30_IDAODBEngine        5f73b798     daouuid:daouuid.obj
 0002:000087a8       _IID30_IDAODBEngineW       5f73b7a8     daouuid:daouuid.obj
 0002:000087b8       _IID30_ICDAOJETDBEngine    5f73b7b8     daouuid:daouuid.obj
 0002:000087c8       _CLSID30_CDAOPrivDBEngine  5f73b7c8     daouuid:daouuid.obj
 0002:000087d8       _IID30_IDAOError           5f73b7d8     daouuid:daouuid.obj
 0002:000087e8       _IID30_IDAOErrorW          5f73b7e8     daouuid:daouuid.obj
 0002:000087f8       _IID30_IDAOErrors          5f73b7f8     daouuid:daouuid.obj
 0002:00008808       _IID30_IDAOErrorsW         5f73b808     daouuid:daouuid.obj
 0002:00008818       _IID30_ICDAOJETError       5f73b818     daouuid:daouuid.obj
 0002:00008828       _IID30_IDAOProperty        5f73b828     daouuid:daouuid.obj
 0002:00008838       _IID30_IDAOPropertyW       5f73b838     daouuid:daouuid.obj
 0002:00008848       _IID30_IDAOProperties      5f73b848     daouuid:daouuid.obj
 0002:00008858       _IID30_IDAOPropertiesW     5f73b858     daouuid:daouuid.obj
 0002:00008868       _IID30_IDAORecordset       5f73b868     daouuid:daouuid.obj
 0002:00008878       _IID30_IDAORecordsetW      5f73b878     daouuid:daouuid.obj
 0002:00008888       _IID30_IDAORecordsets      5f73b888     daouuid:daouuid.obj
 0002:00008898       _IID30_IDAORecordsetsW     5f73b898     daouuid:daouuid.obj
 0002:000088a8       _IID30_ICDAORecordset      5f73b8a8     daouuid:daouuid.obj
 0002:000088b8       _IID30_ICDAOJETRecordset   5f73b8b8     daouuid:daouuid.obj
 0002:000088c8       _IID30_IDAOSnapshot        5f73b8c8     daouuid:daouuid.obj
 0002:000088d8       _IID30_IDAOTable           5f73b8d8     daouuid:daouuid.obj
 0002:000088e8       _IID30_IDAODynaset         5f73b8e8     daouuid:daouuid.obj
 0002:000088f8       _IID30_IDAOWorkspace       5f73b8f8     daouuid:daouuid.obj
 0002:00008908       _IID30_IDAOWorkspaceW      5f73b908     daouuid:daouuid.obj
 0002:00008918       _IID30_IDAOWorkspaces      5f73b918     daouuid:daouuid.obj
 0002:00008928       _IID30_IDAOWorkspacesW     5f73b928     daouuid:daouuid.obj
 0002:00008938       _IID30_ICDAOJETWorkspace   5f73b938     daouuid:daouuid.obj
 0002:00008948       _CLSID30_CDAOConnection    5f73b948     daouuid:daouuid.obj
 0002:00008958       _IID30_IDAOConnection      5f73b958     daouuid:daouuid.obj
 0002:00008968       _IID30_IDAOConnectionW     5f73b968     daouuid:daouuid.obj
 0002:00008978       _IID30_IDAOConnections     5f73b978     daouuid:daouuid.obj
 0002:00008988       _IID30_IDAOConnectionsW    5f73b988     daouuid:daouuid.obj
 0002:00008998       _CLSID30_CDAOTableDef      5f73b998     daouuid:daouuid.obj
 0002:000089a8       _IID30_IDAOTableDef        5f73b9a8     daouuid:daouuid.obj
 0002:000089b8       _IID30_IDAOTableDefW       5f73b9b8     daouuid:daouuid.obj
 0002:000089c8       _IID30_IDAOTableDefs       5f73b9c8     daouuid:daouuid.obj
 0002:000089d8       _IID30_IDAOTableDefsW      5f73b9d8     daouuid:daouuid.obj
 0002:000089e8       _CLSID30_CDAOField         5f73b9e8     daouuid:daouuid.obj
 0002:000089f8       _IID30_IDAOField           5f73b9f8     daouuid:daouuid.obj
 0002:00008a08       _IID30_IDAOFieldW          5f73ba08     daouuid:daouuid.obj
 0002:00008a18       _IID30_IDAOFields          5f73ba18     daouuid:daouuid.obj
 0002:00008a28       _IID30_IDAOFieldsW         5f73ba28     daouuid:daouuid.obj
 0002:00008a38       _IID30_ICDAOJETField       5f73ba38     daouuid:daouuid.obj
 0002:00008a48       _CLSID30_CDAOIndex         5f73ba48     daouuid:daouuid.obj
 0002:00008a58       _IID30_IDAOIndex           5f73ba58     daouuid:daouuid.obj
 0002:00008a68       _IID30_IDAOIndexW          5f73ba68     daouuid:daouuid.obj
 0002:00008a78       _IID30_IDAOIndexes         5f73ba78     daouuid:daouuid.obj
 0002:00008a88       _IID30_IDAOIndexesW        5f73ba88     daouuid:daouuid.obj
 0002:00008a98       _IID30_IDAOIndexFields     5f73ba98     daouuid:daouuid.obj
 0002:00008aa8       _IID30_IDAOIndexFieldsW    5f73baa8     daouuid:daouuid.obj
 0002:00008ab8       _CLSID30_CDAOGroup         5f73bab8     daouuid:daouuid.obj
 0002:00008ac8       _IID30_IDAOGroup           5f73bac8     daouuid:daouuid.obj
 0002:00008ad8       _IID30_IDAOGroupW          5f73bad8     daouuid:daouuid.obj
 0002:00008ae8       _IID30_IDAOGroups          5f73bae8     daouuid:daouuid.obj
 0002:00008af8       _IID30_IDAOGroupsW         5f73baf8     daouuid:daouuid.obj
 0002:00008b08       _CLSID30_CDAOUser          5f73bb08     daouuid:daouuid.obj
 0002:00008b18       _IID30_IDAOUser            5f73bb18     daouuid:daouuid.obj
 0002:00008b28       _IID30_IDAOUserW           5f73bb28     daouuid:daouuid.obj
 0002:00008b38       _IID30_IDAOUsers           5f73bb38     daouuid:daouuid.obj
 0002:00008b48       _IID30_IDAOUsersW          5f73bb48     daouuid:daouuid.obj
 0002:00008b58       _IID30_IDAODatabase        5f73bb58     daouuid:daouuid.obj
 0002:00008b68       _IID30_IDAODatabaseW       5f73bb68     daouuid:daouuid.obj
 0002:00008b78       _IID30_IDAODatabases       5f73bb78     daouuid:daouuid.obj
 0002:00008b88       _IID30_IDAODatabasesW      5f73bb88     daouuid:daouuid.obj
 0002:00008b98       _IID30_ICDAOJETDatabase    5f73bb98     daouuid:daouuid.obj
 0002:00008ba8       _CLSID30_CDAOQueryDef      5f73bba8     daouuid:daouuid.obj
 0002:00008bb8       _IID30_IDAOQueryDef        5f73bbb8     daouuid:daouuid.obj
 0002:00008bc8       _IID30_IDAOQueryDefW       5f73bbc8     daouuid:daouuid.obj
 0002:00008bd8       _IID30_IDAOQueryDefs       5f73bbd8     daouuid:daouuid.obj
 0002:00008be8       _IID30_IDAOQueryDefsW      5f73bbe8     daouuid:daouuid.obj
 0002:00008bf8       _IID30_IDAOParameter       5f73bbf8     daouuid:daouuid.obj
 0002:00008c08       _IID30_IDAOParameterW      5f73bc08     daouuid:daouuid.obj
 0002:00008c18       _IID30_IDAOParameters      5f73bc18     daouuid:daouuid.obj
 0002:00008c28       _IID30_IDAOParametersW     5f73bc28     daouuid:daouuid.obj
 0002:00008c38       _CLSID30_CDAORelation      5f73bc38     daouuid:daouuid.obj
 0002:00008c48       _IID30_IDAORelation        5f73bc48     daouuid:daouuid.obj
 0002:00008c58       _IID30_IDAORelationW       5f73bc58     daouuid:daouuid.obj
 0002:00008c68       _IID30_IDAORelations       5f73bc68     daouuid:daouuid.obj
 0002:00008c78       _IID30_IDAORelationsW      5f73bc78     daouuid:daouuid.obj
 0002:00008c88       _IID30_IDAOContainer       5f73bc88     daouuid:daouuid.obj
 0002:00008c98       _IID30_IDAOContainerW      5f73bc98     daouuid:daouuid.obj
 0002:00008ca8       _IID30_IDAOContainers      5f73bca8     daouuid:daouuid.obj
 0002:00008cb8       _IID30_IDAOContainersW     5f73bcb8     daouuid:daouuid.obj
 0002:00008cc8       _IID30_IDAODocument        5f73bcc8     daouuid:daouuid.obj
 0002:00008cd8       _IID30_IDAODocumentW       5f73bcd8     daouuid:daouuid.obj
 0002:00008ce8       _IID30_IDAODocuments       5f73bce8     daouuid:daouuid.obj
 0002:00008cf8       _IID30_IDAODocumentsW      5f73bcf8     daouuid:daouuid.obj
 0002:00008d08       _IID30_IDAOCollection      5f73bd08     daouuid:daouuid.obj
 0002:00008d18       _IID30_IDAODynaCollection  5f73bd18     daouuid:daouuid.obj
 0002:00008d28       _IID30_IDAOQueryCP         5f73bd28     daouuid:daouuid.obj
 0002:00008d38       _IID30_IDAOQueryAS         5f73bd38     daouuid:daouuid.obj
 0002:00008d48       _IID30_IDisconnect         5f73bd48     daouuid:daouuid.obj
 0002:00008d58       _IID30_IDisconnectAll      5f73bd58     daouuid:daouuid.obj
 0002:00008d68       _IID30_IDSCAdviseSink      5f73bd68     daouuid:daouuid.obj
 0002:00008d78       _IID30_IDSCConnectionPoint 5f73bd78     daouuid:daouuid.obj
 0002:00008d88       _IID30_IDBAdviseSink       5f73bd88     daouuid:daouuid.obj
 0002:00008d98       _IID30_IDBConnectionPoint  5f73bd98     daouuid:daouuid.obj
 0002:00008da8       _g_DllEntries              5f73bda8     mfcdload:mfcdload.obj
 0002:00008e48       _g_DllMap                  5f73be48     mfcdload:mfcdload.obj
 0002:00008e50       _c_OmapEntries_wsock32     5f73be50     mfcdload:wsock32.obj
 0002:00008f08       _c_Omap_wsock32            5f73bf08     mfcdload:wsock32.obj
 0002:00008f10       _c_OmapEntries_winspool    5f73bf10     mfcdload:winspool.obj
 0002:00008f18       _c_Omap_winspool           5f73bf18     mfcdload:winspool.obj
 0002:00008f20       _c_PmapEntries_winspool    5f73bf20     mfcdload:winspool.obj
 0002:00009148       _c_Pmap_winspool           5f73c148     mfcdload:winspool.obj
 0002:00009150       _c_OmapEntries_wininet     5f73c150     mfcdload:wininet.obj
 0002:00009170       _c_Omap_wininet            5f73c170     mfcdload:wininet.obj
 0002:00009178       _c_PmapEntries_wininet     5f73c178     mfcdload:wininet.obj
 0002:000094f0       _c_Pmap_wininet            5f73c4f0     mfcdload:wininet.obj
 0002:000094f8       _c_PmapEntries_urlmon      5f73c4f8     mfcdload:urlmon.obj
 0002:000095e8       _c_Pmap_urlmon             5f73c5e8     mfcdload:urlmon.obj
 0002:000095f0       _c_OmapEntries_shell32     5f73c5f0     mfcdload:shell32.obj
 0002:00009818       _c_Omap_shell32            5f73c818     mfcdload:shell32.obj
 0002:00009820       _c_PmapEntries_shell32     5f73c820     mfcdload:shell32.obj
 0002:00009958       _c_Pmap_shell32            5f73c958     mfcdload:shell32.obj
 0002:00009960       _c_OmapEntries_olepro32    5f73c960     mfcdload:olepro32.obj
 0002:00009998       _c_Omap_olepro32           5f73c998     mfcdload:olepro32.obj
 0002:000099a0       _c_PmapEntries_oledlg      5f73c9a0     mfcdload:oledlg.obj
 0002:000099f0       _c_Pmap_oledlg             5f73c9f0     mfcdload:oledlg.obj
 0002:000099f8       _c_OmapEntries_oledlg      5f73c9f8     mfcdload:oledlg.obj
 0002:00009a48       _c_Omap_oledlg             5f73ca48     mfcdload:oledlg.obj
 0002:00009a50       _c_OmapEntries_oleaut32    5f73ca50     mfcdload:oleaut32.obj
 0002:00009be8       _c_Omap_oleaut32           5f73cbe8     mfcdload:oleaut32.obj
 0002:00009bf0       _c_PmapEntries_ole32       5f73cbf0     mfcdload:ole32.obj
 0002:00009f48       _c_Pmap_ole32              5f73cf48     mfcdload:ole32.obj
 0002:00009f50       _c_OmapEntries_odbc32      5f73cf50     mfcdload:odbc32.obj
 0002:0000a088       _c_Omap_odbc32             5f73d088     mfcdload:odbc32.obj
 0002:0000a090       _c_PmapEntries_comdlg32    5f73d090     mfcdload:comdlg32.obj
 0002:0000a128       _c_Pmap_comdlg32           5f73d128     mfcdload:comdlg32.obj
 0002:0000a130       _c_OmapEntries_comctl32    5f73d130     mfcdload:comctl32.obj
 0002:0000a150       _c_Omap_comctl32           5f73d150     mfcdload:comctl32.obj
 0002:0000a158       _c_PmapEntries_comctl32    5f73d158     mfcdload:comctl32.obj
 0002:0000a210       _c_Pmap_comctl32           5f73d210     mfcdload:comctl32.obj
 0002:0000a218       _c_PmapEntries_advapi32    5f73d218     mfcdload:advapi.obj
 0002:0000a3c0       _c_Pmap_advapi32           5f73d3c0     mfcdload:advapi.obj
 0002:0000a3d0       __sz_ole32                 5f73d3d0     ole32:ole32.dll
 0002:0000a3e0       __sz_OLEAUT32              5f73d3e0     oleaut32:OLEAUT32.dll
 0002:0000a3f0       __sz_ODBC32                5f73d3f0     odbc32:ODBC32.dll
 0002:0000a400       ??_R1A@?0A@A@CObject@@8    5f73d400     dbcore.obj
 0002:0000a418       ??_R1A@?0A@A@CException@@8 5f73d418     dbcore.obj
 0002:0000a430       ??_R1A@?0A@A@CDBException@@8 5f73d430     dbcore.obj
 0002:0000a448       ??_R2CDBException@@8       5f73d448     dbcore.obj
 0002:0000a458       ??_R3CDBException@@8       5f73d458     dbcore.obj
 0002:0000a468       ??_R4CDBException@@6B@     5f73d468     dbcore.obj
 0002:0000a480       ??_R1A@?0A@A@CDatabase@@8  5f73d480     dbcore.obj
 0002:0000a498       ??_R2CDatabase@@8          5f73d498     dbcore.obj
 0002:0000a4a8       ??_R3CDatabase@@8          5f73d4a8     dbcore.obj
 0002:0000a4b8       ??_R4CDatabase@@6B@        5f73d4b8     dbcore.obj
 0002:0000a4d0       ??_R1A@?0A@A@CRecordset@@8 5f73d4d0     dbcore.obj
 0002:0000a4e8       ??_R2CRecordset@@8         5f73d4e8     dbcore.obj
 0002:0000a4f8       ??_R3CRecordset@@8         5f73d4f8     dbcore.obj
 0002:0000a508       ??_R4CRecordset@@6B@       5f73d508     dbcore.obj
 0002:0000a520       ??_R1A@?0A@A@CNoTrackObject@@8 5f73d520     dbcore.obj
 0002:0000a538       ??_R1A@?0A@A@_AFX_DB_STATE@@8 5f73d538     dbcore.obj
 0002:0000a550       ??_R2_AFX_DB_STATE@@8      5f73d550     dbcore.obj
 0002:0000a560       ??_R3_AFX_DB_STATE@@8      5f73d560     dbcore.obj
 0002:0000a570       ??_R4_AFX_DB_STATE@@6B@    5f73d570     dbcore.obj
 0002:0000a584       ??_R2CNoTrackObject@@8     5f73d584     dbcore.obj
 0002:0000a590       ??_R3CNoTrackObject@@8     5f73d590     dbcore.obj
 0002:0000a5a0       ??_R4CNoTrackObject@@6B@   5f73d5a0     dbcore.obj
 0002:0000a5b8       ??_R1A@?0A@A@CCmdTarget@@8 5f73d5b8     dbview.obj
 0002:0000a5d0       ??_R1A@?0A@A@CWnd@@8       5f73d5d0     dbview.obj
 0002:0000a5e8       ??_R1A@?0A@A@CView@@8      5f73d5e8     dbview.obj
 0002:0000a600       ??_R1A@?0A@A@CScrollView@@8 5f73d600     dbview.obj
 0002:0000a618       ??_R1A@?0A@A@CFormView@@8  5f73d618     dbview.obj
 0002:0000a630       ??_R1A@?0A@A@CRecordView@@8 5f73d630     dbview.obj
 0002:0000a648       ??_R2CRecordView@@8        5f73d648     dbview.obj
 0002:0000a668       ??_R3CRecordView@@8        5f73d668     dbview.obj
 0002:0000a678       ??_R4CRecordView@@6B@      5f73d678     dbview.obj
 0002:0000a690       ??_R1A@?0A@A@CLongBinary@@8 5f73d690     dblong.obj
 0002:0000a6a8       ??_R2CLongBinary@@8        5f73d6a8     dblong.obj
 0002:0000a6b8       ??_R3CLongBinary@@8        5f73d6b8     dblong.obj
 0002:0000a6c8       ??_R4CLongBinary@@6B@      5f73d6c8     dblong.obj
 0002:0000a6e0       ??_R1A@?0A@A@CDBVariant@@8 5f73d6e0     dbvar.obj
 0002:0000a6f8       ??_R2CDBVariant@@8         5f73d6f8     dbvar.obj
 0002:0000a700       ??_R3CDBVariant@@8         5f73d700     dbvar.obj
 0002:0000a710       ??_R4CDBVariant@@6B@       5f73d710     dbvar.obj
 0002:0000a728       ??_R1A@?0A@A@_AFX_DAO_STATE@@8 5f73d728     daocore.obj
 0002:0000a740       ??_R2_AFX_DAO_STATE@@8     5f73d740     daocore.obj
 0002:0000a750       ??_R3_AFX_DAO_STATE@@8     5f73d750     daocore.obj
 0002:0000a760       ??_R4_AFX_DAO_STATE@@6B@   5f73d760     daocore.obj
 0002:0000a778       ??_R1A@?0A@A@CDaoIndexInfo@@8 5f73d778     daocore.obj
 0002:0000a790       ??_R2CDaoIndexInfo@@8      5f73d790     daocore.obj
 0002:0000a798       ??_R3CDaoIndexInfo@@8      5f73d798     daocore.obj
 0002:0000a7a8       ??_R4CDaoIndexInfo@@6B@    5f73d7a8     daocore.obj
 0002:0000a7c0       ??_R1A@?0A@A@CDaoRelationInfo@@8 5f73d7c0     daocore.obj
 0002:0000a7d8       ??_R2CDaoRelationInfo@@8   5f73d7d8     daocore.obj
 0002:0000a7e0       ??_R3CDaoRelationInfo@@8   5f73d7e0     daocore.obj
 0002:0000a7f0       ??_R4CDaoRelationInfo@@6B@ 5f73d7f0     daocore.obj
 0002:0000a808       ??_R1A@?0A@A@CDaoException@@8 5f73d808     daocore.obj
 0002:0000a820       ??_R2CDaoException@@8      5f73d820     daocore.obj
 0002:0000a830       ??_R3CDaoException@@8      5f73d830     daocore.obj
 0002:0000a840       ??_R4CDaoException@@6B@    5f73d840     daocore.obj
 0002:0000a858       ??_R1A@?0A@A@CDaoErrorInfo@@8 5f73d858     daocore.obj
 0002:0000a870       ??_R2CDaoErrorInfo@@8      5f73d870     daocore.obj
 0002:0000a878       ??_R3CDaoErrorInfo@@8      5f73d878     daocore.obj
 0002:0000a888       ??_R4CDaoErrorInfo@@6B@    5f73d888     daocore.obj
 0002:0000a8a0       ??_R1A@?0A@A@CDaoWorkspace@@8 5f73d8a0     daocore.obj
 0002:0000a8b8       ??_R2CDaoWorkspace@@8      5f73d8b8     daocore.obj
 0002:0000a8c8       ??_R3CDaoWorkspace@@8      5f73d8c8     daocore.obj
 0002:0000a8d8       ??_R4CDaoWorkspace@@6B@    5f73d8d8     daocore.obj
 0002:0000a8f0       ??_R1A@?0A@A@CDaoDatabase@@8 5f73d8f0     daocore.obj
 0002:0000a908       ??_R2CDaoDatabase@@8       5f73d908     daocore.obj
 0002:0000a918       ??_R3CDaoDatabase@@8       5f73d918     daocore.obj
 0002:0000a928       ??_R4CDaoDatabase@@6B@     5f73d928     daocore.obj
 0002:0000a940       ??_R1A@?0A@A@CDaoRelationFieldInfo@@8 5f73d940     daocore.obj
 0002:0000a958       ??_R2CDaoRelationFieldInfo@@8 5f73d958     daocore.obj
 0002:0000a960       ??_R3CDaoRelationFieldInfo@@8 5f73d960     daocore.obj
 0002:0000a970       ??_R4CDaoRelationFieldInfo@@6B@ 5f73d970     daocore.obj
 0002:0000a988       ??_R1A@?0A@A@CDaoTableDef@@8 5f73d988     daocore.obj
 0002:0000a9a0       ??_R2CDaoTableDef@@8       5f73d9a0     daocore.obj
 0002:0000a9b0       ??_R3CDaoTableDef@@8       5f73d9b0     daocore.obj
 0002:0000a9c0       ??_R4CDaoTableDef@@6B@     5f73d9c0     daocore.obj
 0002:0000a9d8       ??_R1A@?0A@A@CDaoFieldInfo@@8 5f73d9d8     daocore.obj
 0002:0000a9f0       ??_R2CDaoFieldInfo@@8      5f73d9f0     daocore.obj
 0002:0000a9f8       ??_R3CDaoFieldInfo@@8      5f73d9f8     daocore.obj
 0002:0000aa08       ??_R4CDaoFieldInfo@@6B@    5f73da08     daocore.obj
 0002:0000aa20       ??_R1A@?0A@A@CDaoQueryDef@@8 5f73da20     daocore.obj
 0002:0000aa38       ??_R2CDaoQueryDef@@8       5f73da38     daocore.obj
 0002:0000aa48       ??_R3CDaoQueryDef@@8       5f73da48     daocore.obj
 0002:0000aa58       ??_R4CDaoQueryDef@@6B@     5f73da58     daocore.obj
 0002:0000aa70       ??_R1A@?0A@A@CDaoRecordset@@8 5f73da70     daocore.obj
 0002:0000aa88       ??_R2CDaoRecordset@@8      5f73da88     daocore.obj
 0002:0000aa98       ??_R3CDaoRecordset@@8      5f73da98     daocore.obj
 0002:0000aaa8       ??_R4CDaoRecordset@@6B@    5f73daa8     daocore.obj
 0002:0000aac0       ??_R1A@?0A@A@CDaoIndexFieldInfo@@8 5f73dac0     daocore.obj
 0002:0000aad8       ??_R2CDaoIndexFieldInfo@@8 5f73dad8     daocore.obj
 0002:0000aae0       ??_R3CDaoIndexFieldInfo@@8 5f73dae0     daocore.obj
 0002:0000aaf0       ??_R4CDaoIndexFieldInfo@@6B@ 5f73daf0     daocore.obj
 0002:0000ab08       ??_R1A@?0A@A@CDaoRecordView@@8 5f73db08     daoview.obj
 0002:0000ab20       ??_R2CDaoRecordView@@8     5f73db20     daoview.obj
 0002:0000ab40       ??_R3CDaoRecordView@@8     5f73db40     daoview.obj
 0002:0000ab50       ??_R4CDaoRecordView@@6B@   5f73db50     daoview.obj
 0002:0000ab68       ??_R1A@?0A@A@type_info@@8  5f73db68     msvcrtd:ti_inst.obj
 0002:0000ab80       ??_R2type_info@@8          5f73db80     msvcrtd:ti_inst.obj
 0002:0000ab88       ??_R3type_info@@8          5f73db88     msvcrtd:ti_inst.obj
 0002:0000ab98       ??_R4type_info@@6B@        5f73db98     msvcrtd:ti_inst.obj
 0002:0000ac28       __CT??_R0PAX@84            5f73dc28     dbcore.obj
 0002:0000ac48       __CT??_R0PAVCObject@@@84   5f73dc48     dbcore.obj
 0002:0000ac68       __CT??_R0PAVCException@@@84 5f73dc68     dbcore.obj
 0002:0000ac88       __CT??_R0PAVCDBException@@@84 5f73dc88     dbcore.obj
 0002:0000aca8       __CTA4PAVCDBException@@    5f73dca8     dbcore.obj
 0002:0000acc0       __TI4PAVCDBException@@     5f73dcc0     dbcore.obj
 0002:0000da78       __CT??_R0PAVCDaoException@@@84 5f740a78     daocore.obj
 0002:0000da98       __CTA4PAVCDaoException@@   5f740a98     daocore.obj
 0002:0000dab0       __TI4PAVCDaoException@@    5f740ab0     daocore.obj
 0002:0000df88       __DELAY_IMPORT_DESCRIPTOR_ole32 5f740f88     ole32:ole32.dll
 0002:0000dfa8       __DELAY_IMPORT_DESCRIPTOR_OLEAUT32 5f740fa8     oleaut32:OLEAUT32.dll
 0002:0000dfc8       __DELAY_IMPORT_DESCRIPTOR_ODBC32 5f740fc8     odbc32:ODBC32.dll
 0002:0000dfe8       __NULL_DELAY_IMPORT_DESCRIPTOR 5f740fe8     ole32:ole32.dll
 0002:0000e088       \177ODBC32_NULL_THUNK_DATA_DLN 5f741088     odbc32:ODBC32.dll
 0002:0000e090       \177OLEAUT32_NULL_THUNK_DATA_DLN 5f741090     oleaut32:OLEAUT32.dll
 0002:0000e0a0       \177ole32_NULL_THUNK_DATA_DLN 5f7410a0     ole32:ole32.dll
 0002:0000e0e0       \177ole32_NULL_THUNK_DATA_DLB 5f7410e0     ole32:ole32.dll
 0002:0000e0f0       \177OLEAUT32_NULL_THUNK_DATA_DLB 5f7410f0     oleaut32:OLEAUT32.dll
 0002:0000e0f8       \177ODBC32_NULL_THUNK_DATA_DLB 5f7410f8     odbc32:ODBC32.dll
 0002:0000e178       __IMPORT_DESCRIPTOR_MFC42uD 5f741178     MFC42UD:MFC42uD.DLL
 0002:0000e18c       __IMPORT_DESCRIPTOR_MFCO42uD 5f74118c     MFCO42UD:MFCO42uD.DLL
 0002:0000e1a0       __IMPORT_DESCRIPTOR_MSVCRTD 5f7411a0     msvcrtd:MSVCRTD.dll
 0002:0000e1b4       __IMPORT_DESCRIPTOR_KERNEL32 5f7411b4     kernel32:KERNEL32.dll
 0002:0000e1c8       __IMPORT_DESCRIPTOR_USER32 5f7411c8     user32:USER32.dll
 0002:0000e1dc       __NULL_IMPORT_DESCRIPTOR   5f7411dc     MFC42UD:MFC42uD.DLL
 0003:00000000       ___xc_a                    5f743000     msvcrtd:cinitexe.obj
 0003:00000008       ___xc_z                    5f743008     msvcrtd:cinitexe.obj
 0003:0000000c       ___xi_a                    5f74300c     msvcrtd:cinitexe.obj
 0003:00000010       ___xi_z                    5f743010     msvcrtd:cinitexe.obj
 0003:0000002c       __pRawDllMain              5f74302c     dlldb.obj
 0003:00000030       ?_afxForceVectorDelete_mfcd@@3P6AXXZA 5f743030     dlldb.obj
 0003:00000034       ___pfnDliFailureHook       5f743034     dlldb.obj
 0003:00000038       ?GUID_ATLVer30@ATL@@3U_GUID@@A 5f743038     dlldb.obj
 0003:00000060       ??_R0PAX@8                 5f743060     dbcore.obj
 0003:00000070       ??_R0PAVCObject@@@8        5f743070     dbcore.obj
 0003:00000088       ??_R0PAVCException@@@8     5f743088     dbcore.obj
 0003:000000a8       ??_R0PAVCDBException@@@8   5f7430a8     dbcore.obj
 0003:000000c8       ??_R0?AVCObject@@@8        5f7430c8     dbcore.obj
 0003:000000e0       ??_R0?AVCException@@@8     5f7430e0     dbcore.obj
 0003:00000100       ??_R0?AVCDBException@@@8   5f743100     dbcore.obj
 0003:00000120       ??_R0?AVCDatabase@@@8      5f743120     dbcore.obj
 0003:00000138       ??_R0?AVCRecordset@@@8     5f743138     dbcore.obj
 0003:00000158       ??_R0?AVCNoTrackObject@@@8 5f743158     dbcore.obj
 0003:00000178       ??_R0?AV_AFX_DB_STATE@@@8  5f743178     dbcore.obj
 0003:000001c8       ??_R0?AVCCmdTarget@@@8     5f7431c8     dbview.obj
 0003:000001e8       ??_R0?AVCWnd@@@8           5f7431e8     dbview.obj
 0003:00000200       ??_R0?AVCView@@@8          5f743200     dbview.obj
 0003:00000218       ??_R0?AVCScrollView@@@8    5f743218     dbview.obj
 0003:00000238       ??_R0?AVCFormView@@@8      5f743238     dbview.obj
 0003:00000250       ??_R0?AVCRecordView@@@8    5f743250     dbview.obj
 0003:00000288       ??_R0?AVCLongBinary@@@8    5f743288     dblong.obj
 0003:000002b0       ??_R0?AVCDBVariant@@@8     5f7432b0     dbvar.obj
 0003:000002e8       ?_afxNullVariant@@3UtagVARIANT@@A 5f7432e8     daocore.obj
 0003:000002f8       ?_afxOptionalVariant@@3UtagVARIANT@@A 5f7432f8     daocore.obj
 0003:00000308       ??_R0?AV_AFX_DAO_STATE@@@8 5f743308     daocore.obj
 0003:00000328       ??_R0?AUCDaoIndexInfo@@@8  5f743328     daocore.obj
 0003:00000348       ??_R0?AUCDaoRelationInfo@@@8 5f743348     daocore.obj
 0003:00000368       ??_R0?AVCDaoException@@@8  5f743368     daocore.obj
 0003:00000388       ??_R0?AUCDaoErrorInfo@@@8  5f743388     daocore.obj
 0003:000003a8       ??_R0PAVCDaoException@@@8  5f7433a8     daocore.obj
 0003:000003c8       ??_R0?AVCDaoWorkspace@@@8  5f7433c8     daocore.obj
 0003:000003e8       ??_R0?AVCDaoDatabase@@@8   5f7433e8     daocore.obj
 0003:00000408       ??_R0?AUCDaoRelationFieldInfo@@@8 5f743408     daocore.obj
 0003:00000430       ??_R0?AVCDaoTableDef@@@8   5f743430     daocore.obj
 0003:00000450       ??_R0?AUCDaoFieldInfo@@@8  5f743450     daocore.obj
 0003:00000470       ??_R0?AVCDaoQueryDef@@@8   5f743470     daocore.obj
 0003:00000490       ??_R0?AVCDaoRecordset@@@8  5f743490     daocore.obj
 0003:000004b0       ??_R0?AUCDaoIndexFieldInfo@@@8 5f7434b0     daocore.obj
 0003:00000508       ??_R0?AVCDaoRecordView@@@8 5f743508     daoview.obj
 0003:00000540       ??_R0?AVtype_info@@@8      5f743540     msvcrtd:ti_inst.obj
 0003:00002c28       __imp__SQLGetInfo@20       5f745c28     odbc32:ODBC32.dll
 0003:00002c2c       __imp__SQLSetConnectOption@12 5f745c2c     odbc32:ODBC32.dll
 0003:00002c30       __imp__SQLBindCol@24       5f745c30     odbc32:ODBC32.dll
 0003:00002c34       __imp__SQLParamData@8      5f745c34     odbc32:ODBC32.dll
 0003:00002c38       __imp__SQLBindParameter@40 5f745c38     odbc32:ODBC32.dll
 0003:00002c3c       __imp__SQLPutData@12       5f745c3c     odbc32:ODBC32.dll
 0003:00002c40       __imp__SQLError@32         5f745c40     odbc32:ODBC32.dll
 0003:00002c44       __imp__SQLFreeStmt@8       5f745c44     odbc32:ODBC32.dll
 0003:00002c48       __imp__SQLCancel@4         5f745c48     odbc32:ODBC32.dll
 0003:00002c4c       __imp__SQLMoreResults@4    5f745c4c     odbc32:ODBC32.dll
 0003:00002c50       __imp__SQLFetch@4          5f745c50     odbc32:ODBC32.dll
 0003:00002c54       __imp__SQLNumResultCols@8  5f745c54     odbc32:ODBC32.dll
 0003:00002c58       __imp__SQLExecDirect@12    5f745c58     odbc32:ODBC32.dll
 0003:00002c5c       __imp__SQLAllocStmt@8      5f745c5c     odbc32:ODBC32.dll
 0003:00002c60       __imp__SQLFreeConnect@4    5f745c60     odbc32:ODBC32.dll
 0003:00002c64       __imp__SQLDisconnect@4     5f745c64     odbc32:ODBC32.dll
 0003:00002c68       __imp__SQLFreeEnv@4        5f745c68     odbc32:ODBC32.dll
 0003:00002c6c       __imp__SQLSetStmtOption@12 5f745c6c     odbc32:ODBC32.dll
 0003:00002c70       __imp__SQLRowCount@8       5f745c70     odbc32:ODBC32.dll
 0003:00002c74       __imp__SQLExecute@4        5f745c74     odbc32:ODBC32.dll
 0003:00002c78       __imp__SQLTransact@12      5f745c78     odbc32:ODBC32.dll
 0003:00002c7c       __imp__SQLAllocConnect@8   5f745c7c     odbc32:ODBC32.dll
 0003:00002c80       __imp__SQLAllocEnv@4       5f745c80     odbc32:ODBC32.dll
 0003:00002c84       __imp__SQLDriverConnect@32 5f745c84     odbc32:ODBC32.dll
 0003:00002c88       __imp__SQLGetData@24       5f745c88     odbc32:ODBC32.dll
 0003:00002c8c       __imp__SQLSetPos@16        5f745c8c     odbc32:ODBC32.dll
 0003:00002c90       __imp__SQLGetStmtOption@12 5f745c90     odbc32:ODBC32.dll
 0003:00002c94       __imp__SQLPrepare@12       5f745c94     odbc32:ODBC32.dll
 0003:00002c98       __imp__SQLGetFunctions@12  5f745c98     odbc32:ODBC32.dll
 0003:00002c9c       __imp__SQLDescribeCol@36   5f745c9c     odbc32:ODBC32.dll
 0003:00002ca0       __imp__SQLExtendedFetch@20 5f745ca0     odbc32:ODBC32.dll
 0003:00002ca4       __imp__SQLGetCursorName@16 5f745ca4     odbc32:ODBC32.dll
 0003:00002ca8       \177ODBC32_NULL_THUNK_DATA_DLA 5f745ca8     odbc32:ODBC32.dll
 0003:00002cac       __imp__SysFreeString@4     5f745cac     oleaut32:OLEAUT32.dll
 0003:00002cb0       \177OLEAUT32_NULL_THUNK_DATA_DLA 5f745cb0     oleaut32:OLEAUT32.dll
 0003:00002cb4       __imp__CoUninitialize@0    5f745cb4     ole32:ole32.dll
 0003:00002cb8       __imp__CoGetClassObject@20 5f745cb8     ole32:ole32.dll
 0003:00002cbc       __imp__CoInitialize@4      5f745cbc     ole32:ole32.dll
 0003:00002cc0       \177ole32_NULL_THUNK_DATA_DLA 5f745cc0     ole32:ole32.dll
 0003:00002cc8       ?ATL_CREATE_OBJECT@CComApartment@ATL@@2IA 5f745cc8     dlldb.obj
 0003:00002cd0       ?m_libid@CComModule@ATL@@2U_GUID@@A 5f745cd0     dlldb.obj
 0003:00002ce0       ?_pModule@ATL@@3PAVCComModule@1@A 5f745ce0     dlldb.obj
 0003:00002cfc       ?_afxDbState@@3V?$CProcessLocal@V_AFX_DB_STATE@@@@A 5f745cfc     dbcore.obj
 0003:00002d00       ?bTraceSql@@3HA            5f745d00     dbcore.obj
 0003:00002d08       __hmod__OLE32              5f745d08     ole32:ole32.dll
 0003:00002d0c       __hmod__OLEAUT32           5f745d0c     oleaut32:OLEAUT32.dll
 0003:00002d10       __hmod__ODBC32             5f745d10     odbc32:ODBC32.dll
 0003:00002d14       ___puiHead                 5f745d14     delayimp:delayhlp.obj
 0003:00002d18       ___pfnDliNotifyHook        5f745d18     delayimp:delayhk2.obj
 0003:00002d1c       __adjust_fdiv              5f745d1c     <common>
 0003:00002d20       ___onexitend               5f745d20     <common>
 0003:00002d24       ___onexitbegin             5f745d24     <common>

 entry point at        0001:0002c310

 Static symbols

 0001:0001670c       ?_AfxDetermineDaoVersion@@YAEXZ 5f71770c f   daocore.obj
 0001:0002f2fe       _$E376                     5f7302fe f   dbcore.obj
 0001:0002f30d       _$E373                     5f73030d f   dbcore.obj
 0001:0002f312       _$E375                     5f730312 f   dbcore.obj
 0001:0002f324       _$E374                     5f730324 f   dbcore.obj
 0001:0002f590       ?_AfxForceVectorDelete@@YAXXZ 5f730590 f   dlldb.obj
 0001:0002c140       _$$$00001                  5f72d140 f   msvcrtd:chkstk.obj
 0001:0002c14c       probepages                 5f72d14c f   msvcrtd:chkstk.obj
 0001:0002c160       lastpage                   5f72d160 f   msvcrtd:chkstk.obj
 0001:0002c0a0       ?ArrayUnwindFilter@@YAHPAU_EXCEPTION_POINTERS@@@Z 5f72d0a0 f   msvcrtd:ehvecdtr.obj
 0001:0002e560       _RegCreateKeyA@12          5f72f560 f   mfcdload:advapi.obj
 0001:0002e56c       _RegCreateKeyW@12          5f72f56c f   mfcdload:advapi.obj
 0001:0002e578       _RegCreateKeyExA@36        5f72f578 f   mfcdload:advapi.obj
 0001:0002e584       _RegCreateKeyExW@36        5f72f584 f   mfcdload:advapi.obj
 0001:0002e5ae       _RegOpenKeyExA@20          5f72f5ae f   mfcdload:advapi.obj
 0001:0002e5ba       _RegOpenKeyExW@20          5f72f5ba f   mfcdload:advapi.obj
 0001:0002e5d5       _RegSetValueA@20           5f72f5d5 f   mfcdload:advapi.obj
 0001:0002e5e1       _RegSetValueExA@24         5f72f5e1 f   mfcdload:advapi.obj
 0001:0002e5ed       _RegSetValueExW@24         5f72f5ed f   mfcdload:advapi.obj
 0001:0002e5f9       _RegQueryValueA@16         5f72f5f9 f   mfcdload:advapi.obj
 0001:0002e605       _RegQueryValueExA@24       5f72f605 f   mfcdload:advapi.obj
 0001:0002e611       _RegQueryValueExW@24       5f72f611 f   mfcdload:advapi.obj
 0001:0002e63b       _GetUserNameW@8            5f72f63b f   mfcdload:advapi.obj
 0001:0002e64b       _RegCloseKey@4             5f72f64b f   mfcdload:advapi.obj
 0001:0002e657       _RegDeleteKeyA@8           5f72f657 f   mfcdload:advapi.obj
 0001:0002e663       _RegDeleteKeyW@8           5f72f663 f   mfcdload:advapi.obj
 0001:0002e66f       _QueryServiceStatus@8      5f72f66f f   mfcdload:advapi.obj
 0001:0002e67f       _RegDeleteValueA@8         5f72f67f f   mfcdload:advapi.obj
 0001:0002e68b       _RegDeleteValueW@8         5f72f68b f   mfcdload:advapi.obj
 0001:0002e697       _RegNotifyChangeKeyValue@20 5f72f697 f   mfcdload:advapi.obj
 0001:0002e6a3       _RegOpenKeyA@12            5f72f6a3 f   mfcdload:advapi.obj
 0001:0002e6af       _RegOpenKeyW@12            5f72f6af f   mfcdload:advapi.obj
 0001:0002e6bb       _RegEnumKeyA@16            5f72f6bb f   mfcdload:advapi.obj
 0001:0002e6c7       _RegEnumKeyW@16            5f72f6c7 f   mfcdload:advapi.obj
 0001:0002e6d3       _RegEnumKeyExW@32          5f72f6d3 f   mfcdload:advapi.obj
 0001:0002e6ee       _RegQueryInfoKeyW@48       5f72f6ee f   mfcdload:advapi.obj
 0001:0002e6fa       _DeregisterEventSource@4   5f72f6fa f   mfcdload:advapi.obj
 0001:0002e70a       _RegisterEventSourceW@8    5f72f70a f   mfcdload:advapi.obj
 0001:0002e71a       _ReportEventW@36           5f72f71a f   mfcdload:advapi.obj
 0001:0002e72a       _AdjustTokenPrivileges@24  5f72f72a f   mfcdload:advapi.obj
 0001:0002e73a       _LookupPrivilegeValueA@12  5f72f73a f   mfcdload:advapi.obj
 0001:0002e74a       _LookupPrivilegeValueW@12  5f72f74a f   mfcdload:advapi.obj
 0001:0002e75a       _FreeSid@4                 5f72f75a f   mfcdload:advapi.obj
 0001:0002e76a       _CheckTokenMembership@12   5f72f76a f   mfcdload:advapi.obj
 0001:0002e77a       _AllocateAndInitializeSid@44 5f72f77a f   mfcdload:advapi.obj
 0001:0002e78a       _OpenProcessToken@12       5f72f78a f   mfcdload:advapi.obj
 0001:0002e79a       _OpenThreadToken@16        5f72f79a f   mfcdload:advapi.obj
 0001:0002e7aa       _GetTokenInformation@20    5f72f7aa f   mfcdload:advapi.obj
 0001:0002e7ba       _RegEnumValueW@32          5f72f7ba f   mfcdload:advapi.obj
 0001:0002e7c6       _CryptHashData@16          5f72f7c6 f   mfcdload:advapi.obj
 0001:0002e7cf       _CryptReleaseContext@8     5f72f7cf f   mfcdload:advapi.obj
 0001:0002e7d8       _CryptAcquireContextW@20   5f72f7d8 f   mfcdload:advapi.obj
 0001:0002e7e1       _CryptDestroyHash@4        5f72f7e1 f   mfcdload:advapi.obj
 0001:0002e7ea       _CryptDestroyKey@4         5f72f7ea f   mfcdload:advapi.obj
 0001:0002e7f3       _CryptExportKey@24         5f72f7f3 f   mfcdload:advapi.obj
 0001:0002e7fc       _CryptGetHashParam@20      5f72f7fc f   mfcdload:advapi.obj
 0001:0002e814       _CryptCreateHash@20        5f72f814 f   mfcdload:advapi.obj
 0001:0002e81d       _SetFileSecurityA@12       5f72f81d f   mfcdload:advapi.obj
 0001:0002e82d       _GetFileSecurityA@20       5f72f82d f   mfcdload:advapi.obj
 0001:0002e83d       _RegQueryValueW@16         5f72f83d f   mfcdload:advapi.obj
 0001:0002e850       _RegSetValueW@20           5f72f850 f   mfcdload:advapi.obj
 0001:0002e863       _SetFileSecurityW@12       5f72f863 f   mfcdload:advapi.obj
 0001:0002e873       _GetFileSecurityW@20       5f72f873 f   mfcdload:advapi.obj
 0001:0002e430       _CreatePropertySheetPageA@4 5f72f430 f   mfcdload:comctl32.obj
 0001:0002e440       _CreatePropertySheetPageW@4 5f72f440 f   mfcdload:comctl32.obj
 0001:0002e449       _CreateUpDownControl@48    5f72f449 f   mfcdload:comctl32.obj
 0001:0002e452       _DestroyPropertySheetPage@4 5f72f452 f   mfcdload:comctl32.obj
 0001:0002e45b       _ImageList_Add@12          5f72f45b f   mfcdload:comctl32.obj
 0001:0002e465       _ImageList_Create@20       5f72f465 f   mfcdload:comctl32.obj
 0001:0002e46e       _ImageList_Destroy@4       5f72f46e f   mfcdload:comctl32.obj
 0001:0002e477       _ImageList_Draw@24         5f72f477 f   mfcdload:comctl32.obj
 0001:0002e480       _ImageList_Duplicate@4     5f72f480 f   mfcdload:comctl32.obj
 0001:0002e489       _ImageList_GetIcon@12      5f72f489 f   mfcdload:comctl32.obj
 0001:0002e492       _ImageList_GetIconSize@12  5f72f492 f   mfcdload:comctl32.obj
 0001:0002e49b       _ImageList_LoadImageA@28   5f72f49b f   mfcdload:comctl32.obj
 0001:0002e4ab       _ImageList_LoadImageW@28   5f72f4ab f   mfcdload:comctl32.obj
 0001:0002e4b4       _ImageList_Remove@8        5f72f4b4 f   mfcdload:comctl32.obj
 0001:0002e4bd       _ImageList_ReplaceIcon@12  5f72f4bd f   mfcdload:comctl32.obj
 0001:0002e4c7       _ImageList_SetBkColor@8    5f72f4c7 f   mfcdload:comctl32.obj
 0001:0002e4d1       _ImageList_SetOverlayImage@12 5f72f4d1 f   mfcdload:comctl32.obj
 0001:0002e4da       _ImageList_Merge@24        5f72f4da f   mfcdload:comctl32.obj
 0001:0002e4ea       _ImageList_Read@4          5f72f4ea f   mfcdload:comctl32.obj
 0001:0002e4fa       _ImageList_Write@8         5f72f4fa f   mfcdload:comctl32.obj
 0001:0002e50a       _InitCommonControls@0      5f72f50a f   mfcdload:comctl32.obj
 0001:0002e50f       _InitCommonControlsEx@4    5f72f50f f   mfcdload:comctl32.obj
 0001:0002e518       _PropertySheetA@4          5f72f518 f   mfcdload:comctl32.obj
 0001:0002e522       _PropertySheetW@4          5f72f522 f   mfcdload:comctl32.obj
 0001:0002e52c       _ImageList_DrawIndirect@4  5f72f52c f   mfcdload:comctl32.obj
 0001:0002e535       _MakeDragList@4            5f72f535 f   mfcdload:comctl32.obj
 0001:0002e545       _LBItemFromPt@16           5f72f545 f   mfcdload:comctl32.obj
 0001:0002e340       _CommDlgExtendedError@0    5f72f340 f   mfcdload:comdlg32.obj
 0001:0002e347       _GetFileTitleW@12          5f72f347 f   mfcdload:comdlg32.obj
 0001:0002e351       _GetOpenFileNameW@4        5f72f351 f   mfcdload:comdlg32.obj
 0001:0002e35a       _GetOpenFileNameA@4        5f72f35a f   mfcdload:comdlg32.obj
 0001:0002e363       _GetSaveFileNameW@4        5f72f363 f   mfcdload:comdlg32.obj
 0001:0002e36c       _GetSaveFileNameA@4        5f72f36c f   mfcdload:comdlg32.obj
 0001:0002e375       _ChooseColorW@4            5f72f375 f   mfcdload:comdlg32.obj
 0001:0002e37e       _PageSetupDlgW@4           5f72f37e f   mfcdload:comdlg32.obj
 0001:0002e387       _PageSetupDlgA@4           5f72f387 f   mfcdload:comdlg32.obj
 0001:0002e390       _PrintDlgA@4               5f72f390 f   mfcdload:comdlg32.obj
 0001:0002e399       _PrintDlgW@4               5f72f399 f   mfcdload:comdlg32.obj
 0001:0002e3a2       _FindTextA@4               5f72f3a2 f   mfcdload:comdlg32.obj
 0001:0002e3b2       _ReplaceTextA@4            5f72f3b2 f   mfcdload:comdlg32.obj
 0001:0002e3c2       _ChooseFontA@4             5f72f3c2 f   mfcdload:comdlg32.obj
 0001:0002e3d2       _ChooseColorA@4            5f72f3d2 f   mfcdload:comdlg32.obj
 0001:0002e3e2       _GetFileTitleA@12          5f72f3e2 f   mfcdload:comdlg32.obj
 0001:0002e3f3       _FindTextW@4               5f72f3f3 f   mfcdload:comdlg32.obj
 0001:0002e403       _ReplaceTextW@4            5f72f403 f   mfcdload:comdlg32.obj
 0001:0002e413       _ChooseFontW@4             5f72f413 f   mfcdload:comdlg32.obj
 0001:0002e0c0       _SQLDisconnect@4           5f72f0c0 f   mfcdload:odbc32.obj
 0001:0002e0cb       _SQLExecute@4              5f72f0cb f   mfcdload:odbc32.obj
 0001:0002e0d6       _SQLAllocHandle@12         5f72f0d6 f   mfcdload:odbc32.obj
 0001:0002e0e1       _SQLFreeHandle@8           5f72f0e1 f   mfcdload:odbc32.obj
 0001:0002e0ec       _SQLSetConnectAttr@16      5f72f0ec f   mfcdload:odbc32.obj
 0001:0002e0f7       _SQLBindParameter@40       5f72f0f7 f   mfcdload:odbc32.obj
 0001:0002e102       _SQLSetEnvAttr@16          5f72f102 f   mfcdload:odbc32.obj
 0001:0002e10d       _SQLErrorW@32              5f72f10d f   mfcdload:odbc32.obj
 0001:0002e118       _SQLPrepareW@12            5f72f118 f   mfcdload:odbc32.obj
 0001:0002e123       _SQLDriverConnectW@32      5f72f123 f   mfcdload:odbc32.obj
 0001:0002e12e       _SQLPrepare@12             5f72f12e f   mfcdload:odbc32.obj
 0001:0002e140       _SQLSetPos@16              5f72f140 f   mfcdload:odbc32.obj
 0001:0002e152       _SQLGetFunctions@12        5f72f152 f   mfcdload:odbc32.obj
 0001:0002e164       _SQLGetStmtOption@12       5f72f164 f   mfcdload:odbc32.obj
 0001:0002e176       _SQLAllocEnv@4             5f72f176 f   mfcdload:odbc32.obj
 0001:0002e188       _SQLAllocConnect@8         5f72f188 f   mfcdload:odbc32.obj
 0001:0002e19a       _SQLTransact@12            5f72f19a f   mfcdload:odbc32.obj
 0001:0002e1ac       _SQLSetConnectOption@12    5f72f1ac f   mfcdload:odbc32.obj
 0001:0002e1be       _SQLGetData@24             5f72f1be f   mfcdload:odbc32.obj
 0001:0002e1d0       _SQLDriverConnect@32       5f72f1d0 f   mfcdload:odbc32.obj
 0001:0002e1e2       _SQLDescribeCol@36         5f72f1e2 f   mfcdload:odbc32.obj
 0001:0002e1f4       _SQLFreeConnect@4          5f72f1f4 f   mfcdload:odbc32.obj
 0001:0002e206       _SQLAllocStmt@8            5f72f206 f   mfcdload:odbc32.obj
 0001:0002e218       _SQLExecDirect@12          5f72f218 f   mfcdload:odbc32.obj
 0001:0002e22a       _SQLNumResultCols@8        5f72f22a f   mfcdload:odbc32.obj
 0001:0002e23c       _SQLFetch@4                5f72f23c f   mfcdload:odbc32.obj
 0001:0002e24e       _SQLMoreResults@4          5f72f24e f   mfcdload:odbc32.obj
 0001:0002e260       _SQLFreeStmt@8             5f72f260 f   mfcdload:odbc32.obj
 0001:0002e272       _SQLCancel@4               5f72f272 f   mfcdload:odbc32.obj
 0001:0002e284       _SQLError@32               5f72f284 f   mfcdload:odbc32.obj
 0001:0002e296       _SQLExtendedFetch@20       5f72f296 f   mfcdload:odbc32.obj
 0001:0002e2a8       _SQLGetCursorName@16       5f72f2a8 f   mfcdload:odbc32.obj
 0001:0002e2ba       _SQLRowCount@8             5f72f2ba f   mfcdload:odbc32.obj
 0001:0002e2cc       _SQLPutData@12             5f72f2cc f   mfcdload:odbc32.obj
 0001:0002e2de       _SQLParamData@8            5f72f2de f   mfcdload:odbc32.obj
 0001:0002e2f0       _SQLBindCol@24             5f72f2f0 f   mfcdload:odbc32.obj
 0001:0002e302       _SQLGetInfo@20             5f72f302 f   mfcdload:odbc32.obj
 0001:0002e314       _SQLSetStmtOption@12       5f72f314 f   mfcdload:odbc32.obj
 0001:0002e326       _SQLFreeEnv@4              5f72f326 f   mfcdload:odbc32.obj
 0001:0002db80       _CLSIDFromProgID@8         5f72eb80 f   mfcdload:ole32.obj
 0001:0002db8c       _CLSIDFromString@8         5f72eb8c f   mfcdload:ole32.obj
 0001:0002db98       _CoCreateGuid@4            5f72eb98 f   mfcdload:ole32.obj
 0001:0002dba4       _CoCreateInstance@20       5f72eba4 f   mfcdload:ole32.obj
 0001:0002dbb9       _CoDisableCallCancellation@4 5f72ebb9 f   mfcdload:ole32.obj
 0001:0002dbc5       _CoEnableCallCancellation@4 5f72ebc5 f   mfcdload:ole32.obj
 0001:0002dbd1       _CoInitialize@4            5f72ebd1 f   mfcdload:ole32.obj
 0001:0002dbdd       _CoInitializeEx@8          5f72ebdd f   mfcdload:ole32.obj
 0001:0002dbe9       _CoInitializeSecurity@36   5f72ebe9 f   mfcdload:ole32.obj
 0001:0002dbf5       _CoImpersonateClient@0     5f72ebf5 f   mfcdload:ole32.obj
 0001:0002dbff       _CoRevertToSelf@0          5f72ebff f   mfcdload:ole32.obj
 0001:0002dc09       _CoSwitchCallContext@8     5f72ec09 f   mfcdload:ole32.obj
 0001:0002dc15       _CoMarshalInterface@24     5f72ec15 f   mfcdload:ole32.obj
 0001:0002dc21       _CoRegisterClassObject@20  5f72ec21 f   mfcdload:ole32.obj
 0001:0002dc2d       _CoReleaseMarshalData@4    5f72ec2d f   mfcdload:ole32.obj
 0001:0002dc39       _CoResumeClassObjects@0    5f72ec39 f   mfcdload:ole32.obj
 0001:0002dc43       _CoRevokeClassObject@4     5f72ec43 f   mfcdload:ole32.obj
 0001:0002dc4f       _CoSetProxyBlanket@32      5f72ec4f f   mfcdload:ole32.obj
 0001:0002dc5b       _CoSuspendClassObjects@0   5f72ec5b f   mfcdload:ole32.obj
 0001:0002dc65       _CoTaskMemAlloc@4          5f72ec65 f   mfcdload:ole32.obj
 0001:0002dc6e       _CoTaskMemRealloc@8        5f72ec6e f   mfcdload:ole32.obj
 0001:0002dc77       _CoTaskMemFree@4           5f72ec77 f   mfcdload:ole32.obj
 0001:0002dc7e       _CoUninitialize@0          5f72ec7e f   mfcdload:ole32.obj
 0001:0002dc83       _CoUnmarshalInterface@12   5f72ec83 f   mfcdload:ole32.obj
 0001:0002dc8f       _CreateClassMoniker@8      5f72ec8f f   mfcdload:ole32.obj
 0001:0002dca4       _CreateItemMoniker@12      5f72eca4 f   mfcdload:ole32.obj
 0001:0002dcb9       _CreateStreamOnHGlobal@12  5f72ecb9 f   mfcdload:ole32.obj
 0001:0002dcc5       _GetRunningObjectTable@8   5f72ecc5 f   mfcdload:ole32.obj
 0001:0002dcda       _MkParseDisplayName@16     5f72ecda f   mfcdload:ole32.obj
 0001:0002dcef       _OleInitialize@4           5f72ecef f   mfcdload:ole32.obj
 0001:0002dcfb       _OleLoadFromStream@12      5f72ecfb f   mfcdload:ole32.obj
 0001:0002dd07       _OleSaveToStream@8         5f72ed07 f   mfcdload:ole32.obj
 0001:0002dd13       _OleLockRunning@12         5f72ed13 f   mfcdload:ole32.obj
 0001:0002dd1f       _OleUninitialize@0         5f72ed1f f   mfcdload:ole32.obj
 0001:0002dd24       _ProgIDFromCLSID@8         5f72ed24 f   mfcdload:ole32.obj
 0001:0002dd30       _StringFromCLSID@8         5f72ed30 f   mfcdload:ole32.obj
 0001:0002dd3c       _WriteClassStm@8           5f72ed3c f   mfcdload:ole32.obj
 0001:0002dd48       _CreateDataAdviseHolder@4  5f72ed48 f   mfcdload:ole32.obj
 0001:0002dd54       _StgCreateDocfile@16       5f72ed54 f   mfcdload:ole32.obj
 0001:0002dd60       _CreateILockBytesOnHGlobal@12 5f72ed60 f   mfcdload:ole32.obj
 0001:0002dd6c       _StgCreateDocfileOnILockBytes@16 5f72ed6c f   mfcdload:ole32.obj
 0001:0002dd78       _OleQueryCreateFromData@4  5f72ed78 f   mfcdload:ole32.obj
 0001:0002dd84       _OleQueryLinkFromData@4    5f72ed84 f   mfcdload:ole32.obj
 0001:0002dd90       _CreateFileMoniker@8       5f72ed90 f   mfcdload:ole32.obj
 0001:0002dd9c       _GetClassFile@8            5f72ed9c f   mfcdload:ole32.obj
 0001:0002dda8       _StgOpenStorage@24         5f72eda8 f   mfcdload:ole32.obj
 0001:0002ddb4       _StringFromGUID2@12        5f72edb4 f   mfcdload:ole32.obj
 0001:0002ddbd       _CoMarshalInterThreadInterfaceInStream@12 5f72edbd f   mfcdload:ole32.obj
 0001:0002ddc9       _CoGetInterfaceAndReleaseStream@12 5f72edc9 f   mfcdload:ole32.obj
 0001:0002ddd5       _DoDragDrop@16             5f72edd5 f   mfcdload:ole32.obj
 0001:0002dde1       _OleGetClipboard@4         5f72ede1 f   mfcdload:ole32.obj
 0001:0002dded       _OleSetClipboard@4         5f72eded f   mfcdload:ole32.obj
 0001:0002ddf9       _OleRegEnumVerbs@8         5f72edf9 f   mfcdload:ole32.obj
 0001:0002de05       _PropVariantClear@4        5f72ee05 f   mfcdload:ole32.obj
 0001:0002de11       _ReleaseStgMedium@4        5f72ee11 f   mfcdload:ole32.obj
 0001:0002de18       _CoFreeUnusedLibraries@0   5f72ee18 f   mfcdload:ole32.obj
 0001:0002de1d       _RevokeDragDrop@4          5f72ee1d f   mfcdload:ole32.obj
 0001:0002de29       _RegisterDragDrop@8        5f72ee29 f   mfcdload:ole32.obj
 0001:0002de35       _OleFlushClipboard@0       5f72ee35 f   mfcdload:ole32.obj
 0001:0002de3f       _CoGetMalloc@8             5f72ee3f f   mfcdload:ole32.obj
 0001:0002de4b       _OleRegGetMiscStatus@12    5f72ee4b f   mfcdload:ole32.obj
 0001:0002de57       _OleRegGetUserType@12      5f72ee57 f   mfcdload:ole32.obj
 0001:0002de63       _CreateOleAdviseHolder@4   5f72ee63 f   mfcdload:ole32.obj
 0001:0002de6f       _OleRun@4                  5f72ee6f f   mfcdload:ole32.obj
 0001:0002de7b       _FreePropVariantArray@8    5f72ee7b f   mfcdload:ole32.obj
 0001:0002de87       _CreateBindCtx@8           5f72ee87 f   mfcdload:ole32.obj
 0001:0002de93       _CoGetClassObject@20       5f72ee93 f   mfcdload:ole32.obj
 0001:0002dea8       _OleDraw@16                5f72eea8 f   mfcdload:ole32.obj
 0001:0002deb4       _OleCreateFromData@28      5f72eeb4 f   mfcdload:ole32.obj
 0001:0002dec9       _OleSetMenuDescriptor@20   5f72eec9 f   mfcdload:ole32.obj
 0001:0002ded5       _OleSave@12                5f72eed5 f   mfcdload:ole32.obj
 0001:0002dee1       _CoFileTimeNow@4           5f72eee1 f   mfcdload:ole32.obj
 0001:0002defe       _CoRegisterMessageFilter@8 5f72eefe f   mfcdload:ole32.obj
 0001:0002df0a       _GetHGlobalFromStream@8    5f72ef0a f   mfcdload:ole32.obj
 0001:0002df16       _PropVariantCopy@8         5f72ef16 f   mfcdload:ole32.obj
 0001:0002df22       _CoAllowSetForegroundWindow@8 5f72ef22 f   mfcdload:ole32.obj
 0001:0002df2e       _CoCreateFreeThreadedMarshaler@8 5f72ef2e f   mfcdload:ole32.obj
 0001:0002df43       _CoWaitForMultipleHandles@20 5f72ef43 f   mfcdload:ole32.obj
 0001:0002df4f       _StgIsStorageFile@4        5f72ef4f f   mfcdload:ole32.obj
 0001:0002df5b       _SetConvertStg@8           5f72ef5b f   mfcdload:ole32.obj
 0001:0002df67       _CoLockObjectExternal@12   5f72ef67 f   mfcdload:ole32.obj
 0001:0002df73       _OleTranslateAccelerator@12 5f72ef73 f   mfcdload:ole32.obj
 0001:0002df7f       _IsAccelerator@16          5f72ef7f f   mfcdload:ole32.obj
 0001:0002df8f       _OleCreateMenuDescriptor@8 5f72ef8f f   mfcdload:ole32.obj
 0001:0002df9f       _OleDestroyMenuDescriptor@4 5f72ef9f f   mfcdload:ole32.obj
 0001:0002dfab       _WriteClassStg@8           5f72efab f   mfcdload:ole32.obj
 0001:0002dfb7       _OleDuplicateData@12       5f72efb7 f   mfcdload:ole32.obj
 0001:0002dfc7       _ReadClassStg@8            5f72efc7 f   mfcdload:ole32.obj
 0001:0002dfd3       _WriteFmtUserTypeStg@12    5f72efd3 f   mfcdload:ole32.obj
 0001:0002dfdf       _CoTreatAsClass@8          5f72efdf f   mfcdload:ole32.obj
 0001:0002dfeb       _ReadFmtUserTypeStg@12     5f72efeb f   mfcdload:ole32.obj
 0001:0002dff7       _OleIsCurrentClipboard@4   5f72eff7 f   mfcdload:ole32.obj
 0001:0002e003       _CreateDataCache@16        5f72f003 f   mfcdload:ole32.obj
 0001:0002e00f       _ReadClassStm@8            5f72f00f f   mfcdload:ole32.obj
 0001:0002e01b       _CoDisconnectObject@8      5f72f01b f   mfcdload:ole32.obj
 0001:0002e027       _CreateGenericComposite@12 5f72f027 f   mfcdload:ole32.obj
 0001:0002e033       _OleSetContainedObject@8   5f72f033 f   mfcdload:ole32.obj
 0001:0002e03f       _OleCreateLinkFromData@28  5f72f03f f   mfcdload:ole32.obj
 0001:0002e04b       _OleCreateStaticFromData@28 5f72f04b f   mfcdload:ole32.obj
 0001:0002e057       _OleCreateFromFile@32      5f72f057 f   mfcdload:ole32.obj
 0001:0002e063       _OleIsRunning@4            5f72f063 f   mfcdload:ole32.obj
 0001:0002e073       _OleCreate@28              5f72f073 f   mfcdload:ole32.obj
 0001:0002e07f       _OleCreateLinkToFile@28    5f72f07f f   mfcdload:ole32.obj
 0001:0002e08b       _GetHGlobalFromILockBytes@8 5f72f08b f   mfcdload:ole32.obj
 0001:0002e097       _StgOpenStorageOnILockBytes@24 5f72f097 f   mfcdload:ole32.obj
 0001:0002e0a3       _OleGetIconOfClass@12      5f72f0a3 f   mfcdload:ole32.obj
 0001:0002e0b3       _OleLoad@16                5f72f0b3 f   mfcdload:ole32.obj
 0001:0002d940       _SysAllocString@4          5f72e940 f   mfcdload:oleaut32.obj
 0001:0002d949       _SysFreeString@4           5f72e949 f   mfcdload:oleaut32.obj
 0001:0002d950       _VariantInit@4             5f72e950 f   mfcdload:oleaut32.obj
 0001:0002d95f       _VariantClear@4            5f72e95f f   mfcdload:oleaut32.obj
 0001:0002d973       _SysAllocStringByteLen@8   5f72e973 f   mfcdload:oleaut32.obj
 0001:0002d97c       _SafeArrayGetDim@4         5f72e97c f   mfcdload:oleaut32.obj
 0001:0002d985       _SysStringByteLen@4        5f72e985 f   mfcdload:oleaut32.obj
 0001:0002d98e       _SafeArrayCreateVector@12  5f72e98e f   mfcdload:oleaut32.obj
 0001:0002d997       _SafeArrayCreate@12        5f72e997 f   mfcdload:oleaut32.obj
 0001:0002d9a0       _SafeArrayCopy@8           5f72e9a0 f   mfcdload:oleaut32.obj
 0001:0002d9ac       _SafeArrayPutElement@12    5f72e9ac f   mfcdload:oleaut32.obj
 0001:0002d9b8       _SafeArrayDestroy@4        5f72e9b8 f   mfcdload:oleaut32.obj
 0001:0002d9c4       _SafeArrayAccessData@8     5f72e9c4 f   mfcdload:oleaut32.obj
 0001:0002d9d0       _SafeArrayUnaccessData@4   5f72e9d0 f   mfcdload:oleaut32.obj
 0001:0002d9dc       _VariantTimeToSystemTime@12 5f72e9dc f   mfcdload:oleaut32.obj
 0001:0002d9e5       _OleCreatePropertyFrame@44 5f72e9e5 f   mfcdload:oleaut32.obj
 0001:0002d9f1       _SysStringLen@4            5f72e9f1 f   mfcdload:oleaut32.obj
 0001:0002d9fa       _LoadRegTypeLib@20         5f72e9fa f   mfcdload:oleaut32.obj
 0001:0002da06       _SetErrorInfo@8            5f72ea06 f   mfcdload:oleaut32.obj
 0001:0002da12       _SystemTimeToVariantTime@8 5f72ea12 f   mfcdload:oleaut32.obj
 0001:0002da1b       _VariantCopy@8             5f72ea1b f   mfcdload:oleaut32.obj
 0001:0002da27       _DosDateTimeToVariantTime@12 5f72ea27 f   mfcdload:oleaut32.obj
 0001:0002da30       _VariantTimeToDosDateTime@16 5f72ea30 f   mfcdload:oleaut32.obj
 0001:0002da39       _SafeArrayGetUBound@12     5f72ea39 f   mfcdload:oleaut32.obj
 0001:0002da45       _VarCmp@16                 5f72ea45 f   mfcdload:oleaut32.obj
 0001:0002da51       _RegisterTypeLib@12        5f72ea51 f   mfcdload:oleaut32.obj
 0001:0002da5d       _LoadTypeLib@8             5f72ea5d f   mfcdload:oleaut32.obj
 0001:0002da69       _SysAllocStringLen@8       5f72ea69 f   mfcdload:oleaut32.obj
 0001:0002da72       _VariantChangeType@16      5f72ea72 f   mfcdload:oleaut32.obj
 0001:0002da7e       _SafeArrayGetLBound@12     5f72ea7e f   mfcdload:oleaut32.obj
 0001:0002da8a       _DispInvoke@32             5f72ea8a f   mfcdload:oleaut32.obj
 0001:0002da96       _DispGetIDsOfNames@16      5f72ea96 f   mfcdload:oleaut32.obj
 0001:0002daa2       _SafeArrayGetElement@12    5f72eaa2 f   mfcdload:oleaut32.obj
 0001:0002daae       _OleCreatePropertyFrameIndirect@4 5f72eaae f   mfcdload:oleaut32.obj
 0001:0002daba       _VariantCopyInd@8          5f72eaba f   mfcdload:oleaut32.obj
 0001:0002dac6       _SafeArrayGetElemsize@4    5f72eac6 f   mfcdload:oleaut32.obj
 0001:0002dacf       _VarUI4FromStr@16          5f72eacf f   mfcdload:oleaut32.obj
 0001:0002dadb       _CreateErrorInfo@4         5f72eadb f   mfcdload:oleaut32.obj
 0001:0002dae7       _VarDateFromStr@16         5f72eae7 f   mfcdload:oleaut32.obj
 0001:0002daf3       _SafeArrayDestroyDescriptor@4 5f72eaf3 f   mfcdload:oleaut32.obj
 0001:0002daff       _SafeArrayDestroyData@4    5f72eaff f   mfcdload:oleaut32.obj
 0001:0002db0b       _SafeArrayUnlock@4         5f72eb0b f   mfcdload:oleaut32.obj
 0001:0002db17       _SafeArrayLock@4           5f72eb17 f   mfcdload:oleaut32.obj
 0001:0002db23       _SafeArrayPtrOfIndex@12    5f72eb23 f   mfcdload:oleaut32.obj
 0001:0002db2f       _SafeArrayAllocDescriptor@8 5f72eb2f f   mfcdload:oleaut32.obj
 0001:0002db3b       _SafeArrayAllocData@4      5f72eb3b f   mfcdload:oleaut32.obj
 0001:0002db47       _VarBstrFromDate@20        5f72eb47 f   mfcdload:oleaut32.obj
 0001:0002db53       _VarBstrFromCy@20          5f72eb53 f   mfcdload:oleaut32.obj
 0001:0002db5f       _VarCyFromStr@16           5f72eb5f f   mfcdload:oleaut32.obj
 0001:0002db6b       _SafeArrayRedim@8          5f72eb6b f   mfcdload:oleaut32.obj
 0001:0002db77       _SysReAllocStringLen@12    5f72eb77 f   mfcdload:oleaut32.obj
 0001:0002d800       _OleUIConvertA@4           5f72e800 f   mfcdload:oledlg.obj
 0001:0002d810       _OleUIInsertObjectA@4      5f72e810 f   mfcdload:oledlg.obj
 0001:0002d820       _OleUIAddVerbMenuA@36      5f72e820 f   mfcdload:oledlg.obj
 0001:0002d830       _OleUIChangeSourceA@4      5f72e830 f   mfcdload:oledlg.obj
 0001:0002d840       _OleUIObjectPropertiesA@4  5f72e840 f   mfcdload:oledlg.obj
 0001:0002d850       _OleUIBusyA@4              5f72e850 f   mfcdload:oledlg.obj
 0001:0002d860       _OleUIPasteSpecialA@4      5f72e860 f   mfcdload:oledlg.obj
 0001:0002d870       _OleUIUpdateLinksA@16      5f72e870 f   mfcdload:oledlg.obj
 0001:0002d880       _OleUIEditLinksA@4         5f72e880 f   mfcdload:oledlg.obj
 0001:0002d890       _OleUIChangeIconA@4        5f72e890 f   mfcdload:oledlg.obj
 0001:0002d8a0       _OleUIConvertW@4           5f72e8a0 f   mfcdload:oledlg.obj
 0001:0002d8b0       _OleUIInsertObjectW@4      5f72e8b0 f   mfcdload:oledlg.obj
 0001:0002d8c0       _OleUIAddVerbMenuW@36      5f72e8c0 f   mfcdload:oledlg.obj
 0001:0002d8d0       _OleUIChangeSourceW@4      5f72e8d0 f   mfcdload:oledlg.obj
 0001:0002d8e0       _OleUIObjectPropertiesW@4  5f72e8e0 f   mfcdload:oledlg.obj
 0001:0002d8f0       _OleUIBusyW@4              5f72e8f0 f   mfcdload:oledlg.obj
 0001:0002d900       _OleUIPasteSpecialW@4      5f72e900 f   mfcdload:oledlg.obj
 0001:0002d910       _OleUIUpdateLinksW@16      5f72e910 f   mfcdload:oledlg.obj
 0001:0002d920       _OleUIEditLinksW@4         5f72e920 f   mfcdload:oledlg.obj
 0001:0002d930       _OleUIChangeIconW@4        5f72e930 f   mfcdload:oledlg.obj
 0001:0002d760       _OleTranslateColor@12      5f72e760 f   mfcdload:olepro32.obj
 0001:0002d776       _OleCreateFontIndirect@12  5f72e776 f   mfcdload:olepro32.obj
 0001:0002d78c       _OleCreatePictureIndirect@16 5f72e78c f   mfcdload:olepro32.obj
 0001:0002d7a2       _OleLoadPicture@20         5f72e7a2 f   mfcdload:olepro32.obj
 0001:0002d7b8       _OleIconToCursor@8         5f72e7b8 f   mfcdload:olepro32.obj
 0001:0002d7cb       _OleCreatePropertyFrame@44 5f72e7cb f   mfcdload:olepro32.obj
 0001:0002d7e1       _OleCreatePropertyFrameIndirect@4 5f72e7e1 f   mfcdload:olepro32.obj
 0001:0002d2c0       _ExtractIconExW@20         5f72e2c0 f   mfcdload:shell32.obj
 0001:0002d2c9       _ExtractIconExA@20         5f72e2c9 f   mfcdload:shell32.obj
 0001:0002d2d2       _FindExecutableA@12        5f72e2d2 f   mfcdload:shell32.obj
 0001:0002d2db       _FindExecutableW@12        5f72e2db f   mfcdload:shell32.obj
 0001:0002d2e4       _RestartDialog@12          5f72e2e4 f   mfcdload:shell32.obj
 0001:0002d2f0       _RestartDialogEx@16        5f72e2f0 f   mfcdload:shell32.obj
 0001:0002d2fc       _SHBrowseForFolderW@4      5f72e2fc f   mfcdload:shell32.obj
 0001:0002d305       _SHBrowseForFolderA@4      5f72e305 f   mfcdload:shell32.obj
 0001:0002d30e       _SHChangeNotify@16         5f72e30e f   mfcdload:shell32.obj
 0001:0002d315       _SHGetFolderPathA@20       5f72e315 f   mfcdload:shell32.obj
 0001:0002d327       _SHGetFolderPathW@20       5f72e327 f   mfcdload:shell32.obj
 0001:0002d33b       _SHGetMalloc@4             5f72e33b f   mfcdload:shell32.obj
 0001:0002d347       _SHGetPathFromIDListW@8    5f72e347 f   mfcdload:shell32.obj
 0001:0002d350       _SHGetPathFromIDListA@8    5f72e350 f   mfcdload:shell32.obj
 0001:0002d359       _SHGetSpecialFolderLocation@12 5f72e359 f   mfcdload:shell32.obj
 0001:0002d365       _SHGetSpecialFolderPathW@16 5f72e365 f   mfcdload:shell32.obj
 0001:0002d36e       _ShellAboutW@16            5f72e36e f   mfcdload:shell32.obj
 0001:0002d377       _ShellExecuteA@24          5f72e377 f   mfcdload:shell32.obj
 0001:0002d380       _ShellExecuteExW@4         5f72e380 f   mfcdload:shell32.obj
 0001:0002d389       _ShellExecuteExA@4         5f72e389 f   mfcdload:shell32.obj
 0001:0002d392       _ShellExecuteW@24          5f72e392 f   mfcdload:shell32.obj
 0001:0002d39b       _LinkWindow_RegisterClass@0 5f72e39b f   mfcdload:shell32.obj
 0001:0002d3a2       _LinkWindow_UnregisterClass@4 5f72e3a2 f   mfcdload:shell32.obj
 0001:0002d3ab       _DragQueryFileA@16         5f72e3ab f   mfcdload:shell32.obj
 0001:0002d3b5       _DragQueryFileW@16         5f72e3b5 f   mfcdload:shell32.obj
 0001:0002d3bf       _SHDefExtractIconA@24      5f72e3bf f   mfcdload:shell32.obj
 0001:0002d3cb       _SHDefExtractIconW@24      5f72e3cb f   mfcdload:shell32.obj
 0001:0002d3d7       _SHGetNewLinkInfoA@20      5f72e3d7 f   mfcdload:shell32.obj
 0001:0002d3e0       _SHGetNewLinkInfoW@20      5f72e3e0 f   mfcdload:shell32.obj
 0001:0002d3e9       _ExtractIconW@12           5f72e3e9 f   mfcdload:shell32.obj
 0001:0002d3f2       _SHGetFileInfoA@20         5f72e3f2 f   mfcdload:shell32.obj
 0001:0002d3fb       _SHGetFileInfoW@20         5f72e3fb f   mfcdload:shell32.obj
 0001:0002d404       _DriveType@4               5f72e404 f   mfcdload:shell32.obj
 0001:0002d40d       _RealDriveType@8           5f72e40d f   mfcdload:shell32.obj
 0001:0002d416       _ILFree@4                  5f72e416 f   mfcdload:shell32.obj
 0001:0002d41d       _ILClone@4                 5f72e41d f   mfcdload:shell32.obj
 0001:0002d426       _ILIsEqual@8               5f72e426 f   mfcdload:shell32.obj
 0001:0002d43a       _SHGetDesktopFolder@4      5f72e43a f   mfcdload:shell32.obj
 0001:0002d44f       _Shell_GetCachedImageIndex@12 5f72e44f f   mfcdload:shell32.obj
 0001:0002d459       _SHFileOperationA@4        5f72e459 f   mfcdload:shell32.obj
 0001:0002d465       _SHFileOperationW@4        5f72e465 f   mfcdload:shell32.obj
 0001:0002d471       _IsNetDrive@4              5f72e471 f   mfcdload:shell32.obj
 0001:0002d47a       _ILGetSize@4               5f72e47a f   mfcdload:shell32.obj
 0001:0002d483       _SHFlushSFCache@0          5f72e483 f   mfcdload:shell32.obj
 0001:0002d488       _SHCoCreateInstance@20     5f72e488 f   mfcdload:shell32.obj
 0001:0002d49d       _SHGetInstanceExplorer@4   5f72e49d f   mfcdload:shell32.obj
 0001:0002d4b2       _SHGetDataFromIDListW@20   5f72e4b2 f   mfcdload:shell32.obj
 0001:0002d4be       _SHBindToParent@16         5f72e4be f   mfcdload:shell32.obj
 0001:0002d4d3       _SHFree@4                  5f72e4d3 f   mfcdload:shell32.obj
 0001:0002d4da       _Shell_GetImageLists@8     5f72e4da f   mfcdload:shell32.obj
 0001:0002d501       _DAD_DragEnterEx2@16       5f72e501 f   mfcdload:shell32.obj
 0001:0002d50a       _DAD_DragMove@8            5f72e50a f   mfcdload:shell32.obj
 0001:0002d513       _SHGetDataFromIDListA@20   5f72e513 f   mfcdload:shell32.obj
 0001:0002d51f       _ILCombine@8               5f72e51f f   mfcdload:shell32.obj
 0001:0002d528       _SHDoDragDrop@20           5f72e528 f   mfcdload:shell32.obj
 0001:0002d534       _SHLoadOLE@4               5f72e534 f   mfcdload:shell32.obj
 0001:0002d53d       _SHSetInstanceExplorer@4   5f72e53d f   mfcdload:shell32.obj
 0001:0002d544       _SHCreateStdEnumFmtEtc@12  5f72e544 f   mfcdload:shell32.obj
 0001:0002d550       _ILLoadFromStream@8        5f72e550 f   mfcdload:shell32.obj
 0001:0002d55c       _Shell_MergeMenus@24       5f72e55c f   mfcdload:shell32.obj
 0001:0002d566       _ILCloneFirst@4            5f72e566 f   mfcdload:shell32.obj
 0001:0002d56f       _SHChangeNotifyDeregister@4 5f72e56f f   mfcdload:shell32.obj
 0001:0002d578       _SHFlushClipboard@0        5f72e578 f   mfcdload:shell32.obj
 0001:0002d582       _ILFindChild@8             5f72e582 f   mfcdload:shell32.obj
 0001:0002d58b       _ILIsParent@12             5f72e58b f   mfcdload:shell32.obj
 0001:0002d594       _ILRemoveLastID@4          5f72e594 f   mfcdload:shell32.obj
 0001:0002d59d       _SHFind_InitMenuPopup@16   5f72e59d f   mfcdload:shell32.obj
 0001:0002d5a6       _SHChangeNotification_Unlock@4 5f72e5a6 f   mfcdload:shell32.obj
 0001:0002d5af       _SHChangeNotification_Lock@16 5f72e5af f   mfcdload:shell32.obj
 0001:0002d5b8       _SHGetRealIDL@12           5f72e5b8 f   mfcdload:shell32.obj
 0001:0002d5cd       _ILSaveToStream@8          5f72e5cd f   mfcdload:shell32.obj
 0001:0002d5d9       _DAD_ShowDragImage@4       5f72e5d9 f   mfcdload:shell32.obj
 0001:0002d5e2       _SignalFileOpen@4          5f72e5e2 f   mfcdload:shell32.obj
 0001:0002d5eb       _SHMapPIDLToSystemImageListIndex@12 5f72e5eb f   mfcdload:shell32.obj
 0001:0002d5f5       _ILGetNext@4               5f72e5f5 f   mfcdload:shell32.obj
 0001:0002d5fe       _PathIsExe@4               5f72e5fe f   mfcdload:shell32.obj
 0001:0002d607       _DAD_DragLeave@0           5f72e607 f   mfcdload:shell32.obj
 0001:0002d60e       _SHAppBarMessage@8         5f72e60e f   mfcdload:shell32.obj
 0001:0002d617       _ExtractAssociatedIconExW@16 5f72e617 f   mfcdload:shell32.obj
 0001:0002d620       _DAD_SetDragImage@8        5f72e620 f   mfcdload:shell32.obj
 0001:0002d62c       _ILAppendID@12             5f72e62c f   mfcdload:shell32.obj
 0001:0002d635       _SHHandleUpdateImage@4     5f72e635 f   mfcdload:shell32.obj
 0001:0002d63f       _SHCloneSpecialIDList@12   5f72e63f f   mfcdload:shell32.obj
 0001:0002d648       _ShellAboutA@16            5f72e648 f   mfcdload:shell32.obj
 0001:0002d651       _SHCreateDirectory@8       5f72e651 f   mfcdload:shell32.obj
 0001:0002d65d       _PathCleanupSpec@8         5f72e65d f   mfcdload:shell32.obj
 0001:0002d666       _SHAlloc@4                 5f72e666 f   mfcdload:shell32.obj
 0001:0002d66f       _ILCreateFromPathW@4       5f72e66f f   mfcdload:shell32.obj
 0001:0002d678       _ILFindLastID@4            5f72e678 f   mfcdload:shell32.obj
 0001:0002d681       _SHUpdateImageW@16         5f72e681 f   mfcdload:shell32.obj
 0001:0002d688       _SHLimitInputEdit@8        5f72e688 f   mfcdload:shell32.obj
 0001:0002d694       _SHPathPrepareForWriteW@16 5f72e694 f   mfcdload:shell32.obj
 0001:0002d6a0       _SHLoadInProc@4            5f72e6a0 f   mfcdload:shell32.obj
 0001:0002d6ac       _PathProcessCommand@16     5f72e6ac f   mfcdload:shell32.obj
 0001:0002d6b6       _SHCLSIDFromString@8       5f72e6b6 f   mfcdload:shell32.obj
 0001:0002d6d2       _SHILCreateFromPath@12     5f72e6d2 f   mfcdload:shell32.obj
 0001:0002d6de       _SHSimpleIDListFromPath@4  5f72e6de f   mfcdload:shell32.obj
 0001:0002d6e7       _GetFileNameFromBrowse@28  5f72e6e7 f   mfcdload:shell32.obj
 0001:0002d6f0       _OpenRegStream@16          5f72e6f0 f   mfcdload:shell32.obj
 0001:0002d6f9       _PathYetAnotherMakeUniqueName@16 5f72e6f9 f   mfcdload:shell32.obj
 0001:0002d702       _PickIconDlg@16            5f72e702 f   mfcdload:shell32.obj
 0001:0002d70b       _SHShellFolderView_Message@12 5f72e70b f   mfcdload:shell32.obj
 0001:0002d714       _SHFindFiles@8             5f72e714 f   mfcdload:shell32.obj
 0001:0002d71d       _DAD_DragEnterEx@12        5f72e71d f   mfcdload:shell32.obj
 0001:0002d726       _DragFinish@4              5f72e726 f   mfcdload:shell32.obj
 0001:0002d734       _DragAcceptFiles@8         5f72e734 f   mfcdload:shell32.obj
 0001:0002d742       _ExtractIconA@12           5f72e742 f   mfcdload:shell32.obj
 0001:0002d120       _CoInternetGetSession@12   5f72e120 f   mfcdload:urlmon.obj
 0001:0002d135       _RevokeBindStatusCallback@8 5f72e135 f   mfcdload:urlmon.obj
 0001:0002d141       _CreateURLMoniker@12       5f72e141 f   mfcdload:urlmon.obj
 0001:0002d156       _HlinkNavigateString@8     5f72e156 f   mfcdload:urlmon.obj
 0001:0002d162       _RegisterBindStatusCallback@16 5f72e162 f   mfcdload:urlmon.obj
 0001:0002d16e       _UrlMkGetSessionOption@20  5f72e16e f   mfcdload:urlmon.obj
 0001:0002d186       _CoInternetQueryInfo@28    5f72e186 f   mfcdload:urlmon.obj
 0001:0002d192       _CreateFormatEnumerator@12 5f72e192 f   mfcdload:urlmon.obj
 0001:0002d19e       _URLDownloadToFileW@20     5f72e19e f   mfcdload:urlmon.obj
 0001:0002d1aa       _FaultInIEFeature@16       5f72e1aa f   mfcdload:urlmon.obj
 0001:0002d1b6       _CoInternetParseUrl@28     5f72e1b6 f   mfcdload:urlmon.obj
 0001:0002d1c2       _GetSoftwareUpdateInfo@8   5f72e1c2 f   mfcdload:urlmon.obj
 0001:0002d1ce       _SetSoftwareUpdateAdvertisementState@16 5f72e1ce f   mfcdload:urlmon.obj
 0001:0002d1da       _CoInternetCreateSecurityManager@12 5f72e1da f   mfcdload:urlmon.obj
 0001:0002d1ef       _GetMarkOfTheWeb@16        5f72e1ef f   mfcdload:urlmon.obj
 0001:0002d204       _URLOpenBlockingStreamW@20 5f72e204 f   mfcdload:urlmon.obj
 0001:0002d210       _FindMimeFromData@32       5f72e210 f   mfcdload:urlmon.obj
 0001:0002d21c       _URLDownloadToCacheFileW@24 5f72e21c f   mfcdload:urlmon.obj
 0001:0002d228       _ObtainUserAgentString@12  5f72e228 f   mfcdload:urlmon.obj
 0001:0002d234       _CoInternetGetSecurityUrl@16 5f72e234 f   mfcdload:urlmon.obj
 0001:0002d24f       _CreateAsyncBindCtxEx@24   5f72e24f f   mfcdload:urlmon.obj
 0001:0002d25b       _RegisterMediaTypeClass@20 5f72e25b f   mfcdload:urlmon.obj
 0001:0002d267       _ReleaseBindInfo@4         5f72e267 f   mfcdload:urlmon.obj
 0001:0002d26e       _RevokeFormatEnumerator@8  5f72e26e f   mfcdload:urlmon.obj
 0001:0002d27a       _RegisterFormatEnumerator@12 5f72e27a f   mfcdload:urlmon.obj
 0001:0002d286       _CoInternetCombineUrl@28   5f72e286 f   mfcdload:urlmon.obj
 0001:0002d292       _IsValidURL@12             5f72e292 f   mfcdload:urlmon.obj
 0001:0002d29e       _CreateAsyncBindCtx@16     5f72e29e f   mfcdload:urlmon.obj
 0001:0002d2aa       _IsAsyncMoniker@4          5f72e2aa f   mfcdload:urlmon.obj
 0001:0002ccf0       _CreateUrlCacheEntryW@20   5f72dcf0 f   mfcdload:wininet.obj
 0001:0002ccf9       _InternetOpenUrlW@24       5f72dcf9 f   mfcdload:wininet.obj
 0001:0002cd02       _CommitUrlCacheEntryW@44   5f72dd02 f   mfcdload:wininet.obj
 0001:0002cd0b       _InternetReadFile@16       5f72dd0b f   mfcdload:wininet.obj
 0001:0002cd1d       _InternetOpenW@20          5f72dd1d f   mfcdload:wininet.obj
 0001:0002cd26       _InternetCloseHandle@4     5f72dd26 f   mfcdload:wininet.obj
 0001:0002cd2f       _InternetCrackUrlW@16      5f72dd2f f   mfcdload:wininet.obj
 0001:0002cd38       _InternetConnectW@32       5f72dd38 f   mfcdload:wininet.obj
 0001:0002cd41       _HttpOpenRequestW@32       5f72dd41 f   mfcdload:wininet.obj
 0001:0002cd4a       _HttpSendRequestW@20       5f72dd4a f   mfcdload:wininet.obj
 0001:0002cd53       _InternetErrorDlg@20       5f72dd53 f   mfcdload:wininet.obj
 0001:0002cd5f       _InternetFortezzaCommand@12 5f72dd5f f   mfcdload:wininet.obj
 0001:0002cd68       _GetUrlCacheEntryInfoExW@28 5f72dd68 f   mfcdload:wininet.obj
 0001:0002cd71       _InternetGoOnlineW@12      5f72dd71 f   mfcdload:wininet.obj
 0001:0002cd7a       _InternetQueryFortezzaStatus@8 5f72dd7a f   mfcdload:wininet.obj
 0001:0002cd83       _InternetConfirmZoneCrossingW@16 5f72dd83 f   mfcdload:wininet.obj
 0001:0002cd8f       _GetUrlCacheEntryInfoExA@28 5f72dd8f f   mfcdload:wininet.obj
 0001:0002cd98       _ReadUrlCacheEntryStream@20 5f72dd98 f   mfcdload:wininet.obj
 0001:0002cda1       _IsProfilesEnabled@0       5f72dda1 f   mfcdload:wininet.obj
 0001:0002cda8       _CreateUrlCacheContainerA@32 5f72dda8 f   mfcdload:wininet.obj
 0001:0002cdb1       _DeleteUrlCacheContainerA@8 5f72ddb1 f   mfcdload:wininet.obj
 0001:0002cdba       _RetrieveUrlCacheEntryStreamW@20 5f72ddba f   mfcdload:wininet.obj
 0001:0002cdc3       _UnlockUrlCacheEntryStream@8 5f72ddc3 f   mfcdload:wininet.obj
 0001:0002cdcc       _InternetClearAllPerSiteCookieDecisions@0 5f72ddcc f   mfcdload:wininet.obj
 0001:0002cdd6       _PrivacySetZonePreferenceW@16 5f72ddd6 f   mfcdload:wininet.obj
 0001:0002cde2       _DeleteUrlCacheEntryA@4    5f72dde2 f   mfcdload:wininet.obj
 0001:0002cdeb       _InternetGetPerSiteCookieDecisionW@8 5f72ddeb f   mfcdload:wininet.obj
 0001:0002cdf4       _InternetEnumPerSiteCookieDecisionW@16 5f72ddf4 f   mfcdload:wininet.obj
 0001:0002cdfd       _InternetSetPerSiteCookieDecisionW@8 5f72ddfd f   mfcdload:wininet.obj
 0001:0002ce06       _ExportCookieFileW@8       5f72de06 f   mfcdload:wininet.obj
 0001:0002ce0f       _FindCloseUrlCache@4       5f72de0f f   mfcdload:wininet.obj
 0001:0002ce18       _GetUrlCacheEntryInfoA@12  5f72de18 f   mfcdload:wininet.obj
 0001:0002ce21       _CommitUrlCacheEntryA@44   5f72de21 f   mfcdload:wininet.obj
 0001:0002ce2a       _InternetCanonicalizeUrlW@16 5f72de2a f   mfcdload:wininet.obj
 0001:0002ce33       _InternetGetConnectedStateExA@16 5f72de33 f   mfcdload:wininet.obj
 0001:0002ce3c       _InternetGetConnectedState@8 5f72de3c f   mfcdload:wininet.obj
 0001:0002ce45       _FindNextUrlCacheEntryA@12 5f72de45 f   mfcdload:wininet.obj
 0001:0002ce4e       _FindFirstUrlCacheEntryA@12 5f72de4e f   mfcdload:wininet.obj
 0001:0002ce57       _FreeUrlCacheSpaceW@12     5f72de57 f   mfcdload:wininet.obj
 0001:0002ce60       _FindNextUrlCacheEntryW@12 5f72de60 f   mfcdload:wininet.obj
 0001:0002ce69       _FindFirstUrlCacheEntryW@12 5f72de69 f   mfcdload:wininet.obj
 0001:0002ce72       _DeleteUrlCacheEntryW@4    5f72de72 f   mfcdload:wininet.obj
 0001:0002ce7b       _InternetShowSecurityInfoByURLW@8 5f72de7b f   mfcdload:wininet.obj
 0001:0002ce84       _SetUrlCacheEntryInfoW@12  5f72de84 f   mfcdload:wininet.obj
 0001:0002ce8d       _InternetCreateUrlW@16     5f72de8d f   mfcdload:wininet.obj
 0001:0002ce96       _GetUrlCacheEntryInfoW@12  5f72de96 f   mfcdload:wininet.obj
 0001:0002ce9f       _HttpOpenRequestA@32       5f72de9f f   mfcdload:wininet.obj
 0001:0002cea8       _InternetConnectA@32       5f72dea8 f   mfcdload:wininet.obj
 0001:0002ceb1       _InternetSetStatusCallbackA@8 5f72deb1 f   mfcdload:wininet.obj
 0001:0002cebb       _InternetOpenA@20          5f72debb f   mfcdload:wininet.obj
 0001:0002cec4       _InternetCrackUrlA@16      5f72dec4 f   mfcdload:wininet.obj
 0001:0002cecd       _HttpAddRequestHeadersA@16 5f72decd f   mfcdload:wininet.obj
 0001:0002ced6       _HttpQueryInfoW@20         5f72ded6 f   mfcdload:wininet.obj
 0001:0002cedf       _HttpSendRequestA@20       5f72dedf f   mfcdload:wininet.obj
 0001:0002cee8       _RegisterUrlCacheNotification@24 5f72dee8 f   mfcdload:wininet.obj
 0001:0002cef1       _SetUrlCacheEntryGroupW@28 5f72def1 f   mfcdload:wininet.obj
 0001:0002cefa       _InternetSetOptionW@16     5f72defa f   mfcdload:wininet.obj
 0001:0002cf03       _InternetTimeToSystemTimeW@12 5f72df03 f   mfcdload:wininet.obj
 0001:0002cf0c       _InternetInitializeAutoProxyDll@4 5f72df0c f   mfcdload:wininet.obj
 0001:0002cf15       _InternetSetOptionA@16     5f72df15 f   mfcdload:wininet.obj
 0001:0002cf1e       _InternetQueryOptionA@16   5f72df1e f   mfcdload:wininet.obj
 0001:0002cf27       _FindP3PPolicySymbol@4     5f72df27 f   mfcdload:wininet.obj
 0001:0002cf31       _IsDomainLegalCookieDomainW@8 5f72df31 f   mfcdload:wininet.obj
 0001:0002cf3a       _HttpQueryInfoA@20         5f72df3a f   mfcdload:wininet.obj
 0001:0002cf43       _InternetOpenUrlA@24       5f72df43 f   mfcdload:wininet.obj
 0001:0002cf4c       _InternetSetOptionExA@20   5f72df4c f   mfcdload:wininet.obj
 0001:0002cf55       _InternetSetOptionExW@20   5f72df55 f   mfcdload:wininet.obj
 0001:0002cf5e       _InternetSetCookieA@12     5f72df5e f   mfcdload:wininet.obj
 0001:0002cf67       _InternetSetCookieW@12     5f72df67 f   mfcdload:wininet.obj
 0001:0002cf70       _InternetGetCookieA@16     5f72df70 f   mfcdload:wininet.obj
 0001:0002cf79       _InternetGetCookieW@16     5f72df79 f   mfcdload:wininet.obj
 0001:0002cf82       _FtpGetCurrentDirectoryA@12 5f72df82 f   mfcdload:wininet.obj
 0001:0002cf8b       _FtpGetCurrentDirectoryW@12 5f72df8b f   mfcdload:wininet.obj
 0001:0002cf94       _GopherGetAttributeA@32    5f72df94 f   mfcdload:wininet.obj
 0001:0002cf9d       _GopherGetAttributeW@32    5f72df9d f   mfcdload:wininet.obj
 0001:0002cfa6       _InternetCanonicalizeUrlA@16 5f72dfa6 f   mfcdload:wininet.obj
 0001:0002cfaf       _FtpCreateDirectoryA@8     5f72dfaf f   mfcdload:wininet.obj
 0001:0002cfb8       _FtpCreateDirectoryW@8     5f72dfb8 f   mfcdload:wininet.obj
 0001:0002cfc1       _InternetGetLastResponseInfoA@12 5f72dfc1 f   mfcdload:wininet.obj
 0001:0002cfca       _InternetGetLastResponseInfoW@12 5f72dfca f   mfcdload:wininet.obj
 0001:0002cfd3       _HttpSendRequestExA@20     5f72dfd3 f   mfcdload:wininet.obj
 0001:0002cfdc       _HttpSendRequestExW@20     5f72dfdc f   mfcdload:wininet.obj
 0001:0002cfe5       _FtpFindFirstFileA@20      5f72dfe5 f   mfcdload:wininet.obj
 0001:0002cfee       _FtpFindFirstFileW@20      5f72dfee f   mfcdload:wininet.obj
 0001:0002cff7       _GopherFindFirstFileA@24   5f72dff7 f   mfcdload:wininet.obj
 0001:0002d000       _GopherFindFirstFileW@24   5f72e000 f   mfcdload:wininet.obj
 0001:0002d009       _InternetFindNextFileA@8   5f72e009 f   mfcdload:wininet.obj
 0001:0002d012       _InternetFindNextFileW@8   5f72e012 f   mfcdload:wininet.obj
 0001:0002d01b       _HttpEndRequestA@16        5f72e01b f   mfcdload:wininet.obj
 0001:0002d024       _HttpEndRequestW@16        5f72e024 f   mfcdload:wininet.obj
 0001:0002d02d       _GopherOpenFileA@20        5f72e02d f   mfcdload:wininet.obj
 0001:0002d036       _GopherOpenFileW@20        5f72e036 f   mfcdload:wininet.obj
 0001:0002d03f       _GopherCreateLocatorA@28   5f72e03f f   mfcdload:wininet.obj
 0001:0002d048       _GopherCreateLocatorW@28   5f72e048 f   mfcdload:wininet.obj
 0001:0002d051       _FtpGetFileA@28            5f72e051 f   mfcdload:wininet.obj
 0001:0002d05a       _FtpGetFileW@28            5f72e05a f   mfcdload:wininet.obj
 0001:0002d063       _FtpPutFileA@20            5f72e063 f   mfcdload:wininet.obj
 0001:0002d06c       _FtpPutFileW@20            5f72e06c f   mfcdload:wininet.obj
 0001:0002d075       _FtpOpenFileA@20           5f72e075 f   mfcdload:wininet.obj
 0001:0002d07e       _FtpOpenFileW@20           5f72e07e f   mfcdload:wininet.obj
 0001:0002d087       _FtpSetCurrentDirectoryA@8 5f72e087 f   mfcdload:wininet.obj
 0001:0002d090       _FtpSetCurrentDirectoryW@8 5f72e090 f   mfcdload:wininet.obj
 0001:0002d099       _FtpRemoveDirectoryA@8     5f72e099 f   mfcdload:wininet.obj
 0001:0002d0a2       _FtpRemoveDirectoryW@8     5f72e0a2 f   mfcdload:wininet.obj
 0001:0002d0ab       _InternetSetStatusCallbackW@8 5f72e0ab f   mfcdload:wininet.obj
 0001:0002d0b5       _FtpRenameFileA@12         5f72e0b5 f   mfcdload:wininet.obj
 0001:0002d0be       _FtpRenameFileW@12         5f72e0be f   mfcdload:wininet.obj
 0001:0002d0c7       _FtpDeleteFileA@8          5f72e0c7 f   mfcdload:wininet.obj
 0001:0002d0d0       _FtpDeleteFileW@8          5f72e0d0 f   mfcdload:wininet.obj
 0001:0002d0d9       _InternetQueryDataAvailable@16 5f72e0d9 f   mfcdload:wininet.obj
 0001:0002d0e2       _InternetWriteFile@16      5f72e0e2 f   mfcdload:wininet.obj
 0001:0002d0eb       _InternetSetFilePointer@20 5f72e0eb f   mfcdload:wininet.obj
 0001:0002d0f5       _HttpAddRequestHeadersW@16 5f72e0f5 f   mfcdload:wininet.obj
 0001:0002d105       _InternetQueryOptionW@16   5f72e105 f   mfcdload:wininet.obj
 0001:0002d115       _InternetSetStatusCallback@8 5f72e115 f   mfcdload:wininet.obj
 0001:0002ca40       _AbortPrinter@4            5f72da40 f   mfcdload:winspool.obj
 0001:0002ca49       _AddFormW@12               5f72da49 f   mfcdload:winspool.obj
 0001:0002ca52       _AddJobW@20                5f72da52 f   mfcdload:winspool.obj
 0001:0002ca5b       _AddMonitorW@12            5f72da5b f   mfcdload:winspool.obj
 0001:0002ca64       _AddPortW@12               5f72da64 f   mfcdload:winspool.obj
 0001:0002ca6d       _AddPrinterConnectionW@4   5f72da6d f   mfcdload:winspool.obj
 0001:0002ca76       _AddPrinterDriverExW@16    5f72da76 f   mfcdload:winspool.obj
 0001:0002ca7f       _AddPrinterDriverW@12      5f72da7f f   mfcdload:winspool.obj
 0001:0002ca88       _AddPrinterW@12            5f72da88 f   mfcdload:winspool.obj
 0001:0002ca91       _AddPrintProcessorW@16     5f72da91 f   mfcdload:winspool.obj
 0001:0002ca9a       _AddPrintProvidorW@12      5f72da9a f   mfcdload:winspool.obj
 0001:0002caa3       _ClosePrinter@4            5f72daa3 f   mfcdload:winspool.obj
 0001:0002caac       _ConfigurePortW@12         5f72daac f   mfcdload:winspool.obj
 0001:0002cab5       _DeleteFormW@8             5f72dab5 f   mfcdload:winspool.obj
 0001:0002cabe       _DeleteMonitorW@12         5f72dabe f   mfcdload:winspool.obj
 0001:0002cac7       _DeletePortW@12            5f72dac7 f   mfcdload:winspool.obj
 0001:0002cad0       _DeletePrinter@4           5f72dad0 f   mfcdload:winspool.obj
 0001:0002cad9       _DeletePrinterConnectionW@4 5f72dad9 f   mfcdload:winspool.obj
 0001:0002cae2       _DeletePrinterDataExW@12   5f72dae2 f   mfcdload:winspool.obj
 0001:0002caee       _DeletePrinterDataW@8      5f72daee f   mfcdload:winspool.obj
 0001:0002cafa       _DeletePrinterDriverExW@20 5f72dafa f   mfcdload:winspool.obj
 0001:0002cb03       _DeletePrinterDriverW@12   5f72db03 f   mfcdload:winspool.obj
 0001:0002cb0c       _DeletePrinterKeyW@8       5f72db0c f   mfcdload:winspool.obj
 0001:0002cb18       _DeletePrintProcessorW@12  5f72db18 f   mfcdload:winspool.obj
 0001:0002cb21       _DeletePrintProvidorW@12   5f72db21 f   mfcdload:winspool.obj
 0001:0002cb2a       _EndDocPrinter@4           5f72db2a f   mfcdload:winspool.obj
 0001:0002cb33       _EndPagePrinter@4          5f72db33 f   mfcdload:winspool.obj
 0001:0002cb3c       _EnumFormsW@24             5f72db3c f   mfcdload:winspool.obj
 0001:0002cb45       _EnumJobsW@32              5f72db45 f   mfcdload:winspool.obj
 0001:0002cb4e       _EnumMonitorsW@24          5f72db4e f   mfcdload:winspool.obj
 0001:0002cb57       _EnumPortsW@24             5f72db57 f   mfcdload:winspool.obj
 0001:0002cb60       _EnumPrinterDataExW@24     5f72db60 f   mfcdload:winspool.obj
 0001:0002cb6c       _EnumPrinterDataW@36       5f72db6c f   mfcdload:winspool.obj
 0001:0002cb78       _EnumPrinterDriversW@28    5f72db78 f   mfcdload:winspool.obj
 0001:0002cb81       _EnumPrinterKeyW@20        5f72db81 f   mfcdload:winspool.obj
 0001:0002cb8d       _EnumPrintProcessorDatatypesW@28 5f72db8d f   mfcdload:winspool.obj
 0001:0002cb96       _EnumPrintProcessorsW@28   5f72db96 f   mfcdload:winspool.obj
 0001:0002cb9f       _FindClosePrinterChangeNotification@4 5f72db9f f   mfcdload:winspool.obj
 0001:0002cba8       _FlushPrinter@20           5f72dba8 f   mfcdload:winspool.obj
 0001:0002cbb1       _GetFormW@24               5f72dbb1 f   mfcdload:winspool.obj
 0001:0002cbba       _GetJobW@24                5f72dbba f   mfcdload:winspool.obj
 0001:0002cbc3       _GetPrinterDataExW@28      5f72dbc3 f   mfcdload:winspool.obj
 0001:0002cbcf       _GetPrintProcessorDirectoryW@24 5f72dbcf f   mfcdload:winspool.obj
 0001:0002cbd8       _GetPrinterDataW@24        5f72dbd8 f   mfcdload:winspool.obj
 0001:0002cbe4       _GetPrinterDriverDirectoryW@24 5f72dbe4 f   mfcdload:winspool.obj
 0001:0002cbed       _GetPrinterDriverW@24      5f72dbed f   mfcdload:winspool.obj
 0001:0002cbf6       _GetPrinterW@20            5f72dbf6 f   mfcdload:winspool.obj
 0001:0002cbff       _OpenPrinterW@12           5f72dbff f   mfcdload:winspool.obj
 0001:0002cc08       _ReadPrinter@16            5f72dc08 f   mfcdload:winspool.obj
 0001:0002cc11       _ResetPrinterW@8           5f72dc11 f   mfcdload:winspool.obj
 0001:0002cc1a       _ScheduleJob@8             5f72dc1a f   mfcdload:winspool.obj
 0001:0002cc23       _SetFormW@16               5f72dc23 f   mfcdload:winspool.obj
 0001:0002cc2c       _SetJobW@20                5f72dc2c f   mfcdload:winspool.obj
 0001:0002cc35       _SetPortW@16               5f72dc35 f   mfcdload:winspool.obj
 0001:0002cc3e       _SetPrinterDataExW@24      5f72dc3e f   mfcdload:winspool.obj
 0001:0002cc4a       _SetPrinterDataW@20        5f72dc4a f   mfcdload:winspool.obj
 0001:0002cc56       _SetPrinterW@16            5f72dc56 f   mfcdload:winspool.obj
 0001:0002cc5f       _StartDocPrinterW@12       5f72dc5f f   mfcdload:winspool.obj
 0001:0002cc6b       _StartPagePrinter@4        5f72dc6b f   mfcdload:winspool.obj
 0001:0002cc74       _WaitForPrinterChange@8    5f72dc74 f   mfcdload:winspool.obj
 0001:0002cc80       _WritePrinter@16           5f72dc80 f   mfcdload:winspool.obj
 0001:0002cc89       _EnumPrintersW@28          5f72dc89 f   mfcdload:winspool.obj
 0001:0002cc92       _DocumentPropertiesW@24    5f72dc92 f   mfcdload:winspool.obj
 0001:0002cc9c       _ConnectToPrinterDlg@8     5f72dc9c f   mfcdload:winspool.obj
 0001:0002cca5       _AdvancedDocumentPropertiesW@20 5f72dca5 f   mfcdload:winspool.obj
 0001:0002ccae       _ExtDeviceMode@32          5f72dcae f   mfcdload:winspool.obj
 0001:0002ccb8       _GetDefaultPrinterW@8      5f72dcb8 f   mfcdload:winspool.obj
 0001:0002ccc1       _SpoolerInit@0             5f72dcc1 f   mfcdload:winspool.obj
 0001:0002ccc8       _OpenPrinterA@12           5f72dcc8 f   mfcdload:winspool.obj
 0001:0002ccd8       _DocumentPropertiesA@24    5f72dcd8 f   mfcdload:winspool.obj
 0001:0002c8a0       _connect@12                5f72d8a0 f   mfcdload:wsock32.obj
 0001:0002c8b2       _ioctlsocket@12            5f72d8b2 f   mfcdload:wsock32.obj
 0001:0002c8c4       _WSAAsyncSelect@16         5f72d8c4 f   mfcdload:wsock32.obj
 0001:0002c8d6       _socket@12                 5f72d8d6 f   mfcdload:wsock32.obj
 0001:0002c8e8       _htonl@4                   5f72d8e8 f   mfcdload:wsock32.obj
 0001:0002c8fa       _recvfrom@24               5f72d8fa f   mfcdload:wsock32.obj
 0001:0002c90c       _WSACleanup@0              5f72d90c f   mfcdload:wsock32.obj
 0001:0002c91c       _WSAStartup@8              5f72d91c f   mfcdload:wsock32.obj
 0001:0002c92e       _WSASetLastError@4         5f72d92e f   mfcdload:wsock32.obj
 0001:0002c93d       _WSAGetLastError@0         5f72d93d f   mfcdload:wsock32.obj
 0001:0002c94d       _inet_ntoa@4               5f72d94d f   mfcdload:wsock32.obj
 0001:0002c95e       _ntohs@4                   5f72d95e f   mfcdload:wsock32.obj
 0001:0002c971       _getpeername@12            5f72d971 f   mfcdload:wsock32.obj
 0001:0002c983       _send@16                   5f72d983 f   mfcdload:wsock32.obj
 0001:0002c995       _recv@16                   5f72d995 f   mfcdload:wsock32.obj
 0001:0002c9a7       _gethostbyname@4           5f72d9a7 f   mfcdload:wsock32.obj
 0001:0002c9b8       _closesocket@4             5f72d9b8 f   mfcdload:wsock32.obj
 0001:0002c9ca       _getsockname@12            5f72d9ca f   mfcdload:wsock32.obj
 0001:0002c9dc       _sendto@24                 5f72d9dc f   mfcdload:wsock32.obj
 0001:0002c9ee       _htons@4                   5f72d9ee f   mfcdload:wsock32.obj
 0001:0002ca01       _bind@12                   5f72da01 f   mfcdload:wsock32.obj
 0001:0002ca13       _inet_addr@4               5f72da13 f   mfcdload:wsock32.obj
 0001:0002ca25       _accept@12                 5f72da25 f   mfcdload:wsock32.obj
 0001:0002eddd       ?OverlayIAT@@YGXPAU_IMAGE_THUNK_DATA32@@PBU1@@Z 5f72fddd f   delayimp:delayhlp.obj

 105 bytes saved through ICF

