; This is a part of the Microsoft Foundation Classes C++ library.
; Copyright (C) 1992-1998 Microsoft Corporation
; All rights reserved.
;
; This source code is only intended as a supplement to the
; Microsoft Foundation Classes Reference and related
; electronic documentation provided with the library.
; See these sources for detailed information regarding the
; Microsoft Foundation Classes product.
 
LIBRARY MFCN42uD 
; For Win32 DLLs, only EXPORTs really required.

EXPORTS
 ??0_AFX_SOCK_STATE@@QAE@XZ @ 256 NONAME
 ??0CAsyncSocket@@QAE@XZ @ 257 NONAME
 ??0CNoTrackObject@@QAE@XZ @ 258 NONAME
 ??0CSocket@@QAE@XZ @ 259 NONAME
 ??0CSocketFile@@QAE@PAVCSocket@@H@Z @ 260 NONAME
 ??0CSocketWnd@@QAE@XZ @ 261 NONAME
 ??1_AFX_SOCK_STATE@@UAE@XZ @ 262 NONAME
 ??1CAsyncSocket@@UAE@XZ @ 263 NONAME
 ??1CNoTrackObject@@UAE@XZ @ 264 NONAME
 ??1CSocket@@UAE@XZ @ 265 NONAME
 ??1CSocketFile@@UAE@XZ @ 266 NONAME
 ??1CSocketWnd@@UAE@XZ @ 267 NONAME
 ??B?$CTypedSimpleList@PAUCRuntimeClass@@@@QAEPAUCRuntimeClass@@XZ @ 268 NONAME
 ??B?$CTypedSimpleList@PAVCOleObjectFactory@@@@QAEPAVCOleObjectFactory@@XZ @ 269 NONAME
 ??BCAsyncSocket@@QBEIXZ @ 270 NONAME
 ??C?$CEmbeddedButActsLikePtr@VCMapPtrToPtr@@@@QAEPAVCMapPtrToPtr@@XZ @ 271 NONAME
 ??C?$CEmbeddedButActsLikePtr@VCPtrList@@@@QAEPAVCPtrList@@XZ @ 272 NONAME
 ?Abort@CSocketFile@@UAEXXZ @ 273 NONAME
 ?Accept@CAsyncSocket@@UAEHAAV1@PAUsockaddr@@PAH@Z @ 274 NONAME
 ?Accept@CSocket@@UAEHAAVCAsyncSocket@@PAUsockaddr@@PAH@Z @ 275 NONAME
 ?AfxNetInitModule@@YGXXZ @ 276 NONAME
 ?AfxSocketInit@@YGHPAUWSAData@@@Z @ 277 NONAME
 ?AfxSocketTerm@@YGXXZ @ 278 NONAME
 ?AssertValid@CAsyncSocket@@UBEXXZ @ 279 NONAME
 ?AssertValid@CSocket@@MBEXXZ @ 280 NONAME
 ?AssertValid@CSocketFile@@UBEXXZ @ 281 NONAME
 ?AsyncSelect@CAsyncSocket@@QAEHJ@Z @ 282 NONAME
 ?AtlW2AHelper@@YGPADPADPBGH@Z @ 283 NONAME
 ?AtlW2AHelper@@YGPADPADPBGHI@Z @ 284 NONAME
 ?Attach@CAsyncSocket@@QAEHIJ@Z @ 285 NONAME
 ?Attach@CSocket@@QAEHI@Z @ 286 NONAME
 ?AttachHandle@CAsyncSocket@@SGXIPAV1@H@Z @ 287 NONAME
 ?AuxQueueAdd@CSocket@@KGXIIJ@Z @ 288 NONAME
 ?Bind@CAsyncSocket@@QAEHIPBG@Z @ 289 NONAME
 ?Bind@CAsyncSocket@@QAEHPBUsockaddr@@H@Z @ 290 NONAME
 ?CancelBlockingCall@CSocket@@QAEXXZ @ 291 NONAME
 ?classCAsyncSocket@CAsyncSocket@@2UCRuntimeClass@@B @ 292 NONAME DATA
 ?classCSocket@CSocket@@2UCRuntimeClass@@B @ 293 NONAME DATA
 ?classCSocketFile@CSocketFile@@2UCRuntimeClass@@B @ 294 NONAME DATA
 ?Close@CAsyncSocket@@UAEXXZ @ 295 NONAME
 ?Close@CSocket@@UAEXXZ @ 296 NONAME
 ?Close@CSocketFile@@UAEXXZ @ 297 NONAME
 ?Connect@CAsyncSocket@@QAEHPBGI@Z @ 298 NONAME
 ?Connect@CAsyncSocket@@QAEHPBUsockaddr@@H@Z @ 299 NONAME
 ?ConnectHelper@CAsyncSocket@@MAEHPBUsockaddr@@H@Z @ 300 NONAME
 ?ConnectHelper@CSocket@@MAEHPBUsockaddr@@H@Z @ 301 NONAME
 ?Create@CAsyncSocket@@QAEHIHJPBG@Z @ 302 NONAME
 ?Create@CSocket@@QAEHIHPBG@Z @ 303 NONAME
 ?Detach@CAsyncSocket@@QAEIXZ @ 304 NONAME
 ?DetachHandle@CAsyncSocket@@SGXIH@Z @ 305 NONAME
 ?DoCallBack@CAsyncSocket@@SGXIJ@Z @ 306 NONAME
 ?Dump@CAsyncSocket@@UBEXAAVCDumpContext@@@Z @ 307 NONAME
 ?Dump@CSocket@@MBEXAAVCDumpContext@@@Z @ 308 NONAME
 ?Dump@CSocketFile@@UBEXAAVCDumpContext@@@Z @ 309 NONAME
 ?Duplicate@CSocketFile@@UBEPAVCFile@@XZ @ 310 NONAME
 ?Flush@CSocketFile@@UAEXXZ @ 311 NONAME
 ?FromHandle@CAsyncSocket@@SGPAV1@I@Z @ 312 NONAME
 ?FromHandle@CSocket@@SGPAV1@I@Z @ 313 NONAME
 ?GetHead@CSimpleList@@QBEPAXXZ @ 314 NONAME
 ?GetLastError@CAsyncSocket@@SGHXZ @ 315 NONAME
 ?GetLength@CSocketFile@@UBEKXZ @ 316 NONAME
 ?GetMessageMap@CSocketWnd@@MBEPBUAFX_MSGMAP@@XZ @ 317 NONAME
 ?GetPeerName@CAsyncSocket@@QAEHAAVCString@@AAI@Z @ 318 NONAME
 ?GetPeerName@CAsyncSocket@@QAEHPAUsockaddr@@PAH@Z @ 319 NONAME
 ?GetPosition@CSocketFile@@UBEKXZ @ 320 NONAME
 ?GetRuntimeClass@CAsyncSocket@@UBEPAUCRuntimeClass@@XZ @ 321 NONAME
 ?GetRuntimeClass@CSocket@@UBEPAUCRuntimeClass@@XZ @ 322 NONAME
 ?GetRuntimeClass@CSocketFile@@UBEPAUCRuntimeClass@@XZ @ 323 NONAME
 ?GetSockName@CAsyncSocket@@QAEHAAVCString@@AAI@Z @ 324 NONAME
 ?GetSockName@CAsyncSocket@@QAEHPAUsockaddr@@PAH@Z @ 325 NONAME
 ?GetSockOpt@CAsyncSocket@@QAEHHPAXPAHH@Z @ 326 NONAME
 ?IOCtl@CAsyncSocket@@QAEHJPAK@Z @ 327 NONAME
 ?IsBlocking@CSocket@@QAEHXZ @ 328 NONAME
 ?KillSocket@CAsyncSocket@@SGXIPAV1@@Z @ 329 NONAME
 ?Listen@CAsyncSocket@@QAEHH@Z @ 330 NONAME
 ?LockRange@CSocketFile@@UAEXKK@Z @ 331 NONAME
 ?LookupHandle@CAsyncSocket@@SGPAV1@IH@Z @ 332 NONAME
 ?messageMap@CSocketWnd@@1UAFX_MSGMAP@@B @ 333 NONAME DATA
 ?OnAccept@CAsyncSocket@@MAEXH@Z @ 334 NONAME
 ?OnClose@CAsyncSocket@@MAEXH@Z @ 335 NONAME
 ?OnConnect@CAsyncSocket@@MAEXH@Z @ 336 NONAME
 ?OnMessagePending@CSocket@@MAEHXZ @ 337 NONAME
 ?OnOutOfBandData@CAsyncSocket@@MAEXH@Z @ 338 NONAME
 ?OnReceive@CAsyncSocket@@MAEXH@Z @ 339 NONAME
 ?OnSend@CAsyncSocket@@MAEXH@Z @ 340 NONAME
 ?OnSocketDead@CSocketWnd@@IAEJIJ@Z @ 341 NONAME
 ?OnSocketNotify@CSocketWnd@@IAEJIJ@Z @ 342 NONAME
 ?Open@CSocketFile@@UAEHPBGIPAVCFileException@@@Z @ 343 NONAME
 ?ProcessAuxQueue@CSocket@@SGHXZ @ 344 NONAME
 ?PumpMessages@CSocket@@MAEHI@Z @ 345 NONAME
 ?Read@CSocketFile@@UAEIPAXI@Z @ 346 NONAME
 ?Receive@CAsyncSocket@@UAEHPAXHH@Z @ 347 NONAME
 ?Receive@CSocket@@UAEHPAXHH@Z @ 348 NONAME
 ?ReceiveFrom@CAsyncSocket@@QAEHPAXHAAVCString@@AAIH@Z @ 349 NONAME
 ?ReceiveFrom@CAsyncSocket@@QAEHPAXHPAUsockaddr@@PAHH@Z @ 350 NONAME
 ?ReceiveFromHelper@CAsyncSocket@@MAEHPAXHPAUsockaddr@@PAHH@Z @ 351 NONAME
 ?ReceiveFromHelper@CSocket@@MAEHPAXHPAUsockaddr@@PAHH@Z @ 352 NONAME
 ?Seek@CSocketFile@@UAEJJI@Z @ 353 NONAME
 ?Send@CAsyncSocket@@UAEHPBXHH@Z @ 354 NONAME
 ?Send@CSocket@@UAEHPBXHH@Z @ 355 NONAME
 ?SendChunk@CSocket@@QAEHPBXHH@Z @ 356 NONAME
 ?SendTo@CAsyncSocket@@QAEHPBXHIPBGH@Z @ 357 NONAME
 ?SendTo@CAsyncSocket@@QAEHPBXHPBUsockaddr@@HH@Z @ 358 NONAME
 ?SendToHelper@CAsyncSocket@@MAEHPBXHPBUsockaddr@@HH@Z @ 359 NONAME
 ?SendToHelper@CSocket@@MAEHPBXHPBUsockaddr@@HH@Z @ 360 NONAME
 ?SetLength@CSocketFile@@UAEXK@Z @ 361 NONAME
 ?SetSockOpt@CAsyncSocket@@QAEHHPBXHH@Z @ 362 NONAME
 ?ShutDown@CAsyncSocket@@QAEHH@Z @ 363 NONAME
 ?Socket@CAsyncSocket@@QAEHHJHH@Z @ 364 NONAME
 ?UnlockRange@CSocketFile@@UAEXKK@Z @ 365 NONAME
 ?Write@CSocketFile@@UAEXPBXI@Z @ 366 NONAME
