 client

 Timestamp is 3088442f (Fri Oct 20 17:51:59 1995)

 Preferred load address is 00400000

 Start         Length     Name                   Class
 0001:00000000 00004b9cH .text                   CODE
 0002:00000000 00000111H .rdata                  DATA
 0002:00000111 00000000H .edata                  DATA
 0003:00000000 00000004H .CRT$XCA                DATA
 0003:00000004 00000004H .CRT$XCZ                DATA
 0003:00000008 00000004H .CRT$XIA                DATA
 0003:0000000c 00000004H .CRT$XIC                DATA
 0003:00000010 00000004H .CRT$XIZ                DATA
 0003:00000014 00000004H .CRT$XPA                DATA
 0003:00000018 00000004H .CRT$XPX                DATA
 0003:0000001c 00000004H .CRT$XPZ                DATA
 0003:00000020 00000004H .CRT$XTA                DATA
 0003:00000024 00000004H .CRT$XTZ                DATA
 0003:00000030 000010a0H .data                   DATA
 0003:000010d0 000012a0H .bss                    DATA
 0004:00000000 0000003cH .idata$2                DATA
 0004:0000003c 00000014H .idata$3                DATA
 0004:00000050 000000e4H .idata$4                DATA
 0004:00000134 000000e4H .idata$5                DATA
 0004:00000218 00000374H .idata$6                DATA

  Address         Publics by Value              Rva+Base   Lib:Object

 0001:00000000       _main                      00401000 f client.obj
 0001:00000284       _OleUninitialize@0         00401284 f ole32:ole32.dll
 0001:0000028a       _CoCreateInstance@20       0040128a f ole32:ole32.dll
 0001:00000290       _OleInitialize@4           00401290 f ole32:ole32.dll
 0001:00000296       _SysFreeString@4           00401296 f oleaut32:OLEAUT32.dll
 0001:0000029c       _SafeArrayDestroy@4        0040129c f oleaut32:OLEAUT32.dll
 0001:000002a2       _SafeArrayUnaccessData@4   004012a2 f oleaut32:OLEAUT32.dll
 0001:000002a8       _SafeArrayAccessData@8     004012a8 f oleaut32:OLEAUT32.dll
 0001:000002ae       _SafeArrayCreate@12        004012ae f oleaut32:OLEAUT32.dll
 0001:000002b4       _SysAllocString@4          004012b4 f oleaut32:OLEAUT32.dll
 0001:000002c0       _mainCRTStartup            004012c0 f libcmt:crt0.obj
 0001:000003f0       __amsg_exit                004013f0 f libcmt:crt0.obj
 0001:00000420       _printf                    00401420 f libcmt:printf.obj
 0001:00000480       _memcpy                    00401480 f libcmt:memcpy.obj
 0001:000005d0       __cinit                    004015d0 f libcmt:crt0dat.obj
 0001:00000600       _exit                      00401600 f libcmt:crt0dat.obj
 0001:00000620       __exit                     00401620 f libcmt:crt0dat.obj
 0001:00000640       __cexit                    00401640 f libcmt:crt0dat.obj
 0001:00000650       __c_exit                   00401650 f libcmt:crt0dat.obj
 0001:000006f0       __lockexit                 004016f0 f libcmt:crt0dat.obj
 0001:00000700       __unlockexit               00401700 f libcmt:crt0dat.obj
 0001:00000730       __global_unwind2           00401730 f libcmt:exsup.obj
 0001:00000772       __local_unwind2            00401772 f libcmt:exsup.obj
 0001:000007ca       __NLG_Return2              004017ca   libcmt:exsup.obj
 0001:000007da       __abnormal_termination     004017da f libcmt:exsup.obj
 0001:000007fd       __NLG_Notify1              004017fd f libcmt:exsup.obj
 0001:00000806       __NLG_Notify               00401806 f libcmt:exsup.obj
 0001:00000819       __NLG_Dispatch             00401819   libcmt:exsup.obj
 0001:00000820       __XcptFilter               00401820 f libcmt:winxfltr.obj
 0001:000009a0       __setenvp                  004019a0 f libcmt:stdenvp.obj
 0001:00000a80       __setargv                  00401a80 f libcmt:stdargv.obj
 0001:00000d00       ___crtGetEnvironmentStringsW 00401d00 f libcmt:aw_env.obj
 0001:00000f00       ___crtGetEnvironmentStringsA 00401f00 f libcmt:aw_env.obj
 0001:000010a0       __setmbcp                  004020a0 f libcmt:mbctype.obj
 0001:000013b0       __getmbcp                  004023b0 f libcmt:mbctype.obj
 0001:000013c0       ___initmbctable            004023c0 f libcmt:mbctype.obj
 0001:000013d0       __ioinit                   004023d0 f libcmt:ioinit.obj
 0001:000015b0       __ioterm                   004025b0 f libcmt:ioinit.obj
 0001:00001610       __mtinit                   00402610 f libcmt:tidtable.obj
 0001:00001670       __mtterm                   00402670 f libcmt:tidtable.obj
 0001:000016a0       __initptd                  004026a0 f libcmt:tidtable.obj
 0001:000016c0       __getptd                   004026c0 f libcmt:tidtable.obj
 0001:00001730       __freeptd                  00402730 f libcmt:tidtable.obj
 0001:000017e0       ___threadid                004027e0 f libcmt:tidtable.obj
 0001:000017f0       ___threadhandle            004027f0 f libcmt:tidtable.obj
 0001:00001800       __heap_init                00402800 f libcmt:heapinit.obj
 0001:00001820       __heap_term                00402820 f libcmt:heapinit.obj
 0001:00001838       __except_handler3          00402838 f libcmt:exsup3.obj
 0001:000018f5       __seh_longjmp_unwind@4     004028f5 f libcmt:exsup3.obj
 0001:00001910       __FF_MSGBANNER             00402910 f libcmt:crt0msg.obj
 0001:00001950       __NMSG_WRITE               00402950 f libcmt:crt0msg.obj
 0001:00001b40       __GET_RTERRMSG             00402b40 f libcmt:crt0msg.obj
 0001:00001b80       __mtinitlocks              00402b80 f libcmt:mlock.obj
 0001:00001bb0       __mtdeletelocks            00402bb0 f libcmt:mlock.obj
 0001:00001c20       __lock                     00402c20 f libcmt:mlock.obj
 0001:00001c90       __unlock                   00402c90 f libcmt:mlock.obj
 0001:00001cb0       __lock_file                00402cb0 f libcmt:mlock.obj
 0001:00001cf0       __lock_file2               00402cf0 f libcmt:mlock.obj
 0001:00001d20       __unlock_file              00402d20 f libcmt:mlock.obj
 0001:00001d60       __unlock_file2             00402d60 f libcmt:mlock.obj
 0001:00001d90       __lockerr_exit             00402d90 f libcmt:mlock.obj
 0001:00001db0       ___initstdio               00402db0 f libcmt:_file.obj
 0001:00001e80       ___endstdio                00402e80 f libcmt:_file.obj
 0001:00001ea0       __stbuf                    00402ea0 f libcmt:_sftbuf.obj
 0001:00001f40       __ftbuf                    00402f40 f libcmt:_sftbuf.obj
 0001:00001f80       __output                   00402f80 f libcmt:output.obj
 0001:00002a70       _free                      00403a70 f libcmt:free.obj
 0001:00002a90       _malloc                    00403a90 f libcmt:malloc.obj
 0001:00002ab0       __nh_malloc                00403ab0 f libcmt:malloc.obj
 0001:00002af0       __heap_alloc               00403af0 f libcmt:malloc.obj
 0001:00002b10       _wcslen                    00403b10 f libcmt:wcslen.obj
 0001:00002b30       _calloc                    00403b30 f libcmt:calloc.obj
 0001:00002b90       ___crtMessageBoxA          00403b90 f libcmt:crtmbox.obj
 0001:00002c30       _strncpy                   00403c30 f libcmt:strncpy.obj
 0001:00002c60       __fcloseall                00403c60 f libcmt:closeall.obj
 0001:00002d00       _fflush                    00403d00 f libcmt:fflush.obj
 0001:00002d40       __fflush_lk                00403d40 f libcmt:fflush.obj
 0001:00002d80       __flush                    00403d80 f libcmt:fflush.obj
 0001:00002df0       __flushall                 00403df0 f libcmt:fflush.obj
 0001:00002ec0       __isatty                   00403ec0 f libcmt:isatty.obj
 0001:00002ef0       _wctomb                    00403ef0 f libcmt:wctomb.obj
 0001:00002f20       __wctomb_lk                00403f20 f libcmt:wctomb.obj
 0001:00002fc0       __aulldiv                  00403fc0 f libcmt:ulldiv.obj
 0001:00003030       __aullrem                  00404030 f libcmt:ullrem.obj
 0001:000030b0       __flsbuf                   004040b0 f libcmt:_flsbuf.obj
 0001:00003200       ?_set_new_handler@@YAP6AHI@ZP6AHI@Z@Z 00404200 f libcmt:handler.obj
 0001:00003230       ?_query_new_handler@@YAP6AHI@ZXZ 00404230 f libcmt:handler.obj
 0001:00003240       ?set_new_handler@@YAP6AXXZP6AXXZ@Z 00404240 f libcmt:handler.obj
 0001:00003270       __callnewh                 00404270 f libcmt:handler.obj
 0001:000032b0       _fclose                    004042b0 f libcmt:fclose.obj
 0001:000032f0       __fclose_lk                004042f0 f libcmt:fclose.obj
 0001:00003350       __commit                   00404350 f libcmt:commit.obj
 0001:00003400       __write                    00404400 f libcmt:write.obj
 0001:00003480       __write_lk                 00404480 f libcmt:write.obj
 0001:00003680       __dosmaperr                00404680 f libcmt:dosmap.obj
 0001:00003700       __errno                    00404700 f libcmt:dosmap.obj
 0001:00003710       ___doserrno                00404710 f libcmt:dosmap.obj
 0001:00003720       __fptrap                   00404720 f libcmt:crt0fp.obj
 0001:00003730       __lseek                    00404730 f libcmt:lseek.obj
 0001:000037b0       __lseek_lk                 004047b0 f libcmt:lseek.obj
 0001:00003840       __getbuf                   00404840 f libcmt:_getbuf.obj
 0001:00003890       __assert                   00404890 f libcmt:assert.obj
 0001:00003de0       __close                    00404de0 f libcmt:close.obj
 0001:00003e50       __close_lk                 00404e50 f libcmt:close.obj
 0001:00003ee0       __freebuf                  00404ee0 f libcmt:_freebuf.obj
 0001:00003f20       __alloc_osfhnd             00404f20 f libcmt:osfinfo.obj
 0001:00004070       __set_osfhnd               00405070 f libcmt:osfinfo.obj
 0001:00004120       __free_osfhnd              00405120 f libcmt:osfinfo.obj
 0001:000041c0       __get_osfhandle            004051c0 f libcmt:osfinfo.obj
 0001:00004210       __open_osfhandle           00405210 f libcmt:osfinfo.obj
 0001:000042d0       __lock_fhandle             004052d0 f libcmt:osfinfo.obj
 0001:00004340       __unlock_fhandle           00405340 f libcmt:osfinfo.obj
 0001:00004370       _abort                     00405370 f libcmt:abort.obj
 0001:00004390       _fprintf                   00405390 f libcmt:fprintf.obj
 0001:000043e0       _setvbuf                   004053e0 f libcmt:setvbuf.obj
 0001:000044b0       _signal                    004054b0 f libcmt:winsig.obj
 0001:00004720       _raise                     00405720 f libcmt:winsig.obj
 0001:00004940       ___fpecode                 00405940 f libcmt:winsig.obj
 0001:00004950       ___pxcptinfoptrs           00405950 f libcmt:winsig.obj
 0001:00004960       _strncat                   00405960 f libcmt:strncat.obj
 0001:000049a0       __itoa                     004059a0 f libcmt:xtoa.obj
 0001:00004a40       __ltoa                     00405a40 f libcmt:xtoa.obj
 0001:00004a70       __ultoa                    00405a70 f libcmt:xtoa.obj
 0001:00004a8e       _Sleep@4                   00405a8e f kernel32:KERNEL32.dll
 0001:00004a94       _GetCommandLineA@0         00405a94 f kernel32:KERNEL32.dll
 0001:00004a9a       _GetVersion@0              00405a9a f kernel32:KERNEL32.dll
 0001:00004aa0       _ExitProcess@4             00405aa0 f kernel32:KERNEL32.dll
 0001:00004aa6       _RtlUnwind@16              00405aa6 f kernel32:KERNEL32.dll
 0001:00004aac       _UnhandledExceptionFilter@4 00405aac f kernel32:KERNEL32.dll
 0001:00004ab2       _GetModuleFileNameA@12     00405ab2 f kernel32:KERNEL32.dll
 0001:00004ab8       _FreeEnvironmentStringsA@4 00405ab8 f kernel32:KERNEL32.dll
 0001:00004abe       _MultiByteToWideChar@24    00405abe f kernel32:KERNEL32.dll
 0001:00004ac4       _GetEnvironmentStrings@0   00405ac4 f kernel32:KERNEL32.dll
 0001:00004aca       _FreeEnvironmentStringsW@4 00405aca f kernel32:KERNEL32.dll
 0001:00004ad0       _GetEnvironmentStringsW@0  00405ad0 f kernel32:KERNEL32.dll
 0001:00004ad6       _WideCharToMultiByte@32    00405ad6 f kernel32:KERNEL32.dll
 0001:00004adc       _GetCPInfo@8               00405adc f kernel32:KERNEL32.dll
 0001:00004ae2       _GetACP@0                  00405ae2 f kernel32:KERNEL32.dll
 0001:00004ae8       _GetOEMCP@0                00405ae8 f kernel32:KERNEL32.dll
 0001:00004aee       _SetHandleCount@4          00405aee f kernel32:KERNEL32.dll
 0001:00004af4       _GetFileType@4             00405af4 f kernel32:KERNEL32.dll
 0001:00004afa       _GetStdHandle@4            00405afa f kernel32:KERNEL32.dll
 0001:00004b00       _GetStartupInfoA@4         00405b00 f kernel32:KERNEL32.dll
 0001:00004b06       _DeleteCriticalSection@4   00405b06 f kernel32:KERNEL32.dll
 0001:00004b0c       _GetCurrentThreadId@0      00405b0c f kernel32:KERNEL32.dll
 0001:00004b12       _TlsSetValue@8             00405b12 f kernel32:KERNEL32.dll
 0001:00004b18       _TlsAlloc@0                00405b18 f kernel32:KERNEL32.dll
 0001:00004b1e       _TlsFree@4                 00405b1e f kernel32:KERNEL32.dll
 0001:00004b24       _SetLastError@4            00405b24 f kernel32:KERNEL32.dll
 0001:00004b2a       _TlsGetValue@4             00405b2a f kernel32:KERNEL32.dll
 0001:00004b30       _GetLastError@0            00405b30 f kernel32:KERNEL32.dll
 0001:00004b36       _GetCurrentThread@0        00405b36 f kernel32:KERNEL32.dll
 0001:00004b3c       _HeapCreate@12             00405b3c f kernel32:KERNEL32.dll
 0001:00004b42       _HeapDestroy@4             00405b42 f kernel32:KERNEL32.dll
 0001:00004b48       _WriteFile@20              00405b48 f kernel32:KERNEL32.dll
 0001:00004b4e       _InitializeCriticalSection@4 00405b4e f kernel32:KERNEL32.dll
 0001:00004b54       _EnterCriticalSection@4    00405b54 f kernel32:KERNEL32.dll
 0001:00004b5a       _LeaveCriticalSection@4    00405b5a f kernel32:KERNEL32.dll
 0001:00004b60       _FatalAppExitA@8           00405b60 f kernel32:KERNEL32.dll
 0001:00004b66       _HeapFree@12               00405b66 f kernel32:KERNEL32.dll
 0001:00004b6c       _HeapAlloc@12              00405b6c f kernel32:KERNEL32.dll
 0001:00004b72       _GetProcAddress@8          00405b72 f kernel32:KERNEL32.dll
 0001:00004b78       _LoadLibraryA@4            00405b78 f kernel32:KERNEL32.dll
 0001:00004b7e       _FlushFileBuffers@4        00405b7e f kernel32:KERNEL32.dll
 0001:00004b84       _SetFilePointer@16         00405b84 f kernel32:KERNEL32.dll
 0001:00004b8a       _CloseHandle@4             00405b8a f kernel32:KERNEL32.dll
 0001:00004b90       _SetStdHandle@8            00405b90 f kernel32:KERNEL32.dll
 0001:00004b96       _SetConsoleCtrlHandler@8   00405b96 f kernel32:KERNEL32.dll
 0002:00000058       _LIBID_VtblServer          00406058   client.obj
 0002:00000068       _IID_IVtblServer           00406068   client.obj
 0002:00000078       _CLSID_VtblServer          00406078   client.obj
 0002:00000088       _IID_IUnknown              00406088   uuid:unknwn_i.obj
 0002:00000098       _IID_IClassFactory         00406098   uuid:unknwn_i.obj
 0002:000000b8       ___lookuptable             004060b8   libcmt:output.obj
 0003:00000000       ___xc_a                    00407000   libcmt:crt0init.obj
 0003:00000004       ___xc_z                    00407004   libcmt:crt0init.obj
 0003:00000008       ___xi_a                    00407008   libcmt:crt0init.obj
 0003:00000010       ___xi_z                    00407010   libcmt:crt0init.obj
 0003:00000014       ___xp_a                    00407014   libcmt:crt0init.obj
 0003:0000001c       ___xp_z                    0040701c   libcmt:crt0init.obj
 0003:00000020       ___xt_a                    00407020   libcmt:crt0init.obj
 0003:00000024       ___xt_z                    00407024   libcmt:crt0init.obj
 0003:00000178       __aenvptr                  00407178   libcmt:crt0.obj
 0003:0000017c       __wenvptr                  0040717c   libcmt:crt0.obj
 0003:00000180       __aexit_rtn                00407180   libcmt:crt0.obj
 0003:00000184       ___error_mode              00407184   libcmt:crt0.obj
 0003:00000188       ___app_type                00407188   libcmt:crt0.obj
 0003:0000018c       __umaskval                 0040718c   libcmt:crt0dat.obj
 0003:00000190       __osver                    00407190   libcmt:crt0dat.obj
 0003:00000194       __winver                   00407194   libcmt:crt0dat.obj
 0003:00000198       __winmajor                 00407198   libcmt:crt0dat.obj
 0003:0000019c       __winminor                 0040719c   libcmt:crt0dat.obj
 0003:000001a0       ___argc                    004071a0   libcmt:crt0dat.obj
 0003:000001a4       ___argv                    004071a4   libcmt:crt0dat.obj
 0003:000001a8       ___wargv                   004071a8   libcmt:crt0dat.obj
 0003:000001ac       __environ                  004071ac   libcmt:crt0dat.obj
 0003:000001b0       ___initenv                 004071b0   libcmt:crt0dat.obj
 0003:000001b4       __wenviron                 004071b4   libcmt:crt0dat.obj
 0003:000001b8       ___winitenv                004071b8   libcmt:crt0dat.obj
 0003:000001bc       __pgmptr                   004071bc   libcmt:crt0dat.obj
 0003:000001c0       __wpgmptr                  004071c0   libcmt:crt0dat.obj
 0003:000001c4       __exitflag                 004071c4   libcmt:crt0dat.obj
 0003:000001c8       __C_Termination_Done       004071c8   libcmt:crt0dat.obj
 0003:000001cc       __NLG_Destination          004071cc   libcmt:exsup.obj
 0003:000001e0       __XcptActTab               004071e0   libcmt:winxfltr.obj
 0003:00000258       __First_FPE_Indx           00407258   libcmt:winxfltr.obj
 0003:0000025c       __Num_FPE                  0040725c   libcmt:winxfltr.obj
 0003:00000260       __XcptActTabSize           00407260   libcmt:winxfltr.obj
 0003:00000264       __XcptActTabCount          00407264   libcmt:winxfltr.obj
 0003:00000270       __mbctype                  00407270   libcmt:mbctype.obj
 0003:00000374       ___mbcodepage              00407374   libcmt:mbctype.obj
 0003:00000378       ___mblcid                  00407378   libcmt:mbctype.obj
 0003:00000380       ___mbulinfo                00407380   libcmt:mbctype.obj
 0003:00000488       ___badioinfo               00407488   libcmt:ioinit.obj
 0003:000004ac       ___tlsindex                004074ac   libcmt:tidtable.obj
 0003:000004b0       __amblksiz                 004074b0   libcmt:heapinit.obj
 0003:000004b4       ??_C@_0P@GGKG@runtime?5error?5?$AA@ 004074b4   libcmt:crt0msg.obj
 0003:000004c4       ??_C@_02PIMC@?$AN?6?$AA@   004074c4   libcmt:crt0msg.obj
 0003:000004c8       ??_C@_0O@DELO@TLOSS?5error?$AN?6?$AA@ 004074c8   libcmt:crt0msg.obj
 0003:000004d8       ??_C@_0N@OMLL@SING?5error?$AN?6?$AA@ 004074d8   libcmt:crt0msg.obj
 0003:000004e8       ??_C@_0P@OJAK@DOMAIN?5error?$AN?6?$AA@ 004074e8   libcmt:crt0msg.obj
 0003:000004f8       ??_C@_0DF@ECGN@R6027?$AN?6?9?5not?5enough?5space?5for?5lo@ 004074f8   libcmt:crt0msg.obj
 0003:00000530       ??_C@_0DF@FKAC@R6026?$AN?6?9?5not?5enough?5space?5for?5st@ 00407530   libcmt:crt0msg.obj
 0003:00000568       ??_C@_0CG@DPMN@R6025?$AN?6?9?5pure?5virtual?5function?5c@ 00407568   libcmt:crt0msg.obj
 0003:00000590       ??_C@_0DF@CKIP@R6024?$AN?6?9?5not?5enough?5space?5for?5_o@ 00407590   libcmt:crt0msg.obj
 0003:000005c8       ??_C@_0CJ@GGOE@R6019?$AN?6?9?5unable?5to?5open?5console?5@ 004075c8   libcmt:crt0msg.obj
 0003:000005f4       ??_C@_0CB@LBOB@R6018?$AN?6?9?5unexpected?5heap?5error?$AN?6@ 004075f4   libcmt:crt0msg.obj
 0003:00000618       ??_C@_0CN@FPEG@R6017?$AN?6?9?5unexpected?5multithread?5@ 00407618   libcmt:crt0msg.obj
 0003:00000648       ??_C@_0CM@OBIC@R6016?$AN?6?9?5not?5enough?5space?5for?5th@ 00407648   libcmt:crt0msg.obj
 0003:00000674       ??_C@_0CB@HPAL@?$AN?6abnormal?5program?5termination?$AN?6@ 00407674   libcmt:crt0msg.obj
 0003:00000698       ??_C@_0CM@JOOB@R6009?$AN?6?9?5not?5enough?5space?5for?5en@ 00407698   libcmt:crt0msg.obj
 0003:000006c4       ??_C@_0CK@OIBL@R6008?$AN?6?9?5not?5enough?5space?5for?5ar@ 004076c4   libcmt:crt0msg.obj
 0003:000006f0       ??_C@_0CF@LKPB@R6002?$AN?6?9?5floating?5point?5not?5load@ 004076f0   libcmt:crt0msg.obj
 0003:000007a0       __adbgmsg                  004077a0   libcmt:crt0msg.obj
 0003:000007a4       ??_C@_0CF@JPDF@Microsoft?5Visual?5C?$CL?$CL?5Runtime?5Lib@ 004077a4   libcmt:crt0msg.obj
 0003:000007cc       ??_C@_02JJJH@?6?6?$AA@     004077cc   libcmt:crt0msg.obj
 0003:000007d0       ??_C@_0BK@DEOK@Runtime?5Error?$CB?6?6Program?3?5?$AA@ 004077d0   libcmt:crt0msg.obj
 0003:000007ec       ??_C@_03NAME@?4?4?4?$AA@   004077ec   libcmt:crt0msg.obj
 0003:000007f0       ??_C@_0BH@NNCD@?$DMprogram?5name?5unknown?$DO?$AA@ 004077f0   libcmt:crt0msg.obj
 0003:00000808       __locktable                00407808   libcmt:mlock.obj
 0003:000008c8       __iob                      004078c8   libcmt:_file.obj
 0003:00000b48       __cflush                   00407b48   libcmt:_file.obj
 0003:00000b50       __stdbuf                   00407b50   libcmt:_sftbuf.obj
 0003:00000b58       ??_C@_1O@POHA@?$AA?$CI?$AAn?$AAu?$AAl?$AAl?$AA?$CJ?$AA?$AA?$AA?$AA?$AA?$AD?$AA?$AA?$AA?$AA?$AA?$AA?$;E?$AA?$ADm@ 00407b58   libcmt:output.obj
 0003:00000b68       ??_C@_06ONKE@?$CInull?$CJ?$AA@ 00407b68   libcmt:output.obj
 0003:00000b70       ___nullstring              00407b70   libcmt:output.obj
 0003:00000b74       ___wnullstring             00407b74   libcmt:output.obj
 0003:00000b78       ___lc_handle               00407b78   libcmt:nlsdata2.obj
 0003:00000b90       ___lc_codepage             00407b90   libcmt:nlsdata2.obj
 0003:00000ba0       ??_C@_0BD@NJFP@GetLastActivePopup?$AA@ 00407ba0   libcmt:crtmbox.obj
 0003:00000bb4       ??_C@_0BA@GILI@GetActiveWindow?$AA@ 00407bb4   libcmt:crtmbox.obj
 0003:00000bc4       ??_C@_0M@PKCK@MessageBoxA?$AA@ 00407bc4   libcmt:crtmbox.obj
 0003:00000bd0       ??_C@_0L@HKL@user32?4dll?$AA@ 00407bd0   libcmt:crtmbox.obj
 0003:00000be0       __cfltcvt_tab              00407be0   libcmt:cmiscdat.obj
 0003:00000bf8       __pctype                   00407bf8   libcmt:ctype.obj
 0003:00000bfc       __pwctype                  00407bfc   libcmt:ctype.obj
 0003:00000c00       __ctype                    00407c00   libcmt:ctype.obj
 0003:00000e04       __newmode                  00407e04   libcmt:_newmode.obj
 0003:00000e08       ??_C@_0L@ODMK@new_p?5?$DN?$DN?50?$AA@ 00407e08   libcmt:handler.obj
 0003:00000e14       ??_C@_0M@IHMC@handler?4cpp?$AA@ 00407e14   libcmt:handler.obj
 0003:00000f88       ___mb_cur_max              00407f88   libcmt:nlsdata1.obj
 0003:00000f8c       ___decimal_point           00407f8c   libcmt:nlsdata1.obj
 0003:00000f90       ___decimal_point_length    00407f90   libcmt:nlsdata1.obj
 0003:00000f94       ??_C@_01BJG@?6?$AA@        00407f94   libcmt:assert.obj
 0003:00000fcc       ??_C@_0DN@MHHJ@?$CIPress?5Retry?5to?5debug?5the?5applic@ 00407fcc   libcmt:assert.obj
 0003:0000100c       ??_C@_0HA@EJLJ@For?5information?5on?5how?5your?5prog@ 0040800c   libcmt:assert.obj
 0003:0000107c       ??_C@_0N@NOAB@Expression?3?5?$AA@ 0040807c   libcmt:assert.obj
 0003:0000108c       ??_C@_06JMOL@Line?3?5?$AA@ 0040808c   libcmt:assert.obj
 0003:00001094       ??_C@_06FAAO@File?3?5?$AA@ 00408094   libcmt:assert.obj
 0003:0000109c       ??_C@_09PIFG@Program?3?5?$AA@ 0040809c   libcmt:assert.obj
 0003:000010a8       ??_C@_0BC@OIMC@Assertion?5failed?$CB?$AA@ 004080a8   libcmt:assert.obj
 0003:00001238       ?_pnhHeap@@3P6AHI@ZA       00408238   libcmt:handler.obj
 0003:0000123c       __nstream                  0040823c   <common>
 0003:00001240       ___piob                    00408240   <common>
 0003:00001250       __bufin                    00408250   <common>
 0003:00002250       __crtheap                  00409250   <common>
 0003:00002254       __nhandle                  00409254   <common>
 0003:00002260       ___pioinfo                 00409260   <common>
 0003:00002360       ___onexitend               00409360   <common>
 0003:00002364       __FPinit                   00409364   <common>
 0003:00002368       ___onexitbegin             00409368   <common>
 0003:0000236c       __acmdln                   0040936c   <common>
 0004:00000000       __IMPORT_DESCRIPTOR_ole32  0040a000   ole32:ole32.dll
 0004:00000014       __IMPORT_DESCRIPTOR_OLEAUT32 0040a014   oleaut32:OLEAUT32.dll
 0004:00000028       __IMPORT_DESCRIPTOR_KERNEL32 0040a028   kernel32:KERNEL32.dll
 0004:0000003c       __NULL_IMPORT_DESCRIPTOR   0040a03c   ole32:ole32.dll
 0004:00000134       __imp__GetFileType@4       0040a134   kernel32:KERNEL32.dll
 0004:00000138       __imp__GetStdHandle@4      0040a138   kernel32:KERNEL32.dll
 0004:0000013c       __imp__SetConsoleCtrlHandler@8 0040a13c   kernel32:KERNEL32.dll
 0004:00000140       __imp__SetStdHandle@8      0040a140   kernel32:KERNEL32.dll
 0004:00000144       __imp__CloseHandle@4       0040a144   kernel32:KERNEL32.dll
 0004:00000148       __imp__SetFilePointer@16   0040a148   kernel32:KERNEL32.dll
 0004:0000014c       __imp__FlushFileBuffers@4  0040a14c   kernel32:KERNEL32.dll
 0004:00000150       __imp__LoadLibraryA@4      0040a150   kernel32:KERNEL32.dll
 0004:00000154       __imp__GetProcAddress@8    0040a154   kernel32:KERNEL32.dll
 0004:00000158       __imp__HeapAlloc@12        0040a158   kernel32:KERNEL32.dll
 0004:0000015c       __imp__Sleep@4             0040a15c   kernel32:KERNEL32.dll
 0004:00000160       __imp__GetCommandLineA@0   0040a160   kernel32:KERNEL32.dll
 0004:00000164       __imp__GetVersion@0        0040a164   kernel32:KERNEL32.dll
 0004:00000168       __imp__ExitProcess@4       0040a168   kernel32:KERNEL32.dll
 0004:0000016c       __imp__RtlUnwind@16        0040a16c   kernel32:KERNEL32.dll
 0004:00000170       __imp__UnhandledExceptionFilter@4 0040a170   kernel32:KERNEL32.dll
 0004:00000174       __imp__GetModuleFileNameA@12 0040a174   kernel32:KERNEL32.dll
 0004:00000178       __imp__FreeEnvironmentStringsA@4 0040a178   kernel32:KERNEL32.dll
 0004:0000017c       __imp__MultiByteToWideChar@24 0040a17c   kernel32:KERNEL32.dll
 0004:00000180       __imp__GetEnvironmentStrings@0 0040a180   kernel32:KERNEL32.dll
 0004:00000184       __imp__FreeEnvironmentStringsW@4 0040a184   kernel32:KERNEL32.dll
 0004:00000188       __imp__GetEnvironmentStringsW@0 0040a188   kernel32:KERNEL32.dll
 0004:0000018c       __imp__WideCharToMultiByte@32 0040a18c   kernel32:KERNEL32.dll
 0004:00000190       __imp__GetCPInfo@8         0040a190   kernel32:KERNEL32.dll
 0004:00000194       __imp__GetACP@0            0040a194   kernel32:KERNEL32.dll
 0004:00000198       __imp__GetOEMCP@0          0040a198   kernel32:KERNEL32.dll
 0004:0000019c       __imp__SetHandleCount@4    0040a19c   kernel32:KERNEL32.dll
 0004:000001a0       __imp__HeapFree@12         0040a1a0   kernel32:KERNEL32.dll
 0004:000001a4       __imp__GetLastError@0      0040a1a4   kernel32:KERNEL32.dll
 0004:000001a8       __imp__GetStartupInfoA@4   0040a1a8   kernel32:KERNEL32.dll
 0004:000001ac       __imp__DeleteCriticalSection@4 0040a1ac   kernel32:KERNEL32.dll
 0004:000001b0       __imp__GetCurrentThreadId@0 0040a1b0   kernel32:KERNEL32.dll
 0004:000001b4       __imp__TlsSetValue@8       0040a1b4   kernel32:KERNEL32.dll
 0004:000001b8       __imp__TlsAlloc@0          0040a1b8   kernel32:KERNEL32.dll
 0004:000001bc       __imp__TlsFree@4           0040a1bc   kernel32:KERNEL32.dll
 0004:000001c0       __imp__SetLastError@4      0040a1c0   kernel32:KERNEL32.dll
 0004:000001c4       __imp__TlsGetValue@4       0040a1c4   kernel32:KERNEL32.dll
 0004:000001c8       __imp__WriteFile@20        0040a1c8   kernel32:KERNEL32.dll
 0004:000001cc       __imp__GetCurrentThread@0  0040a1cc   kernel32:KERNEL32.dll
 0004:000001d0       __imp__HeapCreate@12       0040a1d0   kernel32:KERNEL32.dll
 0004:000001d4       __imp__HeapDestroy@4       0040a1d4   kernel32:KERNEL32.dll
 0004:000001d8       __imp__InitializeCriticalSection@4 0040a1d8   kernel32:KERNEL32.dll
 0004:000001dc       __imp__EnterCriticalSection@4 0040a1dc   kernel32:KERNEL32.dll
 0004:000001e0       __imp__LeaveCriticalSection@4 0040a1e0   kernel32:KERNEL32.dll
 0004:000001e4       __imp__FatalAppExitA@8     0040a1e4   kernel32:KERNEL32.dll
 0004:000001e8       \177KERNEL32_NULL_THUNK_DATA 0040a1e8   kernel32:KERNEL32.dll
 0004:000001ec       __imp__SysAllocString@4    0040a1ec   oleaut32:OLEAUT32.dll
 0004:000001f0       __imp__SafeArrayCreate@12  0040a1f0   oleaut32:OLEAUT32.dll
 0004:000001f4       __imp__SafeArrayAccessData@8 0040a1f4   oleaut32:OLEAUT32.dll
 0004:000001f8       __imp__SafeArrayUnaccessData@4 0040a1f8   oleaut32:OLEAUT32.dll
 0004:000001fc       __imp__SafeArrayDestroy@4  0040a1fc   oleaut32:OLEAUT32.dll
 0004:00000200       __imp__SysFreeString@4     0040a200   oleaut32:OLEAUT32.dll
 0004:00000204       \177OLEAUT32_NULL_THUNK_DATA 0040a204   oleaut32:OLEAUT32.dll
 0004:00000208       __imp__OleUninitialize@0   0040a208   ole32:ole32.dll
 0004:0000020c       __imp__OleInitialize@4     0040a20c   ole32:ole32.dll
 0004:00000210       __imp__CoCreateInstance@20 0040a210   ole32:ole32.dll
 0004:00000214       \177ole32_NULL_THUNK_DATA  0040a214   ole32:ole32.dll

 entry point at        0001:000002c0

 Static symbols

 0001:000049e0       _xtoa                      004059e0 f libcmt:xtoa.obj
 0001:00004690       _ctrlevent_capture@4       00405690 f libcmt:winsig.obj
 0001:00004900       _siglookup                 00405900 f libcmt:winsig.obj
 0001:00002e00       _flsall                    00403e00 f libcmt:fflush.obj
 0001:00002960       _write_char                00403960 f libcmt:output.obj
 0001:000029b0       _write_multi_char          004039b0 f libcmt:output.obj
 0001:000029f0       _write_string              004039f0 f libcmt:output.obj
 0001:00002a30       _get_int_arg               00403a30 f libcmt:output.obj
 0001:00002a40       _get_int64_arg             00403a40 f libcmt:output.obj
 0001:00002a60       _get_short_arg             00403a60 f libcmt:output.obj
 0001:000012d0       _getSystemCP               004022d0 f libcmt:mbctype.obj
 0001:00001320       _CPtoLCID                  00402320 f libcmt:mbctype.obj
 0001:00001380       _setSBCS                   00402380 f libcmt:mbctype.obj
 0001:00000b20       _parse_cmdline             00401b20 f libcmt:stdargv.obj
 0001:00000970       _xcptlookup                00401970 f libcmt:winxfltr.obj
 0001:00000750       __unwind_handler           00401750 f libcmt:exsup.obj
 0001:00000660       _doexit                    00401660 f libcmt:crt0dat.obj
 0001:00000710       __initterm                 00401710 f libcmt:crt0dat.obj

FIXUPS: 1450 10 f fffffea9 5 b f 5 10 19 8 5 5 1c 9 19 10 35 a a45 6d 2f
FIXUPS: 1fbd 25 68 fffffa74 14 10 1c fffffed9 15 2e 10 3c fffffdbf 10 ffffff0f
FIXUPS: 15e6 12 12 20 1d 10 c 57 12 c 1b 10 fffffd27 d 11db 1d 20 22 70
FIXUPS: 2701 1b 45 10 10 10 10 10 9 fffffc23 10 98 169 fffffabc d 14 16
FIXUPS: 20e8 b5 77 36 2f 1b 7 14 114 fffff9d4 1a84 28 144 48 46 fffff496
FIXUPS: 2efa 5a fffffe8e 1f 13 6d e fffffd54 55 10 a 18 a 5e 2f 41 2f fffffbbc
FIXUPS: 2945 e4 bd fffffdad d 11 2f 25 159a fffffdcf 2e 2b 23 fffffe83
FIXUPS: 3a9c 33 11 fffff5b2 53 aa 29 81 e 73 4e 26 76 81 3e 16 1d 13 db
FIXUPS: 35a0 113 b2 1f 2c 28 1f b23 1b fffffecf 19 37 a 15 21 10 fffffe7c
FIXUPS: 412d 2c 4c 1f fffffd30 13 c 31 5d fffffd6c c 9 b 1a 1d 4b 44 21
FIXUPS: 3e34 1d 19 1f 93c 3d ffffff21 ffffff5f 2b d 20 d 1a 10 fffffd1f
FIXUPS: 4443 b d b 7c f6 b 20 42 b fffffd33 17 1f c c e fffffef0 9 b 20
FIXUPS: 430e fed 1d fffffbdd ffffff1b 9 b d b 27 c d 20 d fffffb14 d5 c1
FIXUPS: 4c1c 124 11 a 1a 23 1e d 8 fffffa86 ffffff0f 13 b d b 22 1199 fffffacb
FIXUPS: 5425 9 35 3b fffffefb 9 15 c 9 ffffffa7 a a fffffbaf 2e 1d 6e 55
FIXUPS: 5055 a1 b 93 b 50 b 44 23 c b 19 26 ffffbd84 40 3c 52 5f 3a 21
FIXUPS: 1248 4774 15 93 1f fffffa86 18 3a 33 4e 11 8 56 4a 37 1c 1a 60
FIXUPS: 576e 51 13 1c a 85 c4
